 mio_ffmpeg

 Timestamp is 5fd736e5 (Mon Dec 14 18:56:53 2020)

 Preferred load address is 0000000180000000

 Start         Length     Name                   Class
 0001:00000000 00000070H .text$di                CODE
 0001:00000070 00036c00H .text$mn                CODE
 0001:00036c70 00000020H .text$mn$00             CODE
 0001:00036c90 00003f90H .text$x                 CODE
 0001:0003ac20 00000070H .text$yd                CODE
 0002:00000000 00000c68H .idata$5                DATA
 0002:00000c68 00000010H .00cfg                  DATA
 0002:00000c78 00000008H .CRT$XCA                DATA
 0002:00000c80 00000008H .CRT$XCL                DATA
 0002:00000c88 00000008H .CRT$XCU                DATA
 0002:00000c90 00000008H .CRT$XCZ                DATA
 0002:00000c98 00000008H .CRT$XIA                DATA
 0002:00000ca0 00000010H .CRT$XIC                DATA
 0002:00000cb0 00000008H .CRT$XIZ                DATA
 0002:00000cb8 00000008H .CRT$XLA                DATA
 0002:00000cc0 00000008H .CRT$XLZ                DATA
 0002:00000cc8 00000008H .CRT$XPA                DATA
 0002:00000cd0 00000008H .CRT$XPZ                DATA
 0002:00000cd8 00000008H .CRT$XTA                DATA
 0002:00000ce0 00000010H .CRT$XTZ                DATA
 0002:00000ce8 00000000H .gfids$y                DATA
 0002:00000cf0 000054f0H .rdata                  DATA
 0002:000061e0 00000030H .rdata$T                DATA
 0002:00006210 0000223cH .rdata$r                DATA
 0002:0000844c 0000034cH .rdata$zzzdbg           DATA
 0002:00008798 00000008H .rtc$IAA                DATA
 0002:000087a0 00000008H .rtc$IZZ                DATA
 0002:000087a8 00000008H .rtc$TAA                DATA
 0002:000087b0 00000008H .rtc$TZZ                DATA
 0002:000087b8 00000004H .tls                    DATA
 0002:000087bc 00000004H .tls$                   DATA
 0002:000087c0 00000010H .tls$ZZZ                DATA
 0002:000087d0 00008ea0H .xdata                  DATA
 0002:00011670 00000740H .xdata$x                DATA
 0002:00011db0 00000074H .edata                  DATA
 0002:00011e24 00000208H .idata$2                DATA
 0002:0001202c 00000014H .idata$3                DATA
 0002:00012040 00000c68H .idata$4                DATA
 0002:00012ca8 00004f9cH .idata$6                DATA
 0003:00000000 000003b0H .data                   DATA
 0003:000003b0 000012e0H .data$r                 DATA
 0003:00001690 00000698H .bss                    DATA
 0004:00000000 00002b68H .pdata                  DATA
 0005:00000000 00000060H .rsrc$01                DATA
 0005:00000060 00000098H .rsrc$02                DATA

  Address         Publics by Value              Rva+Base               Lib:Object

 0000:00000000       __guard_fids_count         0000000000000000     <absolute>
 0000:00000000       __guard_longjmp_count      0000000000000000     <absolute>
 0000:00000000       __guard_longjmp_table      0000000000000000     <absolute>
 0000:00000000       __hybrid_code_map          0000000000000000     <absolute>
 0000:00000000       __guard_iat_table          0000000000000000     <absolute>
 0000:00000000       __guard_iat_count          0000000000000000     <absolute>
 0000:00000000       __volatile_metadata        0000000000000000     <absolute>
 0000:00000000       __hybrid_code_map_count    0000000000000000     <absolute>
 0000:00000000       __enclave_config           0000000000000000     <absolute>
 0000:00000000       ___safe_se_handler_count   0000000000000000     <absolute>
 0000:00000000       ___safe_se_handler_table   0000000000000000     <absolute>
 0000:00000000       __guard_fids_table         0000000000000000     <absolute>
 0000:00000000       __hybrid_auxiliary_iat     0000000000000000     <absolute>
 0000:00000000       __dynamic_value_reloc_table 0000000000000000     <absolute>
 0000:00000100       __guard_flags              0000000000000100     <absolute>
 0000:00000000       __ImageBase                0000000180000000     <linker-defined>
 0001:00000070       ??$?0U?$token_finderF@U?$is_any_ofF@D@detail@algorithm@boost@@@detail@algorithm@boost@@@?$find_iterator_base@PEBD@detail@algorithm@boost@@IEAA@U?$token_finderF@U?$is_any_ofF@D@detail@algorithm@boost@@@123@H@Z 0000000180001070 f i init.obj
 0001:00000200       ??$?6U?$char_traits@D@std@@@std@@YAAEAV?$basic_ostream@DU?$char_traits@D@std@@@0@AEAV10@PEBD@Z 0000000180001200 f i init.obj
 0001:000003d0       ??$?9V?$transform_iterator@U?$copy_iterator_rangeF@V?$basic_string@DU?$char_traits@D@std@@V?$allocator@D@2@@std@@PEBD@detail@algorithm@boost@@V?$split_iterator@PEBD@34@Uuse_default@iterators@4@U674@@iterators@boost@@V?$basic_string@DU?$char_traits@D@std@@V?$allocator@D@2@@std@@Uforward_traversal_tag@12@V34@_JV012@V34@U512@V34@_J@iterators@boost@@YA_NAEBV?$iterator_facade@V?$transform_iterator@U?$copy_iterator_rangeF@V?$basic_string@DU?$char_traits@D@std@@V?$allocator@D@2@@std@@PEBD@detail@algorithm@boost@@V?$split_iterator@PEBD@34@Uuse_default@iterators@4@U674@@iterators@boost@@V?$basic_string@DU?$char_traits@D@std@@V?$allocator@D@2@@std@@Uforward_traversal_tag@23@V45@_J@01@0@Z 00000001800013d0 f i init.obj
 0001:00000470       ??$?HDU?$char_traits@D@std@@V?$allocator@D@1@@std@@YA?AV?$basic_string@DU?$char_traits@D@std@@V?$allocator@D@2@@0@AEBV10@QEBD@Z 0000000180001470 f i init.obj
 0001:00000520       ??$?RPEBD@?$token_finderF@U?$is_any_ofF@D@detail@algorithm@boost@@@detail@algorithm@boost@@QEBA?AV?$iterator_range@PEBD@3@PEBD0@Z 0000000180001520 f i init.obj
 0001:000006b0       ??$_Destroy_range@V?$allocator@V?$basic_option@D@program_options@boost@@@std@@@std@@YAXPEAV?$basic_option@D@program_options@boost@@0AEAV?$allocator@V?$basic_option@D@program_options@boost@@@0@@Z 00000001800016b0 f i init.obj
 0001:00000750       ??$_Destroy_range@V?$allocator@V?$basic_string@DU?$char_traits@D@std@@V?$allocator@D@2@@std@@@std@@@std@@YAXPEAV?$basic_string@DU?$char_traits@D@std@@V?$allocator@D@2@@0@0AEAV?$allocator@V?$basic_string@DU?$char_traits@D@std@@V?$allocator@D@2@@std@@@0@@Z 0000000180001750 f i init.obj
 0001:000007e0       ??$_Emplace_reallocate@V?$basic_string@DU?$char_traits@D@std@@V?$allocator@D@2@@std@@@?$vector@V?$basic_string@DU?$char_traits@D@std@@V?$allocator@D@2@@std@@V?$allocator@V?$basic_string@DU?$char_traits@D@std@@V?$allocator@D@2@@std@@@2@@std@@QEAAPEAV?$basic_string@DU?$char_traits@D@std@@V?$allocator@D@2@@1@QEAV21@$$QEAV21@@Z 00000001800017e0 f i init.obj
 0001:00000980       ??$_Guess_median_unchecked@PEADU?$less@X@std@@@std@@YAXPEAD00U?$less@X@0@@Z 0000000180001980 f i init.obj
 0001:00000ad0       ??$_Maklocstr@D@std@@YAPEADPEBDPEADAEBU_Cvtvec@@@Z 0000000180001ad0 f i init.obj
 0001:00000b50       ??$_Pop_heap_hole_by_index@PEADDU?$less@X@std@@@std@@YAXPEAD_J1$$QEADU?$less@X@0@@Z 0000000180001b50 f i init.obj
 0001:00000c10       ??$_Range_construct_or_tidy@V?$transform_iterator@U?$copy_iterator_rangeF@V?$basic_string@DU?$char_traits@D@std@@V?$allocator@D@2@@std@@PEBD@detail@algorithm@boost@@V?$split_iterator@PEBD@34@Uuse_default@iterators@4@U674@@iterators@boost@@@?$vector@V?$basic_string@DU?$char_traits@D@std@@V?$allocator@D@2@@std@@V?$allocator@V?$basic_string@DU?$char_traits@D@std@@V?$allocator@D@2@@std@@@2@@std@@AEAAXV?$transform_iterator@U?$copy_iterator_rangeF@V?$basic_string@DU?$char_traits@D@std@@V?$allocator@D@2@@std@@PEBD@detail@algorithm@boost@@V?$split_iterator@PEBD@34@Uuse_default@iterators@4@U674@@iterators@boost@@0Uinput_iterator_tag@1@@Z 0000000180001c10 f i init.obj
 0001:00000da0       ??$_Reallocate_grow_by@V<lambda_16d2cb92461ac9818af78a76c749bd7f>@@_K_KPEBD_K@?$basic_string@DU?$char_traits@D@std@@V?$allocator@D@2@@std@@QEAAAEAV01@_KV<lambda_16d2cb92461ac9818af78a76c749bd7f>@@_K2PEBD2@Z 0000000180001da0 f i init.obj
 0001:00000f60       ??$_Reallocate_grow_by@V<lambda_65e615be2a453ca0576c979606f46740>@@PEBD_K@?$basic_string@DU?$char_traits@D@std@@V?$allocator@D@2@@std@@QEAAAEAV01@_KV<lambda_65e615be2a453ca0576c979606f46740>@@PEBD_K@Z 0000000180001f60 f i init.obj
 0001:000010e0       ??$_Sort_unchecked@PEADU?$less@X@std@@@std@@YAXPEAD0_JU?$less@X@0@@Z 00000001800020e0 f i init.obj
 0001:00001470       ??$_Ucopy@PEAV?$basic_string@DU?$char_traits@D@std@@V?$allocator@D@2@@std@@@?$vector@V?$basic_string@DU?$char_traits@D@std@@V?$allocator@D@2@@std@@V?$allocator@V?$basic_string@DU?$char_traits@D@std@@V?$allocator@D@2@@std@@@2@@std@@AEAAPEAV?$basic_string@DU?$char_traits@D@std@@V?$allocator@D@2@@1@PEAV21@00@Z 0000000180002470 f i init.obj
 0001:00001500       ??$_Uninitialized_move@PEAV?$basic_string@DU?$char_traits@D@std@@V?$allocator@D@2@@std@@PEAV12@V?$allocator@V?$basic_string@DU?$char_traits@D@std@@V?$allocator@D@2@@std@@@2@@std@@YAPEAV?$basic_string@DU?$char_traits@D@std@@V?$allocator@D@2@@0@QEAV10@0PEAV10@AEAV?$allocator@V?$basic_string@DU?$char_traits@D@std@@V?$allocator@D@2@@std@@@0@@Z 0000000180002500 f i init.obj
 0001:00001580       ??$assign_to@U?$token_finderF@U?$is_any_ofF@D@detail@algorithm@boost@@@detail@algorithm@boost@@@?$basic_vtable2@V?$iterator_range@PEBD@boost@@PEBDPEBD@function@detail@boost@@QEBA_NU?$token_finderF@U?$is_any_ofF@D@detail@algorithm@boost@@@2algorithm@3@AEATfunction_buffer@123@@Z 0000000180002580 f i init.obj
 0001:00001720       ??$enable_current_exception@U?$error_info_injector@Vbad_lexical_cast@boost@@@exception_detail@boost@@@boost@@YA?AV?$clone_impl@U?$error_info_injector@Vbad_lexical_cast@boost@@@exception_detail@boost@@@exception_detail@0@AEBU?$error_info_injector@Vbad_lexical_cast@boost@@@20@@Z 0000000180002720 f i init.obj
 0001:000017d0       ??$enable_current_exception@U?$error_info_injector@Vinvalid_option_value@program_options@boost@@@exception_detail@boost@@@boost@@YA?AV?$clone_impl@U?$error_info_injector@Vinvalid_option_value@program_options@boost@@@exception_detail@boost@@@exception_detail@0@AEBU?$error_info_injector@Vinvalid_option_value@program_options@boost@@@20@@Z 00000001800027d0 f i init.obj
 0001:000018a0       ??$enable_current_exception@U?$error_info_injector@Vvalidation_error@program_options@boost@@@exception_detail@boost@@@boost@@YA?AV?$clone_impl@U?$error_info_injector@Vvalidation_error@program_options@boost@@@exception_detail@boost@@@exception_detail@0@AEBU?$error_info_injector@Vvalidation_error@program_options@boost@@@20@@Z 00000001800028a0 f i init.obj
 0001:00001970       ??$enable_error_info@Vbad_lexical_cast@boost@@@boost@@YA?AU?$error_info_injector@Vbad_lexical_cast@boost@@@exception_detail@0@AEBVbad_lexical_cast@0@@Z 0000000180002970 f i init.obj
 0001:00001a00       ??$enable_error_info@Vinvalid_option_value@program_options@boost@@@boost@@YA?AU?$error_info_injector@Vinvalid_option_value@program_options@boost@@@exception_detail@0@AEBVinvalid_option_value@program_options@0@@Z 0000000180002a00 f i init.obj
 0001:00001a60       ??$enable_error_info@Vvalidation_error@program_options@boost@@@boost@@YA?AU?$error_info_injector@Vvalidation_error@program_options@boost@@@exception_detail@0@AEBVvalidation_error@program_options@0@@Z 0000000180002a60 f i init.obj
 0001:00001ac0       ??$endl@DU?$char_traits@D@std@@@std@@YAAEAV?$basic_ostream@DU?$char_traits@D@std@@@0@AEAV10@@Z 0000000180002ac0 f i init.obj
 0001:00001b00       ??$get_single_string@D@validators@program_options@boost@@YAAEBV?$basic_string@DU?$char_traits@D@std@@V?$allocator@D@2@@std@@AEBV?$vector@V?$basic_string@DU?$char_traits@D@std@@V?$allocator@D@2@@std@@V?$allocator@V?$basic_string@DU?$char_traits@D@std@@V?$allocator@D@2@@std@@@2@@4@_N@Z 0000000180002b00 f i init.obj
 0001:00001ca0       ??$iter_split@V?$vector@V?$basic_string@DU?$char_traits@D@std@@V?$allocator@D@2@@std@@V?$allocator@V?$basic_string@DU?$char_traits@D@std@@V?$allocator@D@2@@std@@@2@@std@@PEBDU?$token_finderF@U?$is_any_ofF@D@detail@algorithm@boost@@@detail@algorithm@boost@@@algorithm@boost@@YAAEAV?$vector@V?$basic_string@DU?$char_traits@D@std@@V?$allocator@D@2@@std@@V?$allocator@V?$basic_string@DU?$char_traits@D@std@@V?$allocator@D@2@@std@@@2@@std@@AEAV23@AEAPEBDU?$token_finderF@U?$is_any_ofF@D@detail@algorithm@boost@@@detail@01@@Z 0000000180002ca0 f i init.obj
 0001:00002060       ??$make_transform_iterator@U?$copy_iterator_rangeF@V?$basic_string@DU?$char_traits@D@std@@V?$allocator@D@2@@std@@PEBD@detail@algorithm@boost@@V?$split_iterator@PEBD@34@@iterators@boost@@YA?AV?$transform_iterator@U?$copy_iterator_rangeF@V?$basic_string@DU?$char_traits@D@std@@V?$allocator@D@2@@std@@PEBD@detail@algorithm@boost@@V?$split_iterator@PEBD@34@Uuse_default@iterators@4@U674@@01@V?$split_iterator@PEBD@algorithm@1@U?$copy_iterator_rangeF@V?$basic_string@DU?$char_traits@D@std@@V?$allocator@D@2@@std@@PEBD@detail@41@@Z 0000000180003060 f i init.obj
 0001:000020f0       ??$parse_command_line@D@program_options@boost@@YA?AV?$basic_parsed_options@D@01@HQEBQEBDAEBVoptions_description@01@HV?$function1@U?$pair@V?$basic_string@DU?$char_traits@D@std@@V?$allocator@D@2@@std@@V12@@std@@AEBV?$basic_string@DU?$char_traits@D@std@@V?$allocator@D@2@@2@@1@@Z 00000001800030f0 f i init.obj
 0001:000023c0       ??$parse_inf_nan@DN@detail@boost@@YA_NPEBD0AEAN@Z 00000001800033c0 f i init.obj
 0001:00002570       ??$shr_using_base_class@N@?$lexical_ostream_limited_src@DU?$char_traits@D@std@@@detail@boost@@AEAA_NAEAN@Z 0000000180003570 f i init.obj
 0001:000026c0       ??$split@V?$vector@V?$basic_string@DU?$char_traits@D@std@@V?$allocator@D@2@@std@@V?$allocator@V?$basic_string@DU?$char_traits@D@std@@V?$allocator@D@2@@std@@@2@@std@@PEBDU?$is_any_ofF@D@detail@algorithm@boost@@@algorithm@boost@@YAAEAV?$vector@V?$basic_string@DU?$char_traits@D@std@@V?$allocator@D@2@@std@@V?$allocator@V?$basic_string@DU?$char_traits@D@std@@V?$allocator@D@2@@std@@@2@@std@@AEAV23@AEAPEBDU?$is_any_ofF@D@detail@01@W4token_compress_mode_type@01@@Z 00000001800036c0 f i init.obj
 0001:00002830       ??$throw_bad_cast@NV?$basic_string@DU?$char_traits@D@std@@V?$allocator@D@2@@std@@@detail@conversion@boost@@YAXXZ 0000000180003830 f i init.obj
 0001:00002860       ??$throw_bad_cast@V?$basic_string@DU?$char_traits@D@std@@V?$allocator@D@2@@std@@H@detail@conversion@boost@@YAXXZ 0000000180003860 f i init.obj
 0001:00002890       ??$throw_bad_cast@V?$basic_string@DU?$char_traits@D@std@@V?$allocator@D@2@@std@@N@detail@conversion@boost@@YAXXZ 0000000180003890 f i init.obj
 0001:000028c0       ??$throw_exception@Vbad_lexical_cast@boost@@@boost@@YAXAEBVbad_lexical_cast@0@@Z 00000001800038c0 f i init.obj
 0001:00002900       ??$throw_exception@Vinvalid_option_value@program_options@boost@@@boost@@YAXAEBVinvalid_option_value@program_options@0@@Z 0000000180003900 f i init.obj
 0001:00002940       ??$throw_exception@Vvalidation_error@program_options@boost@@@boost@@YAXAEBVvalidation_error@program_options@0@@Z 0000000180003940 f i init.obj
 0001:00002980       ??$use_facet@V?$numpunct@D@std@@@std@@YAAEBV?$numpunct@D@0@AEBVlocale@0@@Z 0000000180003980 f i init.obj
 0001:00002af0       ??$validate@HD@program_options@boost@@YAXAEAVany@1@AEBV?$vector@V?$basic_string@DU?$char_traits@D@std@@V?$allocator@D@2@@std@@V?$allocator@V?$basic_string@DU?$char_traits@D@std@@V?$allocator@D@2@@std@@@2@@std@@PEAHJ@Z 0000000180003af0 f i init.obj
 0001:00002c80       ??$validate@ND@program_options@boost@@YAXAEAVany@1@AEBV?$vector@V?$basic_string@DU?$char_traits@D@std@@V?$allocator@D@2@@std@@V?$allocator@V?$basic_string@DU?$char_traits@D@std@@V?$allocator@D@2@@std@@@2@@std@@PEANJ@Z 0000000180003c80 f i init.obj
 0001:00002df0       ??0?$basic_command_line_parser@D@program_options@boost@@QEAA@HQEBQEBD@Z 0000000180003df0 f i init.obj
 0001:00003100       ??0?$basic_string@DU?$char_traits@D@std@@V?$allocator@D@2@@std@@QEAA@AEBV01@@Z 0000000180004100 f i init.obj
 0001:000031e0       ??0?$basic_string@DU?$char_traits@D@std@@V?$allocator@D@2@@std@@QEAA@QEBD@Z 00000001800041e0 f i init.obj
 0001:00003220       ??0?$clone_impl@U?$error_info_injector@Vbad_lexical_cast@boost@@@exception_detail@boost@@@exception_detail@boost@@QEAA@AEBV012@@Z 0000000180004220 f i init.obj
 0001:000032b0       ??0?$clone_impl@U?$error_info_injector@Vinvalid_option_value@program_options@boost@@@exception_detail@boost@@@exception_detail@boost@@QEAA@AEBV012@@Z 00000001800042b0 f i init.obj
 0001:00003350       ??0?$clone_impl@U?$error_info_injector@Vvalidation_error@program_options@boost@@@exception_detail@boost@@@exception_detail@boost@@QEAA@AEBV012@@Z 0000000180004350 f i init.obj
 0001:000033f0       ??0?$error_info_injector@Vbad_lexical_cast@boost@@@exception_detail@boost@@QEAA@AEBU012@@Z 00000001800043f0 f i init.obj
 0001:000034b0       ??0?$error_info_injector@Vinvalid_option_value@program_options@boost@@@exception_detail@boost@@QEAA@AEBU012@@Z 00000001800044b0 f i init.obj
 0001:00003550       ??0?$error_info_injector@Vvalidation_error@program_options@boost@@@exception_detail@boost@@QEAA@AEBU012@@Z 0000000180004550 f i init.obj
 0001:000035f0       ??0?$split_iterator@PEBD@algorithm@boost@@QEAA@AEBV012@@Z 00000001800045f0 f i init.obj
 0001:00003670       ??0?$vector@PEAEV?$allocator@PEAE@std@@@std@@QEAA@_KAEBV?$allocator@PEAE@1@@Z 0000000180004670 f i MovieFFMpeg:MovieFFMpeg.obj
 0001:00003670       ??0?$vector@PEBDV?$allocator@PEBD@std@@@std@@QEAA@_KAEBV?$allocator@PEBD@1@@Z 0000000180004670 f i init.obj
 0001:00003670       ??0?$vector@PEAHV?$allocator@PEAH@std@@@std@@QEAA@_KAEBV?$allocator@PEAH@1@@Z 0000000180004670 f i MovieFFMpeg:MovieFFMpeg.obj
 0001:00003670       ??0?$vector@PEAMV?$allocator@PEAM@std@@@std@@QEAA@_KAEBV?$allocator@PEAM@1@@Z 0000000180004670 f i MovieFFMpeg:MovieFFMpeg.obj
 0001:00003670       ??0?$vector@PEANV?$allocator@PEAN@std@@@std@@QEAA@_KAEBV?$allocator@PEAN@1@@Z 0000000180004670 f i MovieFFMpeg:MovieFFMpeg.obj
 0001:00003670       ??0?$vector@PEAFV?$allocator@PEAF@std@@@std@@QEAA@_KAEBV?$allocator@PEAF@1@@Z 0000000180004670 f i MovieFFMpeg:MovieFFMpeg.obj
 0001:00003750       ??0?$vector@V?$basic_option@D@program_options@boost@@V?$allocator@V?$basic_option@D@program_options@boost@@@std@@@std@@QEAA@AEBV01@@Z 0000000180004750 f i init.obj
 0001:000038d0       ??0?$vector@V?$basic_string@DU?$char_traits@D@std@@V?$allocator@D@2@@std@@V?$allocator@V?$basic_string@DU?$char_traits@D@std@@V?$allocator@D@2@@std@@@2@@std@@QEAA@AEBV01@@Z 00000001800048d0 f i init.obj
 0001:00003970       ??0bad_cast@std@@QEAA@AEBV01@@Z 0000000180004970 f i init.obj
 0001:000039b0       ??0bad_lexical_cast@boost@@QEAA@AEBV01@@Z 00000001800049b0 f i init.obj
 0001:00003a10       ??0bad_lexical_cast@boost@@QEAA@AEBVtype_info@@0@Z 0000000180004a10 f i init.obj
 0001:00003a40       ??0clone_base@exception_detail@boost@@QEAA@AEBV012@@Z 0000000180004a40 f i init.obj
 0001:00003a50       ??0exception@boost@@QEAA@AEBV01@@Z 0000000180004a50 f i init.obj
 0001:00003ab0       ??0exception@std@@QEAA@AEBV01@@Z 0000000180004ab0 f i init.obj
 0001:00003af0       ??0logic_error@std@@QEAA@AEBV01@@Z 0000000180004af0 f i init.obj
 0001:00003b30       ??0runtime_error@std@@QEAA@AEBV01@@Z 0000000180004b30 f i init.obj
 0001:00003b70       ??1?$_Uninitialized_backout_al@PEAV?$basic_option@D@program_options@boost@@V?$allocator@V?$basic_option@D@program_options@boost@@@std@@@std@@QEAA@XZ 0000000180004b70 f i init.obj
 0001:00003b80       ??1?$_Uninitialized_backout_al@PEAV?$basic_string@DU?$char_traits@D@std@@V?$allocator@D@2@@std@@V?$allocator@V?$basic_string@DU?$char_traits@D@std@@V?$allocator@D@2@@std@@@2@@std@@QEAA@XZ 0000000180004b80 f i init.obj
 0001:00003b90       ??1?$basic_command_line_parser@D@program_options@boost@@QEAA@XZ 0000000180004b90 f i init.obj
 0001:00003ba0       ??1?$basic_parsed_options@D@program_options@boost@@QEAA@XZ 0000000180004ba0 f i init.obj
 0001:00003bb0       ?_Tidy_deallocate@?$basic_string@DU?$char_traits@D@std@@V?$allocator@D@2@@std@@QEAAXXZ 0000000180004bb0 f i init.obj
 0001:00003bb0       ??1ChannelInfo@FBInfo@TwkFB@@QEAA@XZ 0000000180004bb0 f i MovieFFMpeg:MovieFFMpeg.obj
 0001:00003bb0       ??1?$basic_string@DU?$char_traits@D@std@@V?$allocator@D@2@@std@@QEAA@XZ 0000000180004bb0 f i init.obj
 0001:00003bb0       ??1?$pair@V?$basic_string@DU?$char_traits@D@std@@V?$allocator@D@2@@std@@H@std@@QEAA@XZ 0000000180004bb0 f i MovieFFMpeg:MovieFFMpeg.obj
 0001:00003c10       ??1?$basic_stringbuf@DU?$char_traits@D@std@@V?$allocator@D@2@@std@@UEAA@XZ 0000000180004c10 f i init.obj
 0001:00003cd0       ??1?$basic_unlockedbuf@V?$basic_streambuf@DU?$char_traits@D@std@@@std@@D@detail@boost@@UEAA@XZ 0000000180004cd0 f i init.obj
 0001:00003ce0       ??1?$error_info_injector@Vbad_lexical_cast@boost@@@exception_detail@boost@@UEAA@XZ 0000000180004ce0 f i init.obj
 0001:00003d40       ??1?$error_info_injector@Vinvalid_option_value@program_options@boost@@@exception_detail@boost@@UEAA@XZ 0000000180004d40 f i init.obj
 0001:00003da0       ??1?$error_info_injector@Vvalidation_error@program_options@boost@@@exception_detail@boost@@UEAA@XZ 0000000180004da0 f i init.obj
 0001:00003e00       ??1?$find_iterator_base@PEBD@detail@algorithm@boost@@IEAA@XZ 0000000180004e00 f i init.obj
 0001:00003e00       ??1?$split_iterator@PEBD@algorithm@boost@@QEAA@XZ 0000000180004e00 f i init.obj
 0001:00003e00       ??1?$transform_iterator@U?$copy_iterator_rangeF@V?$basic_string@DU?$char_traits@D@std@@V?$allocator@D@2@@std@@PEBD@detail@algorithm@boost@@V?$split_iterator@PEBD@34@Uuse_default@iterators@4@U674@@iterators@boost@@QEAA@XZ 0000000180004e00 f i init.obj
 0001:00003e50       ??1?$function1@U?$pair@V?$basic_string@DU?$char_traits@D@std@@V?$allocator@D@2@@std@@V12@@std@@AEBV?$basic_string@DU?$char_traits@D@std@@V?$allocator@D@2@@2@@boost@@QEAA@XZ 0000000180004e50 f i init.obj
 0001:00003ea0       ??1?$token_finderF@U?$is_any_ofF@D@detail@algorithm@boost@@@detail@algorithm@boost@@QEAA@XZ 0000000180004ea0 f i init.obj
 0001:00003ea0       ??1?$is_any_ofF@D@detail@algorithm@boost@@QEAA@XZ 0000000180004ea0 f i init.obj
 0001:00003ec0       ??1?$lexical_istream_limited_src@DU?$char_traits@D@std@@$00$0BN@@detail@boost@@QEAA@XZ 0000000180004ec0 f i init.obj
 0001:00003ee0       ??1?$refcount_ptr@Uerror_info_container@exception_detail@boost@@@exception_detail@boost@@QEAA@XZ 0000000180004ee0 f i init.obj
 0001:00003f20       ??1?$typed_value@ND@program_options@boost@@UEAA@XZ 0000000180004f20 f i init.obj
 0001:00003f20       ??1?$typed_value@V?$basic_string@DU?$char_traits@D@std@@V?$allocator@D@2@@std@@D@program_options@boost@@UEAA@XZ 0000000180004f20 f i init.obj
 0001:00003f20       ??1?$typed_value@HD@program_options@boost@@UEAA@XZ 0000000180004f20 f i init.obj
 0001:000040b0       ??1?$unique_ptr@V_Facet_base@std@@U?$default_delete@V_Facet_base@std@@@2@@std@@QEAA@XZ 00000001800050b0 f i init.obj
 0001:000040d0       ?_Tidy@?$vector@PEBDV?$allocator@PEBD@std@@@std@@AEAAXXZ 00000001800050d0 f i init.obj
 0001:000040d0       ??1?$vector@PEAHV?$allocator@PEAH@std@@@std@@QEAA@XZ 00000001800050d0 f i MovieFFMpeg:MovieFFMpeg.obj
 0001:000040d0       ?_Tidy@?$vector@PEAVVideoTrack@TwkMovie@@V?$allocator@PEAVVideoTrack@TwkMovie@@@std@@@std@@AEAAXXZ 00000001800050d0 f i MovieFFMpeg:MovieFFMpeg.obj
 0001:000040d0       ??1?$vector@PEBDV?$allocator@PEBD@std@@@std@@QEAA@XZ 00000001800050d0 f i init.obj
 0001:000040d0       ??1?$vector@PEAVVideoTrack@TwkMovie@@V?$allocator@PEAVVideoTrack@TwkMovie@@@std@@@std@@QEAA@XZ 00000001800050d0 f i MovieFFMpeg:MovieFFMpeg.obj
 0001:000040d0       ??1?$vector@PEAMV?$allocator@PEAM@std@@@std@@QEAA@XZ 00000001800050d0 f i MovieFFMpeg:MovieFFMpeg.obj
 0001:000040d0       ??1?$vector@PEAFV?$allocator@PEAF@std@@@std@@QEAA@XZ 00000001800050d0 f i MovieFFMpeg:MovieFFMpeg.obj
 0001:000040d0       ?_Tidy@?$vector@PEAEV?$allocator@PEAE@std@@@std@@AEAAXXZ 00000001800050d0 f i MovieFFMpeg:MovieFFMpeg.obj
 0001:000040d0       ?_Tidy@?$vector@PEAHV?$allocator@PEAH@std@@@std@@AEAAXXZ 00000001800050d0 f i MovieFFMpeg:MovieFFMpeg.obj
 0001:000040d0       ?_Tidy@?$vector@PEAVAudioTrack@TwkMovie@@V?$allocator@PEAVAudioTrack@TwkMovie@@@std@@@std@@AEAAXXZ 00000001800050d0 f i MovieFFMpeg:MovieFFMpeg.obj
 0001:000040d0       ??1?$vector@PEAEV?$allocator@PEAE@std@@@std@@QEAA@XZ 00000001800050d0 f i MovieFFMpeg:MovieFFMpeg.obj
 0001:000040d0       ??1?$vector@PEAVFrameBuffer@TwkFB@@V?$allocator@PEAVFrameBuffer@TwkFB@@@std@@@std@@QEAA@XZ 00000001800050d0 f i MovieFFMpeg:MovieFFMpeg.obj
 0001:000040d0       ?_Tidy@?$vector@PEAFV?$allocator@PEAF@std@@@std@@AEAAXXZ 00000001800050d0 f i MovieFFMpeg:MovieFFMpeg.obj
 0001:000040d0       ??1?$vector@PEAVAudioTrack@TwkMovie@@V?$allocator@PEAVAudioTrack@TwkMovie@@@std@@@std@@QEAA@XZ 00000001800050d0 f i MovieFFMpeg:MovieFFMpeg.obj
 0001:000040d0       ?_Tidy@?$vector@PEANV?$allocator@PEAN@std@@@std@@AEAAXXZ 00000001800050d0 f i MovieFFMpeg:MovieFFMpeg.obj
 0001:000040d0       ?_Tidy@?$vector@PEAMV?$allocator@PEAM@std@@@std@@AEAAXXZ 00000001800050d0 f i MovieFFMpeg:MovieFFMpeg.obj
 0001:000040d0       ??1?$vector@PEANV?$allocator@PEAN@std@@@std@@QEAA@XZ 00000001800050d0 f i MovieFFMpeg:MovieFFMpeg.obj
 0001:000040d0       ?_Tidy@?$vector@PEAVFrameBuffer@TwkFB@@V?$allocator@PEAVFrameBuffer@TwkFB@@@std@@@std@@AEAAXXZ 00000001800050d0 f i MovieFFMpeg:MovieFFMpeg.obj
 0001:00004130       ??1?$vector@V?$basic_string@DU?$char_traits@D@std@@V?$allocator@D@2@@std@@V?$allocator@V?$basic_string@DU?$char_traits@D@std@@V?$allocator@D@2@@std@@@2@@std@@QEAA@XZ 0000000180005130 f i init.obj
 0001:00004140       ??1_Sentry_base@?$basic_ostream@DU?$char_traits@D@std@@@std@@QEAA@XZ 0000000180005140 f i init.obj
 0001:00004170       ??1bad_alloc@std@@UEAA@XZ  0000000180005170 f i MSVCRT:throw_bad_alloc.obj
 0001:00004170       ??1runtime_error@std@@UEAA@XZ 0000000180005170 f i init.obj
 0001:00004170       ??1bad_cast@std@@UEAA@XZ   0000000180005170 f i init.obj
 0001:00004170       ??1bad_array_new_length@std@@UEAA@XZ 0000000180005170 f i MSVCRT:throw_bad_alloc.obj
 0001:00004170       ??1bad_lexical_cast@boost@@UEAA@XZ 0000000180005170 f i init.obj
 0001:00004190       ??1clone_base@exception_detail@boost@@UEAA@XZ 0000000180005190 f i init.obj
 0001:000041a0       ??1locale@std@@QEAA@XZ     00000001800051a0 f i init.obj
 0001:000041e0       ??1placeholder@any@boost@@UEAA@XZ 00000001800051e0 f i init.obj
 0001:000041f0       ??1sentry@?$basic_ostream@DU?$char_traits@D@std@@@std@@QEAA@XZ 00000001800051f0 f i init.obj
 0001:00004240       ??8locale@std@@QEBA_NAEBV01@@Z 0000000180005240 f i init.obj
 0001:00004460       ??_D?$clone_impl@U?$error_info_injector@Vbad_lexical_cast@boost@@@exception_detail@boost@@@exception_detail@boost@@QEAAXXZ 0000000180005460 f i init.obj
 0001:00004500       ??_D?$clone_impl@U?$error_info_injector@Vinvalid_option_value@program_options@boost@@@exception_detail@boost@@@exception_detail@boost@@QEAAXXZ 0000000180005500 f i init.obj
 0001:000045c0       ??_D?$clone_impl@U?$error_info_injector@Vvalidation_error@program_options@boost@@@exception_detail@boost@@@exception_detail@boost@@QEAAXXZ 00000001800055c0 f i init.obj
 0001:00004674       ??_E?$clone_impl@U?$error_info_injector@Vbad_lexical_cast@boost@@@exception_detail@boost@@@exception_detail@boost@@$4PPPPPPPM@GA@EAAPEAXI@Z 0000000180005674 f i init.obj
 0001:00004684       ??_E?$clone_impl@U?$error_info_injector@Vbad_lexical_cast@boost@@@exception_detail@boost@@@exception_detail@boost@@WCI@EAAPEAXI@Z 0000000180005684 f i init.obj
 0001:00004690       ??_E?$clone_impl@U?$error_info_injector@Vinvalid_option_value@program_options@boost@@@exception_detail@boost@@@exception_detail@boost@@$4PPPPPPPM@MA@EAAPEAXI@Z 0000000180005690 f i init.obj
 0001:000046a4       ??_E?$clone_impl@U?$error_info_injector@Vinvalid_option_value@program_options@boost@@@exception_detail@boost@@@exception_detail@boost@@WII@EAAPEAXI@Z 00000001800056a4 f i init.obj
 0001:000046b0       ??_E?$clone_impl@U?$error_info_injector@Vvalidation_error@program_options@boost@@@exception_detail@boost@@@exception_detail@boost@@$4PPPPPPPM@MA@EAAPEAXI@Z 00000001800056b0 f i init.obj
 0001:000046c4       ??_E?$clone_impl@U?$error_info_injector@Vvalidation_error@program_options@boost@@@exception_detail@boost@@@exception_detail@boost@@WII@EAAPEAXI@Z 00000001800056c4 f i init.obj
 0001:000046d0       ??_E?$error_info_injector@Vbad_lexical_cast@boost@@@exception_detail@boost@@WCI@EAAPEAXI@Z 00000001800056d0 f i init.obj
 0001:000046dc       ??_E?$error_info_injector@Vinvalid_option_value@program_options@boost@@@exception_detail@boost@@WII@EAAPEAXI@Z 00000001800056dc f i init.obj
 0001:000046e8       ??_E?$error_info_injector@Vvalidation_error@program_options@boost@@@exception_detail@boost@@WII@EAAPEAXI@Z 00000001800056e8 f i init.obj
 0001:000046f4       ??_E?$typed_value@ND@program_options@boost@@W7EAAPEAXI@Z 00000001800056f4 f i init.obj
 0001:000046f4       ??_E?$typed_value@HD@program_options@boost@@W7EAAPEAXI@Z 00000001800056f4 f i init.obj
 0001:000046f4       ??_E?$typed_value@V?$basic_string@DU?$char_traits@D@std@@V?$allocator@D@2@@std@@D@program_options@boost@@W7EAAPEAXI@Z 00000001800056f4 f i init.obj
 0001:00004700       ??_G?$basic_unlockedbuf@V?$basic_stringbuf@DU?$char_traits@D@std@@V?$allocator@D@2@@std@@D@detail@boost@@UEAAPEAXI@Z 0000000180005700 f i init.obj
 0001:00004700       ??_G?$basic_stringbuf@DU?$char_traits@D@std@@V?$allocator@D@2@@std@@UEAAPEAXI@Z 0000000180005700 f i init.obj
 0001:00004700       ??_E?$basic_stringbuf@DU?$char_traits@D@std@@V?$allocator@D@2@@std@@UEAAPEAXI@Z 0000000180005700 f i init.obj
 0001:00004700       ??_E?$basic_unlockedbuf@V?$basic_stringbuf@DU?$char_traits@D@std@@V?$allocator@D@2@@std@@D@detail@boost@@UEAAPEAXI@Z 0000000180005700 f i init.obj
 0001:00004740       ??_G?$basic_unlockedbuf@V?$basic_streambuf@DU?$char_traits@D@std@@@std@@D@detail@boost@@UEAAPEAXI@Z 0000000180005740 f i init.obj
 0001:00004740       ??_E?$basic_unlockedbuf@V?$basic_streambuf@DU?$char_traits@D@std@@@std@@D@detail@boost@@UEAAPEAXI@Z 0000000180005740 f i init.obj
 0001:00004780       ??_G?$clone_impl@U?$error_info_injector@Vbad_lexical_cast@boost@@@exception_detail@boost@@@exception_detail@boost@@UEAAPEAXI@Z 0000000180005780 f i init.obj
 0001:00004780       ??_E?$clone_impl@U?$error_info_injector@Vbad_lexical_cast@boost@@@exception_detail@boost@@@exception_detail@boost@@UEAAPEAXI@Z 0000000180005780 f i init.obj
 0001:000047c0       ??_G?$clone_impl@U?$error_info_injector@Vinvalid_option_value@program_options@boost@@@exception_detail@boost@@@exception_detail@boost@@UEAAPEAXI@Z 00000001800057c0 f i init.obj
 0001:000047c0       ??_E?$clone_impl@U?$error_info_injector@Vinvalid_option_value@program_options@boost@@@exception_detail@boost@@@exception_detail@boost@@UEAAPEAXI@Z 00000001800057c0 f i init.obj
 0001:00004800       ??_G?$clone_impl@U?$error_info_injector@Vvalidation_error@program_options@boost@@@exception_detail@boost@@@exception_detail@boost@@UEAAPEAXI@Z 0000000180005800 f i init.obj
 0001:00004800       ??_E?$clone_impl@U?$error_info_injector@Vvalidation_error@program_options@boost@@@exception_detail@boost@@@exception_detail@boost@@UEAAPEAXI@Z 0000000180005800 f i init.obj
 0001:00004840       ??_G?$error_info_injector@Vbad_lexical_cast@boost@@@exception_detail@boost@@UEAAPEAXI@Z 0000000180005840 f i init.obj
 0001:00004840       ??_E?$error_info_injector@Vbad_lexical_cast@boost@@@exception_detail@boost@@UEAAPEAXI@Z 0000000180005840 f i init.obj
 0001:000048c0       ??_E?$error_info_injector@Vinvalid_option_value@program_options@boost@@@exception_detail@boost@@UEAAPEAXI@Z 00000001800058c0 f i init.obj
 0001:000048c0       ??_G?$error_info_injector@Vinvalid_option_value@program_options@boost@@@exception_detail@boost@@UEAAPEAXI@Z 00000001800058c0 f i init.obj
 0001:00004940       ??_E?$error_info_injector@Vvalidation_error@program_options@boost@@@exception_detail@boost@@UEAAPEAXI@Z 0000000180005940 f i init.obj
 0001:00004940       ??_G?$error_info_injector@Vvalidation_error@program_options@boost@@@exception_detail@boost@@UEAAPEAXI@Z 0000000180005940 f i init.obj
 0001:000049c0       ??_G?$holder@H@any@boost@@UEAAPEAXI@Z 00000001800059c0 f i init.obj
 0001:000049c0       ??_E?$holder@H@any@boost@@UEAAPEAXI@Z 00000001800059c0 f i init.obj
 0001:000049c0       ??_E?$holder@N@any@boost@@UEAAPEAXI@Z 00000001800059c0 f i init.obj
 0001:000049c0       ??_G?$holder@N@any@boost@@UEAAPEAXI@Z 00000001800059c0 f i init.obj
 0001:000049f0       ??_E?$holder@V?$basic_string@DU?$char_traits@D@std@@V?$allocator@D@2@@std@@@any@boost@@UEAAPEAXI@Z 00000001800059f0 f i init.obj
 0001:000049f0       ??_G?$holder@V?$basic_string@DU?$char_traits@D@std@@V?$allocator@D@2@@std@@@any@boost@@UEAAPEAXI@Z 00000001800059f0 f i init.obj
 0001:00004a80       ??_G?$numpunct@D@std@@MEAAPEAXI@Z 0000000180005a80 f i init.obj
 0001:00004a80       ??_E?$numpunct@D@std@@MEAAPEAXI@Z 0000000180005a80 f i init.obj
 0001:00004ae0       ??_G?$typed_value@V?$basic_string@DU?$char_traits@D@std@@V?$allocator@D@2@@std@@D@program_options@boost@@UEAAPEAXI@Z 0000000180005ae0 f i init.obj
 0001:00004ae0       ??_E?$typed_value@V?$basic_string@DU?$char_traits@D@std@@V?$allocator@D@2@@std@@D@program_options@boost@@UEAAPEAXI@Z 0000000180005ae0 f i init.obj
 0001:00004ae0       ??_G?$typed_value@HD@program_options@boost@@UEAAPEAXI@Z 0000000180005ae0 f i init.obj
 0001:00004ae0       ??_E?$typed_value@ND@program_options@boost@@UEAAPEAXI@Z 0000000180005ae0 f i init.obj
 0001:00004ae0       ??_E?$typed_value@HD@program_options@boost@@UEAAPEAXI@Z 0000000180005ae0 f i init.obj
 0001:00004ae0       ??_G?$typed_value@ND@program_options@boost@@UEAAPEAXI@Z 0000000180005ae0 f i init.obj
 0001:00004b20       ??_Gexception@std@@UEAAPEAXI@Z 0000000180005b20 f i init.obj
 0001:00004b20       ??_Eruntime_error@std@@UEAAPEAXI@Z 0000000180005b20 f i init.obj
 0001:00004b20       ??_Gruntime_error@std@@UEAAPEAXI@Z 0000000180005b20 f i init.obj
 0001:00004b20       ??_Ebad_alloc@std@@UEAAPEAXI@Z 0000000180005b20 f i MSVCRT:throw_bad_alloc.obj
 0001:00004b20       ??_Gbad_cast@std@@UEAAPEAXI@Z 0000000180005b20 f i init.obj
 0001:00004b20       ??_Glogic_error@std@@UEAAPEAXI@Z 0000000180005b20 f i init.obj
 0001:00004b20       ??_Eexception@std@@UEAAPEAXI@Z 0000000180005b20 f i init.obj
 0001:00004b20       ??_Ebad_cast@std@@UEAAPEAXI@Z 0000000180005b20 f i init.obj
 0001:00004b20       ??_Gbad_array_new_length@std@@UEAAPEAXI@Z 0000000180005b20 f i MSVCRT:throw_bad_alloc.obj
 0001:00004b20       ??_Elogic_error@std@@UEAAPEAXI@Z 0000000180005b20 f i init.obj
 0001:00004b20       ??_Ebad_array_new_length@std@@UEAAPEAXI@Z 0000000180005b20 f i MSVCRT:throw_bad_alloc.obj
 0001:00004b20       ??_Gbad_alloc@std@@UEAAPEAXI@Z 0000000180005b20 f i MSVCRT:throw_bad_alloc.obj
 0001:00004b70       ??_Ebad_lexical_cast@boost@@UEAAPEAXI@Z 0000000180005b70 f i init.obj
 0001:00004b70       ??_Gbad_lexical_cast@boost@@UEAAPEAXI@Z 0000000180005b70 f i init.obj
 0001:00004bc0       ??_Eclone_base@exception_detail@boost@@UEAAPEAXI@Z 0000000180005bc0 f i init.obj
 0001:00004bc0       ??_Gclone_base@exception_detail@boost@@UEAAPEAXI@Z 0000000180005bc0 f i init.obj
 0001:00004bf0       ??_Eplaceholder@any@boost@@UEAAPEAXI@Z 0000000180005bf0 f i init.obj
 0001:00004bf0       ??_Gplaceholder@any@boost@@UEAAPEAXI@Z 0000000180005bf0 f i init.obj
 0001:00004c20       ??_Etyped_value_base@program_options@boost@@UEAAPEAXI@Z 0000000180005c20 f i init.obj
 0001:00004c20       ??_Gtyped_value_base@program_options@boost@@UEAAPEAXI@Z 0000000180005c20 f i init.obj
 0001:00004c50       ?_Become_small@?$basic_string@DU?$char_traits@D@std@@V?$allocator@D@2@@std@@QEAAXXZ 0000000180005c50 f i init.obj
 0001:00004cc0       ?_Destroy@?$vector@V?$basic_string@DU?$char_traits@D@std@@V?$allocator@D@2@@std@@V?$allocator@V?$basic_string@DU?$char_traits@D@std@@V?$allocator@D@2@@std@@@2@@std@@AEAAXPEAV?$basic_string@DU?$char_traits@D@std@@V?$allocator@D@2@@2@0@Z 0000000180005cc0 f i init.obj
 0001:00004ce0       ?_Init@?$numpunct@D@std@@IEAAXAEBV_Locinfo@2@_N@Z 0000000180005ce0 f i init.obj
 0001:00004e90       ?_Tidy@?$numpunct@D@std@@AEAAXXZ 0000000180005e90 f i init.obj
 0001:00004ec0       ?_Tidy@?$vector@V?$basic_option@D@program_options@boost@@V?$allocator@V?$basic_option@D@program_options@boost@@@std@@@std@@AEAAXXZ 0000000180005ec0 f i init.obj
 0001:00004f50       ?_Tidy@?$vector@V?$basic_string@DU?$char_traits@D@std@@V?$allocator@D@2@@std@@V?$allocator@V?$basic_string@DU?$char_traits@D@std@@V?$allocator@D@2@@std@@@2@@std@@AEAAXXZ 0000000180005f50 f i init.obj
 0001:00004fc0       ?_Xlen@?$basic_string@DU?$char_traits@D@std@@V?$allocator@D@2@@std@@SAXXZ 0000000180005fc0 f i init.obj
 0001:00004fe0       ?_Xlength@?$vector@UChapterInfo@TwkMovie@@V?$allocator@UChapterInfo@TwkMovie@@@std@@@std@@CAXXZ 0000000180005fe0 f i MovieFFMpeg:MovieFFMpeg.obj
 0001:00004fe0       ?_Xlength@?$vector@PEAEV?$allocator@PEAE@std@@@std@@CAXXZ 0000000180005fe0 f i MovieFFMpeg:MovieFFMpeg.obj
 0001:00004fe0       ?_Xlength@?$vector@U?$pair@V?$basic_string@DU?$char_traits@D@std@@V?$allocator@D@2@@std@@V12@@std@@V?$allocator@U?$pair@V?$basic_string@DU?$char_traits@D@std@@V?$allocator@D@2@@std@@V12@@std@@@2@@std@@CAXXZ 0000000180005fe0 f i MovieFFMpeg:MovieFFMpeg.obj
 0001:00004fe0       ?_Xlength@?$vector@PEANV?$allocator@PEAN@std@@@std@@CAXXZ 0000000180005fe0 f i MovieFFMpeg:MovieFFMpeg.obj
 0001:00004fe0       ?_Xlength@?$vector@PEAMV?$allocator@PEAM@std@@@std@@CAXXZ 0000000180005fe0 f i MovieFFMpeg:MovieFFMpeg.obj
 0001:00004fe0       ?_Xlength@?$vector@UChannelInfo@FBInfo@TwkFB@@V?$allocator@UChannelInfo@FBInfo@TwkFB@@@std@@@std@@CAXXZ 0000000180005fe0 f i MovieFFMpeg:MovieFFMpeg.obj
 0001:00004fe0       ?_Xlength@?$vector@UParameter@MovieIO@TwkMovie@@V?$allocator@UParameter@MovieIO@TwkMovie@@@std@@@std@@CAXXZ 0000000180005fe0 f i MovieFFMpeg:MovieFFMpeg.obj
 0001:00004fe0       ?_Xlength@?$vector@PEAVFrameBuffer@TwkFB@@V?$allocator@PEAVFrameBuffer@TwkFB@@@std@@@std@@CAXXZ 0000000180005fe0 f i MovieFFMpeg:MovieFFMpeg.obj
 0001:00004fe0       ?_Xlength@?$vector@ULayerInfo@FBInfo@TwkFB@@V?$allocator@ULayerInfo@FBInfo@TwkFB@@@std@@@std@@CAXXZ 0000000180005fe0 f i MovieFFMpeg:MovieFFMpeg.obj
 0001:00004fe0       ?_Xlength@?$vector@PEAHV?$allocator@PEAH@std@@@std@@CAXXZ 0000000180005fe0 f i MovieFFMpeg:MovieFFMpeg.obj
 0001:00004fe0       ?_Xlength@?$vector@PEBDV?$allocator@PEBD@std@@@std@@CAXXZ 0000000180005fe0 f i init.obj
 0001:00004fe0       ?_Xlength@?$vector@W4Channels@TwkAudio@@V?$allocator@W4Channels@TwkAudio@@@std@@@std@@CAXXZ 0000000180005fe0 f i MovieFFMpeg:MovieFFMpeg.obj
 0001:00004fe0       ?_Xlength@?$vector@PEAVAudioTrack@TwkMovie@@V?$allocator@PEAVAudioTrack@TwkMovie@@@std@@@std@@CAXXZ 0000000180005fe0 f i MovieFFMpeg:MovieFFMpeg.obj
 0001:00004fe0       ?_Xlength@?$vector@HV?$allocator@H@std@@@std@@CAXXZ 0000000180005fe0 f i MovieFFMpeg:MovieFFMpeg.obj
 0001:00004fe0       ?_Xlength@?$vector@PEAVVideoTrack@TwkMovie@@V?$allocator@PEAVVideoTrack@TwkMovie@@@std@@@std@@CAXXZ 0000000180005fe0 f i MovieFFMpeg:MovieFFMpeg.obj
 0001:00004fe0       ?_Xlength@?$vector@IV?$allocator@I@std@@@std@@CAXXZ 0000000180005fe0 f i MovieFFMpeg:MovieFFMpeg.obj
 0001:00004fe0       ?_Xlength@?$vector@V?$basic_string@DU?$char_traits@D@std@@V?$allocator@D@2@@std@@V?$allocator@V?$basic_string@DU?$char_traits@D@std@@V?$allocator@D@2@@std@@@2@@std@@CAXXZ 0000000180005fe0 f i init.obj
 0001:00004fe0       ?_Xlength@?$vector@V?$vector@MV?$replacement_allocator@M@stl_ext@@@std@@V?$allocator@V?$vector@MV?$replacement_allocator@M@stl_ext@@@std@@@2@@std@@CAXXZ 0000000180005fe0 f i MovieFFMpeg:MovieFFMpeg.obj
 0001:00004fe0       ?_Xlength@?$vector@PEAVFBAttribute@TwkFB@@V?$allocator@PEAVFBAttribute@TwkFB@@@std@@@std@@CAXXZ 0000000180005fe0 f i MovieFFMpeg:MovieFFMpeg.obj
 0001:00004fe0       ?_Xlength@?$vector@MV?$replacement_allocator@M@stl_ext@@@std@@CAXXZ 0000000180005fe0 f i MovieFFMpeg:MovieFFMpeg.obj
 0001:00004fe0       ?_Xlength@?$vector@PEAFV?$allocator@PEAF@std@@@std@@CAXXZ 0000000180005fe0 f i MovieFFMpeg:MovieFFMpeg.obj
 0001:00004fe0       ?_Xlength@?$vector@UViewInfo@FBInfo@TwkFB@@V?$allocator@UViewInfo@FBInfo@TwkFB@@@std@@@std@@CAXXZ 0000000180005fe0 f i MovieFFMpeg:MovieFFMpeg.obj
 0001:00004fe0       ?_Xlength@?$vector@V?$basic_option@D@program_options@boost@@V?$allocator@V?$basic_option@D@program_options@boost@@@std@@@std@@CAXXZ 0000000180005fe0 f i init.obj
 0001:00005000       ?_Xran@?$_String_val@U?$_Simple_types@D@std@@@std@@SAXXZ 0000000180006000 f i init.obj
 0001:00005020       ?allocate@?$allocator@D@std@@QEAAPEAD_K@Z 0000000180006020 f i init.obj
 0001:00005080       ?allocate@?$allocator@V?$basic_string@DU?$char_traits@D@std@@V?$allocator@D@2@@std@@@std@@QEAAPEAV?$basic_string@DU?$char_traits@D@std@@V?$allocator@D@2@@2@_K@Z 0000000180006080 f i init.obj
 0001:00005100       ?append@?$basic_string@DU?$char_traits@D@std@@V?$allocator@D@2@@std@@QEAAAEAV12@QEBD_K@Z 0000000180006100 f i init.obj
 0001:00005190       ?apply_default@?$typed_value@V?$basic_string@DU?$char_traits@D@std@@V?$allocator@D@2@@std@@D@program_options@boost@@UEBA_NAEAVany@3@@Z 0000000180006190 f i init.obj
 0001:00005190       ?apply_default@?$typed_value@ND@program_options@boost@@UEBA_NAEAVany@3@@Z 0000000180006190 f i init.obj
 0001:00005190       ?apply_default@?$typed_value@HD@program_options@boost@@UEBA_NAEAVany@3@@Z 0000000180006190 f i init.obj
 0001:000051d0       ?assign@?$basic_string@DU?$char_traits@D@std@@V?$allocator@D@2@@std@@QEAAAEAV12@QEBD_K@Z 00000001800061d0 f i init.obj
 0001:00005320       ?clone@?$clone_impl@U?$error_info_injector@Vbad_lexical_cast@boost@@@exception_detail@boost@@@exception_detail@boost@@$0PPPPPPPM@A@EBAPEBVclone_base@23@XZ 0000000180006320 f i init.obj
 0001:00005330       ?clone@?$clone_impl@U?$error_info_injector@Vbad_lexical_cast@boost@@@exception_detail@boost@@@exception_detail@boost@@EEBAPEBVclone_base@23@XZ 0000000180006330 f i init.obj
 0001:00005420       ?clone@?$clone_impl@U?$error_info_injector@Vinvalid_option_value@program_options@boost@@@exception_detail@boost@@@exception_detail@boost@@$0PPPPPPPM@A@EBAPEBVclone_base@23@XZ 0000000180006420 f i init.obj
 0001:00005430       ?clone@?$clone_impl@U?$error_info_injector@Vinvalid_option_value@program_options@boost@@@exception_detail@boost@@@exception_detail@boost@@EEBAPEBVclone_base@23@XZ 0000000180006430 f i init.obj
 0001:00005548       ?clone@?$clone_impl@U?$error_info_injector@Vvalidation_error@program_options@boost@@@exception_detail@boost@@@exception_detail@boost@@$0PPPPPPPM@A@EBAPEBVclone_base@23@XZ 0000000180006548 f i init.obj
 0001:00005560       ?clone@?$clone_impl@U?$error_info_injector@Vvalidation_error@program_options@boost@@@exception_detail@boost@@@exception_detail@boost@@EEBAPEBVclone_base@23@XZ 0000000180006560 f i init.obj
 0001:00005680       ?clone@?$holder@H@any@boost@@UEBAPEAVplaceholder@23@XZ 0000000180006680 f i init.obj
 0001:000056c0       ?clone@?$holder@N@any@boost@@UEBAPEAVplaceholder@23@XZ 00000001800066c0 f i init.obj
 0001:00005700       ?clone@?$holder@V?$basic_string@DU?$char_traits@D@std@@V?$allocator@D@2@@std@@@any@boost@@UEBAPEAVplaceholder@23@XZ 0000000180006700 f i init.obj
 0001:00005770       ?convert@?$lcast_put_unsigned@U?$char_traits@D@std@@ID@detail@boost@@QEAAPEADXZ 0000000180006770 f i init.obj
 0001:000059d0       ?convert@?$lcast_ret_unsigned@U?$char_traits@D@std@@ID@detail@boost@@QEAA_NXZ 00000001800069d0 f i init.obj
 0001:00005c10       ?copy_boost_exception@exception_detail@boost@@YAXPEAVexception@2@PEBV32@@Z 0000000180006c10 f i init.obj
 0001:00005cd0       ?deallocate@?$allocator@D@std@@QEAAXQEAD_K@Z 0000000180006cd0 f i init.obj
 0001:00005d10       ?deallocate@?$allocator@U?$_Tree_node@DPEAX@std@@@std@@QEAAXQEAU?$_Tree_node@DPEAX@2@_K@Z 0000000180006d10 f i MovieFFMpeg:MovieFFMpeg.obj
 0001:00005d10       ?deallocate@?$allocator@U?$_Tree_node@HPEAX@std@@@std@@QEAAXQEAU?$_Tree_node@HPEAX@2@_K@Z 0000000180006d10 f i MovieFFMpeg:MovieFFMpeg.obj
 0001:00005d10       ?deallocate@?$allocator@V?$basic_string@DU?$char_traits@D@std@@V?$allocator@D@2@@std@@@std@@QEAAXQEAV?$basic_string@DU?$char_traits@D@std@@V?$allocator@D@2@@2@_K@Z 0000000180006d10 f i init.obj
 0001:00005d60       ?default_value@?$typed_value@HD@program_options@boost@@QEAAPEAV123@AEBH@Z 0000000180006d60 f i init.obj
 0001:00005f30       ?do_decimal_point@?$numpunct@D@std@@MEBADXZ 0000000180006f30 f i init.obj
 0001:00005f40       ?do_falsename@?$numpunct@D@std@@MEBA?AV?$basic_string@DU?$char_traits@D@std@@V?$allocator@D@2@@2@XZ 0000000180006f40 f i init.obj
 0001:00005f90       ?do_grouping@?$numpunct@D@std@@MEBA?AV?$basic_string@DU?$char_traits@D@std@@V?$allocator@D@2@@2@XZ 0000000180006f90 f i init.obj
 0001:00005fe0       ?do_thousands_sep@?$numpunct@D@std@@MEBADXZ 0000000180006fe0 f i init.obj
 0001:00005ff0       ?do_truename@?$numpunct@D@std@@MEBA?AV?$basic_string@DU?$char_traits@D@std@@V?$allocator@D@2@@2@XZ 0000000180006ff0 f i init.obj
 0001:00006040       ?has_empty_target@function@detail@boost@@YA_NZZ 0000000180007040 f i init.obj
 0001:00006060       ?increment@?$split_iterator@PEBD@algorithm@boost@@AEAAXXZ 0000000180007060 f i init.obj
 0001:000060f0       ?invoke@?$function_obj_invoker2@U?$token_finderF@U?$is_any_ofF@D@detail@algorithm@boost@@@detail@algorithm@boost@@V?$iterator_range@PEBD@4@PEBDPEBD@function@detail@boost@@SA?AV?$iterator_range@PEBD@4@AEATfunction_buffer@234@PEBD1@Z 00000001800070f0 f i init.obj
 0001:00006110       ?is_composing@?$typed_value@HD@program_options@boost@@UEBA_NXZ 0000000180007110 f i init.obj
 0001:00006110       ?is_composing@?$typed_value@ND@program_options@boost@@UEBA_NXZ 0000000180007110 f i init.obj
 0001:00006110       ?is_composing@?$typed_value@V?$basic_string@DU?$char_traits@D@std@@V?$allocator@D@2@@std@@D@program_options@boost@@UEBA_NXZ 0000000180007110 f i init.obj
 0001:00006120       ?is_required@?$typed_value@ND@program_options@boost@@UEBA_NXZ 0000000180007120 f i init.obj
 0001:00006120       ?is_required@?$typed_value@V?$basic_string@DU?$char_traits@D@std@@V?$allocator@D@2@@std@@D@program_options@boost@@UEBA_NXZ 0000000180007120 f i init.obj
 0001:00006120       ?is_required@?$typed_value@HD@program_options@boost@@UEBA_NXZ 0000000180007120 f i init.obj
 0001:00006130       ?main_convert_iteration@?$lcast_ret_unsigned@U?$char_traits@D@std@@ID@detail@boost@@AEAA_NXZ 0000000180007130 f i init.obj
 0001:000061b0       ?main_convert_loop@?$lcast_ret_unsigned@U?$char_traits@D@std@@ID@detail@boost@@AEAA_NXZ 00000001800071b0 f i init.obj
 0001:00006240       ?manage@?$functor_manager@U?$token_finderF@U?$is_any_ofF@D@detail@algorithm@boost@@@detail@algorithm@boost@@@function@detail@boost@@SAXAEBTfunction_buffer@234@AEAT5234@W4functor_manager_operation_type@234@@Z 0000000180007240 f i init.obj
 0001:00006360       ?max_tokens@?$typed_value@ND@program_options@boost@@UEBAIXZ 0000000180007360 f i init.obj
 0001:00006360       ?max_tokens@?$typed_value@V?$basic_string@DU?$char_traits@D@std@@V?$allocator@D@2@@std@@D@program_options@boost@@UEBAIXZ 0000000180007360 f i init.obj
 0001:00006360       ?max_tokens@?$typed_value@HD@program_options@boost@@UEBAIXZ 0000000180007360 f i init.obj
 0001:00006380       ?min_tokens@?$typed_value@V?$basic_string@DU?$char_traits@D@std@@V?$allocator@D@2@@std@@D@program_options@boost@@UEBAIXZ 0000000180007380 f i init.obj
 0001:00006380       ?min_tokens@?$typed_value@ND@program_options@boost@@UEBAIXZ 0000000180007380 f i init.obj
 0001:00006380       ?min_tokens@?$typed_value@HD@program_options@boost@@UEBAIXZ 0000000180007380 f i init.obj
 0001:000063a0       ?name@?$typed_value@HD@program_options@boost@@UEBA?AV?$basic_string@DU?$char_traits@D@std@@V?$allocator@D@2@@std@@XZ 00000001800073a0 f i init.obj
 0001:000063a0       ?name@?$typed_value@ND@program_options@boost@@UEBA?AV?$basic_string@DU?$char_traits@D@std@@V?$allocator@D@2@@std@@XZ 00000001800073a0 f i init.obj
 0001:000063a0       ?name@?$typed_value@V?$basic_string@DU?$char_traits@D@std@@V?$allocator@D@2@@std@@D@program_options@boost@@UEBA?AV?$basic_string@DU?$char_traits@D@std@@V?$allocator@D@2@@std@@XZ 00000001800073a0 f i init.obj
 0001:00006bc0       ?name@locale@std@@QEBA?AV?$basic_string@DU?$char_traits@D@std@@V?$allocator@D@2@@2@XZ 0000000180007bc0 f i init.obj
 0001:00006d40       ?notify@?$typed_value@HD@program_options@boost@@UEBAXAEBVany@3@@Z 0000000180007d40 f i init.obj
 0001:00006dd0       ?notify@?$typed_value@ND@program_options@boost@@UEBAXAEBVany@3@@Z 0000000180007dd0 f i init.obj
 0001:00006e60       ?notify@?$typed_value@V?$basic_string@DU?$char_traits@D@std@@V?$allocator@D@2@@std@@D@program_options@boost@@UEBAXAEBVany@3@@Z 0000000180007e60 f i init.obj
 0001:00006f10       ?overflow@?$basic_stringbuf@DU?$char_traits@D@std@@V?$allocator@D@2@@std@@MEAAHH@Z 0000000180007f10 f i init.obj
 0001:000070c0       ?pbackfail@?$basic_stringbuf@DU?$char_traits@D@std@@V?$allocator@D@2@@std@@MEAAHH@Z 00000001800080c0 f i init.obj
 0001:00007120       ?replace@?$basic_string@DU?$char_traits@D@std@@V?$allocator@D@2@@std@@QEAAAEAV12@_K_KQEBD0@Z 0000000180008120 f i init.obj
 0001:000072c0       ?reserve@?$basic_string@DU?$char_traits@D@std@@V?$allocator@D@2@@std@@QEAAX_K@Z 00000001800082c0 f i init.obj
 0001:00007434       ?rethrow@?$clone_impl@U?$error_info_injector@Vbad_lexical_cast@boost@@@exception_detail@boost@@@exception_detail@boost@@$0PPPPPPPM@A@EBAXXZ 0000000180008434 f i init.obj
 0001:00007440       ?rethrow@?$clone_impl@U?$error_info_injector@Vbad_lexical_cast@boost@@@exception_detail@boost@@@exception_detail@boost@@EEBAXXZ 0000000180008440 f i init.obj
 0001:00007470       ?rethrow@?$clone_impl@U?$error_info_injector@Vinvalid_option_value@program_options@boost@@@exception_detail@boost@@@exception_detail@boost@@$0PPPPPPPM@A@EBAXXZ 0000000180008470 f i init.obj
 0001:00007480       ?rethrow@?$clone_impl@U?$error_info_injector@Vinvalid_option_value@program_options@boost@@@exception_detail@boost@@@exception_detail@boost@@EEBAXXZ 0000000180008480 f i init.obj
 0001:000074c4       ?rethrow@?$clone_impl@U?$error_info_injector@Vvalidation_error@program_options@boost@@@exception_detail@boost@@@exception_detail@boost@@$0PPPPPPPM@A@EBAXXZ 00000001800084c4 f i init.obj
 0001:000074d0       ?rethrow@?$clone_impl@U?$error_info_injector@Vvalidation_error@program_options@boost@@@exception_detail@boost@@@exception_detail@boost@@EEBAXXZ 00000001800084d0 f i init.obj
 0001:00007520       ?seekoff@?$basic_pointerbuf@DV?$basic_streambuf@DU?$char_traits@D@std@@@std@@@detail@boost@@MEAA?AV?$fpos@U_Mbstatet@@@std@@_JHH@Z 0000000180008520 f i init.obj
 0001:00007520       ?seekoff@?$basic_pointerbuf@DV?$basic_stringbuf@DU?$char_traits@D@std@@V?$allocator@D@2@@std@@@detail@boost@@MEAA?AV?$fpos@U_Mbstatet@@@std@@_JHH@Z 0000000180008520 f i init.obj
 0001:000075f0       ?seekoff@?$basic_stringbuf@DU?$char_traits@D@std@@V?$allocator@D@2@@std@@MEAA?AV?$fpos@U_Mbstatet@@@2@_JHH@Z 00000001800085f0 f i init.obj
 0001:00007740       ?seekpos@?$basic_pointerbuf@DV?$basic_streambuf@DU?$char_traits@D@std@@@std@@@detail@boost@@MEAA?AV?$fpos@U_Mbstatet@@@std@@V45@H@Z 0000000180008740 f i init.obj
 0001:00007740       ?seekpos@?$basic_pointerbuf@DV?$basic_stringbuf@DU?$char_traits@D@std@@V?$allocator@D@2@@std@@@detail@boost@@MEAA?AV?$fpos@U_Mbstatet@@@std@@V45@H@Z 0000000180008740 f i init.obj
 0001:000077b0       ?seekpos@?$basic_stringbuf@DU?$char_traits@D@std@@V?$allocator@D@2@@std@@MEAA?AV?$fpos@U_Mbstatet@@@2@V32@H@Z 00000001800087b0 f i init.obj
 0001:000078a0       ?setbuf@?$basic_pointerbuf@DV?$basic_stringbuf@DU?$char_traits@D@std@@V?$allocator@D@2@@std@@@detail@boost@@MEAAPEAV?$basic_stringbuf@DU?$char_traits@D@std@@V?$allocator@D@2@@std@@PEAD_J@Z 00000001800088a0 f i init.obj
 0001:000078a0       ?setbuf@?$basic_pointerbuf@DV?$basic_streambuf@DU?$char_traits@D@std@@@std@@@detail@boost@@MEAAPEAV?$basic_streambuf@DU?$char_traits@D@std@@@std@@PEAD_J@Z 00000001800088a0 f i init.obj
 0001:000078c0       ?try_convert@?$lexical_converter_impl@V?$basic_string@DU?$char_traits@D@std@@V?$allocator@D@2@@std@@N@detail@boost@@SA_NAEBNAEAV?$basic_string@DU?$char_traits@D@std@@V?$allocator@D@2@@std@@@Z 00000001800088c0 f i init.obj
 0001:00007b10       ?type@?$holder@H@any@boost@@UEBAAEBVtype_info@@XZ 0000000180008b10 f i init.obj
 0001:00007b10       ?value_type@?$typed_value@HD@program_options@boost@@UEBAAEBVtype_info@@XZ 0000000180008b10 f i init.obj
 0001:00007b20       ?type@?$holder@N@any@boost@@UEBAAEBVtype_info@@XZ 0000000180008b20 f i init.obj
 0001:00007b20       ?value_type@?$typed_value@ND@program_options@boost@@UEBAAEBVtype_info@@XZ 0000000180008b20 f i init.obj
 0001:00007b30       ?value_type@?$typed_value@V?$basic_string@DU?$char_traits@D@std@@V?$allocator@D@2@@std@@D@program_options@boost@@UEBAAEBVtype_info@@XZ 0000000180008b30 f i init.obj
 0001:00007b30       ?type@?$holder@V?$basic_string@DU?$char_traits@D@std@@V?$allocator@D@2@@std@@@any@boost@@UEBAAEBVtype_info@@XZ 0000000180008b30 f i init.obj
 0001:00007b40       ?underflow@?$basic_stringbuf@DU?$char_traits@D@std@@V?$allocator@D@2@@std@@MEAAHXZ 0000000180008b40 f i init.obj
 0001:00007bb0       ?what@bad_lexical_cast@boost@@UEBAPEBDXZ 0000000180008bb0 f i init.obj
 0001:00007bc0       ?what@exception@std@@UEBAPEBDXZ 0000000180008bc0 f i init.obj
 0001:00007be0       ?xparse@?$typed_value@HD@program_options@boost@@UEBAXAEAVany@3@AEBV?$vector@V?$basic_string@DU?$char_traits@D@std@@V?$allocator@D@2@@std@@V?$allocator@V?$basic_string@DU?$char_traits@D@std@@V?$allocator@D@2@@std@@@2@@std@@@Z 0000000180008be0 f i init.obj
 0001:00007c40       ?xparse@?$typed_value@ND@program_options@boost@@UEBAXAEAVany@3@AEBV?$vector@V?$basic_string@DU?$char_traits@D@std@@V?$allocator@D@2@@std@@V?$allocator@V?$basic_string@DU?$char_traits@D@std@@V?$allocator@D@2@@std@@@2@@std@@@Z 0000000180008c40 f i init.obj
 0001:00007ca0       ?xparse@?$typed_value@V?$basic_string@DU?$char_traits@D@std@@V?$allocator@D@2@@std@@D@program_options@boost@@UEBAXAEAVany@3@AEBV?$vector@V?$basic_string@DU?$char_traits@D@std@@V?$allocator@D@2@@std@@V?$allocator@V?$basic_string@DU?$char_traits@D@std@@V?$allocator@D@2@@std@@@2@@std@@@Z 0000000180008ca0 f i init.obj
 0001:00007d00       __local_stdio_printf_options 0000000180008d00 f i init.obj
 0001:00007d10       codecIsAllowed             0000000180008d10 f   init.obj
 0001:00007e30       create                     0000000180008e30 f   init.obj
 0001:000088d0       destroy                    00000001800098d0 f   init.obj
 0001:000088f0       sprintf_s                  00000001800098f0 f i init.obj
 0001:00008950       ??$?0AEAPEBDAEAPEBD$0A@@?$pair@V?$basic_string@DU?$char_traits@D@std@@V?$allocator@D@2@@std@@V12@@std@@QEAA@AEAPEBD0@Z 0000000180009950 f i MovieFFMpeg:MovieFFMpeg.obj
 0001:000089f0       ??$?0V?$basic_string@DU?$char_traits@D@std@@V?$allocator@D@2@@std@@@path@filesystem@boost@@QEAA@AEBV?$basic_string@DU?$char_traits@D@std@@V?$allocator@D@2@@std@@PEAX@Z 00000001800099f0 f i MovieFFMpeg:MovieFFMpeg.obj
 0001:00008a80       ??$?6$$BY0CN@D@TwkExc@@YAAEAV?$basic_ostream@DU?$char_traits@D@std@@@std@@AEAVException@0@AEAY0CN@$$CBD@Z 0000000180009a80 f i MovieFFMpeg:MovieFFMpeg.obj
 0001:00008a80       ??$?6$$BY0BF@D@TwkExc@@YAAEAV?$basic_ostream@DU?$char_traits@D@std@@@std@@AEAVException@0@AEAY0BF@$$CBD@Z 0000000180009a80 f i MovieFFMpeg:MovieFFMpeg.obj
 0001:00008a80       ??$?6$$BY0BE@D@TwkExc@@YAAEAV?$basic_ostream@DU?$char_traits@D@std@@@std@@AEAVException@0@AEAY0BE@$$CBD@Z 0000000180009a80 f i MovieFFMpeg:MovieFFMpeg.obj
 0001:00008a80       ??$?6$$BY0CK@D@TwkExc@@YAAEAV?$basic_ostream@DU?$char_traits@D@std@@@std@@AEAVException@0@AEAY0CK@$$CBD@Z 0000000180009a80 f i MovieFFMpeg:MovieFFMpeg.obj
 0001:00008a80       ??$?6$$BY0CH@D@TwkExc@@YAAEAV?$basic_ostream@DU?$char_traits@D@std@@@std@@AEAVException@0@AEAY0CH@$$CBD@Z 0000000180009a80 f i MovieFFMpeg:MovieFFMpeg.obj
 0001:00008a80       ??$?6$$BY0CP@D@TwkExc@@YAAEAV?$basic_ostream@DU?$char_traits@D@std@@@std@@AEAVException@0@AEAY0CP@$$CBD@Z 0000000180009a80 f i MovieFFMpeg:MovieFFMpeg.obj
 0001:00008a80       ??$?6$$BY0BH@D@TwkExc@@YAAEAV?$basic_ostream@DU?$char_traits@D@std@@@std@@AEAVException@0@AEAY0BH@$$CBD@Z 0000000180009a80 f i MovieFFMpeg:MovieFFMpeg.obj
 0001:00008a80       ??$?6$$BY0CL@D@TwkExc@@YAAEAV?$basic_ostream@DU?$char_traits@D@std@@@std@@AEAVException@0@AEAY0CL@$$CBD@Z 0000000180009a80 f i MovieFFMpeg:MovieFFMpeg.obj
 0001:00008a80       ??$?6$$BY0CF@D@TwkExc@@YAAEAV?$basic_ostream@DU?$char_traits@D@std@@@std@@AEAVException@0@AEAY0CF@$$CBD@Z 0000000180009a80 f i MovieFFMpeg:MovieFFMpeg.obj
 0001:00008a80       ??$?6$$BY0BK@D@TwkExc@@YAAEAV?$basic_ostream@DU?$char_traits@D@std@@@std@@AEAVException@0@AEAY0BK@$$CBD@Z 0000000180009a80 f i MovieFFMpeg:MovieFFMpeg.obj
 0001:00008a80       ??$?6$$BY0CA@D@TwkExc@@YAAEAV?$basic_ostream@DU?$char_traits@D@std@@@std@@AEAVException@0@AEAY0CA@$$CBD@Z 0000000180009a80 f i MovieFFMpeg:MovieFFMpeg.obj
 0001:00008a80       ??$?6$$BY0BJ@D@TwkExc@@YAAEAV?$basic_ostream@DU?$char_traits@D@std@@@std@@AEAVException@0@AEAY0BJ@$$CBD@Z 0000000180009a80 f i MovieFFMpeg:MovieFFMpeg.obj
 0001:00008a80       ??$?6$$BY0BO@D@TwkExc@@YAAEAV?$basic_ostream@DU?$char_traits@D@std@@@std@@AEAVException@0@AEAY0BO@$$CBD@Z 0000000180009a80 f i MovieFFMpeg:MovieFFMpeg.obj
 0001:00008a80       ??$?6$$BY0BB@D@TwkExc@@YAAEAV?$basic_ostream@DU?$char_traits@D@std@@@std@@AEAVException@0@AEAY0BB@$$CBD@Z 0000000180009a80 f i MovieFFMpeg:MovieFFMpeg.obj
 0001:00008a80       ??$?6$$BY0CG@D@TwkExc@@YAAEAV?$basic_ostream@DU?$char_traits@D@std@@@std@@AEAVException@0@AEAY0CG@$$CBD@Z 0000000180009a80 f i MovieFFMpeg:MovieFFMpeg.obj
 0001:00008a80       ??$?6$$BY0BN@D@TwkExc@@YAAEAV?$basic_ostream@DU?$char_traits@D@std@@@std@@AEAVException@0@AEAY0BN@$$CBD@Z 0000000180009a80 f i MovieFFMpeg:MovieFFMpeg.obj
 0001:00008a80       ??$?6$$BY0DE@D@TwkExc@@YAAEAV?$basic_ostream@DU?$char_traits@D@std@@@std@@AEAVException@0@AEAY0DE@$$CBD@Z 0000000180009a80 f i MovieFFMpeg:MovieFFMpeg.obj
 0001:00008a80       ??$?6$$BY0DM@D@TwkExc@@YAAEAV?$basic_ostream@DU?$char_traits@D@std@@@std@@AEAVException@0@AEAY0DM@$$CBD@Z 0000000180009a80 f i MovieFFMpeg:MovieFFMpeg.obj
 0001:00008a80       ??$?6$$BY08D@TwkExc@@YAAEAV?$basic_ostream@DU?$char_traits@D@std@@@std@@AEAVException@0@AEAY08$$CBD@Z 0000000180009a80 f i MovieFFMpeg:MovieFFMpeg.obj
 0001:00008a80       ??$?6$$BY0CC@D@TwkExc@@YAAEAV?$basic_ostream@DU?$char_traits@D@std@@@std@@AEAVException@0@AEAY0CC@$$CBD@Z 0000000180009a80 f i MovieFFMpeg:MovieFFMpeg.obj
 0001:00008a80       ??$?6$$BY0P@D@TwkExc@@YAAEAV?$basic_ostream@DU?$char_traits@D@std@@@std@@AEAVException@0@AEAY0P@$$CBD@Z 0000000180009a80 f i MovieFFMpeg:MovieFFMpeg.obj
 0001:00008a80       ??$?6$$BY0CJ@D@TwkExc@@YAAEAV?$basic_ostream@DU?$char_traits@D@std@@@std@@AEAVException@0@AEAY0CJ@$$CBD@Z 0000000180009a80 f i MovieFFMpeg:MovieFFMpeg.obj
 0001:00008a80       ??$?6$$BY0BI@D@TwkExc@@YAAEAV?$basic_ostream@DU?$char_traits@D@std@@@std@@AEAVException@0@AEAY0BI@$$CBD@Z 0000000180009a80 f i MovieFFMpeg:MovieFFMpeg.obj
 0001:00008a80       ??$?6$$BY0CE@D@TwkExc@@YAAEAV?$basic_ostream@DU?$char_traits@D@std@@@std@@AEAVException@0@AEAY0CE@$$CBD@Z 0000000180009a80 f i MovieFFMpeg:MovieFFMpeg.obj
 0001:00008a80       ??$?6$$BY0BD@D@TwkExc@@YAAEAV?$basic_ostream@DU?$char_traits@D@std@@@std@@AEAVException@0@AEAY0BD@$$CBD@Z 0000000180009a80 f i MovieFFMpeg:MovieFFMpeg.obj
 0001:00008a80       ??$?6$$BY0BP@D@TwkExc@@YAAEAV?$basic_ostream@DU?$char_traits@D@std@@@std@@AEAVException@0@AEAY0BP@$$CBD@Z 0000000180009a80 f i MovieFFMpeg:MovieFFMpeg.obj
 0001:00008ac0       ??$?6DU?$char_traits@D@std@@V?$allocator@D@1@@std@@YAAEAV?$basic_ostream@DU?$char_traits@D@std@@@0@AEAV10@AEBV?$basic_string@DU?$char_traits@D@std@@V?$allocator@D@2@@0@@Z 0000000180009ac0 f i MovieFFMpeg:MovieFFMpeg.obj
 0001:00008ae0       ??$?9DU?$char_traits@D@std@@V?$allocator@D@1@@std@@YA_NAEBV?$basic_string@DU?$char_traits@D@std@@V?$allocator@D@2@@0@QEBD@Z 0000000180009ae0 f i MovieFFMpeg:MovieFFMpeg.obj
 0001:00008b30       ??$?HDU?$char_traits@D@std@@V?$allocator@D@1@@std@@YA?AV?$basic_string@DU?$char_traits@D@std@@V?$allocator@D@2@@0@AEBV10@0@Z 0000000180009b30 f i MovieFFMpeg:MovieFFMpeg.obj
 0001:00008be0       ??$?HDU?$char_traits@D@std@@V?$allocator@D@1@@std@@YA?AV?$basic_string@DU?$char_traits@D@std@@V?$allocator@D@2@@0@QEBDAEBV10@@Z 0000000180009be0 f i MovieFFMpeg:MovieFFMpeg.obj
 0001:00008c90       ??$_Assign_range@PEAU?$pair@V?$basic_string@DU?$char_traits@D@std@@V?$allocator@D@2@@std@@V12@@std@@@?$vector@U?$pair@V?$basic_string@DU?$char_traits@D@std@@V?$allocator@D@2@@std@@V12@@std@@V?$allocator@U?$pair@V?$basic_string@DU?$char_traits@D@std@@V?$allocator@D@2@@std@@V12@@std@@@2@@std@@AEAAXPEAU?$pair@V?$basic_string@DU?$char_traits@D@std@@V?$allocator@D@2@@std@@V12@@1@0Uforward_iterator_tag@1@@Z 0000000180009c90 f i MovieFFMpeg:MovieFFMpeg.obj
 0001:00008e20       ??$_Assign_range@PEAUChannelInfo@FBInfo@TwkFB@@@?$vector@UChannelInfo@FBInfo@TwkFB@@V?$allocator@UChannelInfo@FBInfo@TwkFB@@@std@@@std@@AEAAXPEAUChannelInfo@FBInfo@TwkFB@@0Uforward_iterator_tag@1@@Z 0000000180009e20 f i MovieFFMpeg:MovieFFMpeg.obj
 0001:00008fd0       ??$_Assign_range@PEAUChapterInfo@TwkMovie@@@?$vector@UChapterInfo@TwkMovie@@V?$allocator@UChapterInfo@TwkMovie@@@std@@@std@@AEAAXPEAUChapterInfo@TwkMovie@@0Uforward_iterator_tag@1@@Z 0000000180009fd0 f i MovieFFMpeg:MovieFFMpeg.obj
 0001:000091c0       ??$_Assign_range@PEAULayerInfo@FBInfo@TwkFB@@@?$vector@ULayerInfo@FBInfo@TwkFB@@V?$allocator@ULayerInfo@FBInfo@TwkFB@@@std@@@std@@AEAAXPEAULayerInfo@FBInfo@TwkFB@@0Uforward_iterator_tag@1@@Z 000000018000a1c0 f i MovieFFMpeg:MovieFFMpeg.obj
 0001:00009370       ??$_Assign_range@PEAUViewInfo@FBInfo@TwkFB@@@?$vector@UViewInfo@FBInfo@TwkFB@@V?$allocator@UViewInfo@FBInfo@TwkFB@@@std@@@std@@AEAAXPEAUViewInfo@FBInfo@TwkFB@@0Uforward_iterator_tag@1@@Z 000000018000a370 f i MovieFFMpeg:MovieFFMpeg.obj
 0001:00009550       ??$_Buynode@AEAU?$pair@$$CBHH@std@@@?$_Tree_comp_alloc@V?$_Tmap_traits@HHU?$less@H@std@@V?$allocator@U?$pair@$$CBHH@std@@@2@$0A@@std@@@std@@QEAAPEAU?$_Tree_node@U?$pair@$$CBHH@std@@PEAX@1@AEAU?$pair@$$CBHH@1@@Z 000000018000a550 f i MovieFFMpeg:MovieFFMpeg.obj
 0001:00009590       ??$_Buynode@AEBD@?$_Tree_comp_alloc@V?$_Tset_traits@DU?$less@D@std@@V?$allocator@D@2@$0A@@std@@@std@@QEAAPEAU?$_Tree_node@DPEAX@1@AEBD@Z 000000018000a590 f i MovieFFMpeg:MovieFFMpeg.obj
 0001:000095d0       ??$_Buynode@AEBH@?$_Tree_comp_alloc@V?$_Tset_traits@HU?$less@H@std@@V?$allocator@H@2@$0A@@std@@@std@@QEAAPEAU?$_Tree_node@HPEAX@1@AEBH@Z 000000018000a5d0 f i MovieFFMpeg:MovieFFMpeg.obj
 0001:00009610       ??$_Buynode@AEBUpiecewise_construct_t@std@@V?$tuple@$$QEAU?$pair@PEAVMovieFFMpegReader@TwkMovie@@H@std@@@2@V?$tuple@$$V@2@@?$_Tree_comp_alloc@V?$_Tmap_traits@U?$pair@PEAVMovieFFMpegReader@TwkMovie@@H@std@@UContext@ContextPool@TwkMovie@@U?$less@U?$pair@PEAVMovieFFMpegReader@TwkMovie@@H@std@@@2@V?$allocator@U?$pair@$$CBU?$pair@PEAVMovieFFMpegReader@TwkMovie@@H@std@@UContext@ContextPool@TwkMovie@@@std@@@2@$0A@@std@@@std@@QEAAPEAU?$_Tree_node@U?$pair@$$CBU?$pair@PEAVMovieFFMpegReader@TwkMovie@@H@std@@UContext@ContextPool@TwkMovie@@@std@@PEAX@1@AEBUpiecewise_construct_t@1@$$QEAV?$tuple@$$QEAU?$pair@PEAVMovieFFMpegReader@TwkMovie@@H@std@@@1@$$QEAV?$tuple@$$V@1@@Z 000000018000a610 f i MovieFFMpeg:MovieFFMpeg.obj
 0001:00009670       ??$_Buynode@AEBUpiecewise_construct_t@std@@V?$tuple@$$QEAV?$basic_string@DU?$char_traits@D@std@@V?$allocator@D@2@@std@@@2@V?$tuple@$$V@2@@?$_Tree_comp_alloc@V?$_Tmap_traits@V?$basic_string@DU?$char_traits@D@std@@V?$allocator@D@2@@std@@HU?$less@V?$basic_string@DU?$char_traits@D@std@@V?$allocator@D@2@@std@@@2@V?$allocator@U?$pair@$$CBV?$basic_string@DU?$char_traits@D@std@@V?$allocator@D@2@@std@@H@std@@@2@$0A@@std@@@std@@QEAAPEAU?$_Tree_node@U?$pair@$$CBV?$basic_string@DU?$char_traits@D@std@@V?$allocator@D@2@@std@@H@std@@PEAX@1@AEBUpiecewise_construct_t@1@$$QEAV?$tuple@$$QEAV?$basic_string@DU?$char_traits@D@std@@V?$allocator@D@2@@std@@@1@$$QEAV?$tuple@$$V@1@@Z 000000018000a670 f i MovieFFMpeg:MovieFFMpeg.obj
 0001:000096d0       ??$_Buynode@AEBUpiecewise_construct_t@std@@V?$tuple@$$QEAV?$basic_string@DU?$char_traits@D@std@@V?$allocator@D@2@@std@@@2@V?$tuple@$$V@2@@?$_Tree_comp_alloc@V?$_Tmap_traits@V?$basic_string@DU?$char_traits@D@std@@V?$allocator@D@2@@std@@U?$pair@V?$basic_string@DU?$char_traits@D@std@@V?$allocator@D@2@@std@@I@2@U?$less@V?$basic_string@DU?$char_traits@D@std@@V?$allocator@D@2@@std@@@2@V?$allocator@U?$pair@$$CBV?$basic_string@DU?$char_traits@D@std@@V?$allocator@D@2@@std@@U?$pair@V?$basic_string@DU?$char_traits@D@std@@V?$allocator@D@2@@std@@I@2@@std@@@2@$0A@@std@@@std@@QEAAPEAU?$_Tree_node@U?$pair@$$CBV?$basic_string@DU?$char_traits@D@std@@V?$allocator@D@2@@std@@U?$pair@V?$basic_string@DU?$char_traits@D@std@@V?$allocator@D@2@@std@@I@2@@std@@PEAX@1@AEBUpiecewise_construct_t@1@$$QEAV?$tuple@$$QEAV?$basic_string@DU?$char_traits@D@std@@V?$allocator@D@2@@std@@@1@$$QEAV?$tuple@$$V@1@@Z 000000018000a6d0 f i MovieFFMpeg:MovieFFMpeg.obj
 0001:00009740       ??$_Buynode@AEBUpiecewise_construct_t@std@@V?$tuple@$$QEAV?$basic_string@DU?$char_traits@D@std@@V?$allocator@D@2@@std@@@2@V?$tuple@$$V@2@@?$_Tree_comp_alloc@V?$_Tmap_traits@V?$basic_string@DU?$char_traits@D@std@@V?$allocator@D@2@@std@@V12@U?$less@V?$basic_string@DU?$char_traits@D@std@@V?$allocator@D@2@@std@@@2@V?$allocator@U?$pair@$$CBV?$basic_string@DU?$char_traits@D@std@@V?$allocator@D@2@@std@@V12@@std@@@2@$0A@@std@@@std@@QEAAPEAU?$_Tree_node@U?$pair@$$CBV?$basic_string@DU?$char_traits@D@std@@V?$allocator@D@2@@std@@V12@@std@@PEAX@1@AEBUpiecewise_construct_t@1@$$QEAV?$tuple@$$QEAV?$basic_string@DU?$char_traits@D@std@@V?$allocator@D@2@@std@@@1@$$QEAV?$tuple@$$V@1@@Z 000000018000a740 f i MovieFFMpeg:MovieFFMpeg.obj
 0001:000097b0       ??$_Buynode@AEBUpiecewise_construct_t@std@@V?$tuple@AEBU?$pair@HH@std@@@2@V?$tuple@$$V@2@@?$_Tree_comp_alloc@V?$_Tmap_traits@U?$pair@HH@std@@V?$vector@HV?$allocator@H@std@@@2@U?$less@U?$pair@HH@std@@@2@V?$allocator@U?$pair@$$CBU?$pair@HH@std@@V?$vector@HV?$allocator@H@std@@@2@@std@@@2@$0A@@std@@@std@@QEAAPEAU?$_Tree_node@U?$pair@$$CBU?$pair@HH@std@@V?$vector@HV?$allocator@H@std@@@2@@std@@PEAX@1@AEBUpiecewise_construct_t@1@$$QEAV?$tuple@AEBU?$pair@HH@std@@@1@$$QEAV?$tuple@$$V@1@@Z 000000018000a7b0 f i MovieFFMpeg:MovieFFMpeg.obj
 0001:00009800       ??$_Buynode@AEBUpiecewise_construct_t@std@@V?$tuple@AEBU?$pair@V?$basic_string@DU?$char_traits@D@std@@V?$allocator@D@2@@std@@H@std@@@2@V?$tuple@$$V@2@@?$_Tree_comp_alloc@V?$_Tmap_traits@U?$pair@V?$basic_string@DU?$char_traits@D@std@@V?$allocator@D@2@@std@@H@std@@V?$vector@HV?$allocator@H@std@@@2@U?$less@U?$pair@V?$basic_string@DU?$char_traits@D@std@@V?$allocator@D@2@@std@@H@std@@@2@V?$allocator@U?$pair@$$CBU?$pair@V?$basic_string@DU?$char_traits@D@std@@V?$allocator@D@2@@std@@H@std@@V?$vector@HV?$allocator@H@std@@@2@@std@@@2@$0A@@std@@@std@@QEAAPEAU?$_Tree_node@U?$pair@$$CBU?$pair@V?$basic_string@DU?$char_traits@D@std@@V?$allocator@D@2@@std@@H@std@@V?$vector@HV?$allocator@H@std@@@2@@std@@PEAX@1@AEBUpiecewise_construct_t@1@$$QEAV?$tuple@AEBU?$pair@V?$basic_string@DU?$char_traits@D@std@@V?$allocator@D@2@@std@@H@std@@@1@$$QEAV?$tuple@$$V@1@@Z 000000018000a800 f i MovieFFMpeg:MovieFFMpeg.obj
 0001:00009870       ??$_Buynode@AEBUpiecewise_construct_t@std@@V?$tuple@AEBV?$basic_string@DU?$char_traits@D@std@@V?$allocator@D@2@@std@@@2@V?$tuple@$$V@2@@?$_Tree_comp_alloc@V?$_Tmap_traits@V?$basic_string@DU?$char_traits@D@std@@V?$allocator@D@2@@std@@V12@U?$less@V?$basic_string@DU?$char_traits@D@std@@V?$allocator@D@2@@std@@@2@V?$allocator@U?$pair@$$CBV?$basic_string@DU?$char_traits@D@std@@V?$allocator@D@2@@std@@V12@@std@@@2@$0A@@std@@@std@@QEAAPEAU?$_Tree_node@U?$pair@$$CBV?$basic_string@DU?$char_traits@D@std@@V?$allocator@D@2@@std@@V12@@std@@PEAX@1@AEBUpiecewise_construct_t@1@$$QEAV?$tuple@AEBV?$basic_string@DU?$char_traits@D@std@@V?$allocator@D@2@@std@@@1@$$QEAV?$tuple@$$V@1@@Z 000000018000a870 f i MovieFFMpeg:MovieFFMpeg.obj
 0001:000098e0       ??$_Buynode@AEBUpiecewise_construct_t@std@@V?$tuple@AEBV?$basic_string@DU?$char_traits@D@std@@V?$allocator@D@2@@std@@@2@V?$tuple@$$V@2@@?$_Tree_comp_alloc@V?$_Tmap_traits@V?$basic_string@DU?$char_traits@D@std@@V?$allocator@D@2@@std@@V?$set@HU?$less@H@std@@V?$allocator@H@2@@2@U?$less@V?$basic_string@DU?$char_traits@D@std@@V?$allocator@D@2@@std@@@2@V?$allocator@U?$pair@$$CBV?$basic_string@DU?$char_traits@D@std@@V?$allocator@D@2@@std@@V?$set@HU?$less@H@std@@V?$allocator@H@2@@2@@std@@@2@$0A@@std@@@std@@QEAAPEAU?$_Tree_node@U?$pair@$$CBV?$basic_string@DU?$char_traits@D@std@@V?$allocator@D@2@@std@@V?$set@HU?$less@H@std@@V?$allocator@H@2@@2@@std@@PEAX@1@AEBUpiecewise_construct_t@1@$$QEAV?$tuple@AEBV?$basic_string@DU?$char_traits@D@std@@V?$allocator@D@2@@std@@@1@$$QEAV?$tuple@$$V@1@@Z 000000018000a8e0 f i MovieFFMpeg:MovieFFMpeg.obj
 0001:00009960       ??$_Buynode@AEBUpiecewise_construct_t@std@@V?$tuple@AEBW4Channels@TwkAudio@@@2@V?$tuple@$$V@2@@?$_Tree_comp_alloc@V?$_Tmap_traits@W4Channels@TwkAudio@@UChannelMixState@2@U?$less@W4Channels@TwkAudio@@@std@@V?$allocator@U?$pair@$$CBW4Channels@TwkAudio@@UChannelMixState@2@@std@@@5@$0A@@std@@@std@@QEAAPEAU?$_Tree_node@U?$pair@$$CBW4Channels@TwkAudio@@UChannelMixState@2@@std@@PEAX@1@AEBUpiecewise_construct_t@1@$$QEAV?$tuple@AEBW4Channels@TwkAudio@@@1@$$QEAV?$tuple@$$V@1@@Z 000000018000a960 f i MovieFFMpeg:MovieFFMpeg.obj
 0001:000099c0       ??$_Buynode@AEBUpiecewise_construct_t@std@@V?$tuple@AEB_J@2@V?$tuple@$$V@2@@?$_Tree_comp_alloc@V?$_Tmap_traits@_J_JU?$less@_J@std@@V?$allocator@U?$pair@$$CB_J_J@std@@@2@$0A@@std@@@std@@QEAAPEAU?$_Tree_node@U?$pair@$$CB_J_J@std@@PEAX@1@AEBUpiecewise_construct_t@1@$$QEAV?$tuple@AEB_J@1@$$QEAV?$tuple@$$V@1@@Z 000000018000a9c0 f i MovieFFMpeg:MovieFFMpeg.obj
 0001:00009a10       ??$_Buynode@AEB_J@?$_Tree_comp_alloc@V?$_Tset_traits@_JU?$less@_J@std@@V?$allocator@_J@2@$0A@@std@@@std@@QEAAPEAU?$_Tree_node@_JPEAX@1@AEB_J@Z 000000018000aa10 f i MovieFFMpeg:MovieFFMpeg.obj
 0001:00009a50       ??$_Buynode@PEAUContext@ContextPool@TwkMovie@@@?$_List_buy@PEAUContext@ContextPool@TwkMovie@@V?$allocator@PEAUContext@ContextPool@TwkMovie@@@std@@@std@@QEAAPEAU?$_List_node@PEAUContext@ContextPool@TwkMovie@@PEAX@1@PEAU21@0$$QEAPEAUContext@ContextPool@TwkMovie@@@Z 000000018000aa50 f i MovieFFMpeg:MovieFFMpeg.obj
 0001:00009a80       ??$_Copy_nodes@U_Copy_tag@?$_Tree@V?$_Tmap_traits@HHU?$less@H@std@@V?$allocator@U?$pair@$$CBHH@std@@@2@$0A@@std@@@std@@@?$_Tree@V?$_Tmap_traits@HHU?$less@H@std@@V?$allocator@U?$pair@$$CBHH@std@@@2@$0A@@std@@@std@@IEAAPEAU?$_Tree_node@U?$pair@$$CBHH@std@@PEAX@1@PEAU21@0U_Copy_tag@01@@Z 000000018000aa80 f i MovieFFMpeg:MovieFFMpeg.obj
 0001:00009b20       ??$_Copy_unchecked@PEAU?$pair@V?$basic_string@DU?$char_traits@D@std@@V?$allocator@D@2@@std@@V12@@std@@PEAU12@@std@@YAPEAU?$pair@V?$basic_string@DU?$char_traits@D@std@@V?$allocator@D@2@@std@@V12@@0@PEAU10@00@Z 000000018000ab20 f i MovieFFMpeg:MovieFFMpeg.obj
 0001:00009bc0       ??$_Copy_unchecked@PEAUChannelInfo@FBInfo@TwkFB@@PEAU123@@std@@YAPEAUChannelInfo@FBInfo@TwkFB@@PEAU123@00@Z 000000018000abc0 f i MovieFFMpeg:MovieFFMpeg.obj
 0001:00009c40       ??$_Copy_unchecked@PEAUChapterInfo@TwkMovie@@PEAU12@@std@@YAPEAUChapterInfo@TwkMovie@@PEAU12@00@Z 000000018000ac40 f i MovieFFMpeg:MovieFFMpeg.obj
 0001:00009cf0       ??$_Copy_unchecked@PEAULayerInfo@FBInfo@TwkFB@@PEAU123@@std@@YAPEAULayerInfo@FBInfo@TwkFB@@PEAU123@00@Z 000000018000acf0 f i MovieFFMpeg:MovieFFMpeg.obj
 0001:00009d90       ??$_Copy_unchecked@PEAUViewInfo@FBInfo@TwkFB@@PEAU123@@std@@YAPEAUViewInfo@FBInfo@TwkFB@@PEAU123@00@Z 000000018000ad90 f i MovieFFMpeg:MovieFFMpeg.obj
 0001:00009e70       ??$_Copy_unchecked@PEAV?$basic_string@DU?$char_traits@D@std@@V?$allocator@D@2@@std@@PEAV12@@std@@YAPEAV?$basic_string@DU?$char_traits@D@std@@V?$allocator@D@2@@0@PEAV10@00@Z 000000018000ae70 f i MovieFFMpeg:MovieFFMpeg.obj
 0001:00009ed0       ??$_Destroy_range@V?$allocator@UChannelInfo@FBInfo@TwkFB@@@std@@@std@@YAXPEAUChannelInfo@FBInfo@TwkFB@@0AEAV?$allocator@UChannelInfo@FBInfo@TwkFB@@@0@@Z 000000018000aed0 f i MovieFFMpeg:MovieFFMpeg.obj
 0001:00009f60       ??$_Destroy_range@V?$allocator@ULayerInfo@FBInfo@TwkFB@@@std@@@std@@YAXPEAULayerInfo@FBInfo@TwkFB@@0AEAV?$allocator@ULayerInfo@FBInfo@TwkFB@@@0@@Z 000000018000af60 f i MovieFFMpeg:MovieFFMpeg.obj
 0001:0000a000       ??$_Emplace_reallocate@AEBH@?$vector@HV?$allocator@H@std@@@std@@QEAAPEAHQEAHAEBH@Z 000000018000b000 f i MovieFFMpeg:MovieFFMpeg.obj
 0001:0000a1b0       ??$_Emplace_reallocate@AEBQEAUAudioTrack@TwkMovie@@@?$vector@PEAVAudioTrack@TwkMovie@@V?$allocator@PEAVAudioTrack@TwkMovie@@@std@@@std@@QEAAPEAPEAUAudioTrack@TwkMovie@@QEAPEAU23@AEBQEAU23@@Z 000000018000b1b0 f i MovieFFMpeg:MovieFFMpeg.obj
 0001:0000a1b0       ??$_Emplace_reallocate@AEBQEAUVideoTrack@TwkMovie@@@?$vector@PEAVVideoTrack@TwkMovie@@V?$allocator@PEAVVideoTrack@TwkMovie@@@std@@@std@@QEAAPEAPEAUVideoTrack@TwkMovie@@QEAPEAU23@AEBQEAU23@@Z 000000018000b1b0 f i MovieFFMpeg:MovieFFMpeg.obj
 0001:0000a2c0       ??$_Emplace_reallocate@AEBQEAVFBAttribute@TwkFB@@@?$vector@PEAVFBAttribute@TwkFB@@V?$allocator@PEAVFBAttribute@TwkFB@@@std@@@std@@QEAAPEAPEAVFBAttribute@TwkFB@@QEAPEAV23@AEBQEAV23@@Z 000000018000b2c0 f i MovieFFMpeg:MovieFFMpeg.obj
 0001:0000a470       ??$_Emplace_reallocate@AEBQEAVFrameBuffer@TwkFB@@@?$vector@PEAVFrameBuffer@TwkFB@@V?$allocator@PEAVFrameBuffer@TwkFB@@@std@@@std@@QEAAPEAPEAVFrameBuffer@TwkFB@@QEAPEAV23@AEBQEAV23@@Z 000000018000b470 f i MovieFFMpeg:MovieFFMpeg.obj
 0001:0000a5c0       ??$_Emplace_reallocate@AEBU?$pair@V?$basic_string@DU?$char_traits@D@std@@V?$allocator@D@2@@std@@V12@@std@@@?$vector@U?$pair@V?$basic_string@DU?$char_traits@D@std@@V?$allocator@D@2@@std@@V12@@std@@V?$allocator@U?$pair@V?$basic_string@DU?$char_traits@D@std@@V?$allocator@D@2@@std@@V12@@std@@@2@@std@@QEAAPEAU?$pair@V?$basic_string@DU?$char_traits@D@std@@V?$allocator@D@2@@std@@V12@@1@QEAU21@AEBU21@@Z 000000018000b5c0 f i MovieFFMpeg:MovieFFMpeg.obj
 0001:0000a710       ??$_Emplace_reallocate@AEBUChannelInfo@FBInfo@TwkFB@@@?$vector@UChannelInfo@FBInfo@TwkFB@@V?$allocator@UChannelInfo@FBInfo@TwkFB@@@std@@@std@@QEAAPEAUChannelInfo@FBInfo@TwkFB@@QEAU234@AEBU234@@Z 000000018000b710 f i MovieFFMpeg:MovieFFMpeg.obj
 0001:0000a920       ??$_Emplace_reallocate@AEBUViewInfo@FBInfo@TwkFB@@@?$vector@UViewInfo@FBInfo@TwkFB@@V?$allocator@UViewInfo@FBInfo@TwkFB@@@std@@@std@@QEAAPEAUViewInfo@FBInfo@TwkFB@@QEAU234@AEBU234@@Z 000000018000b920 f i MovieFFMpeg:MovieFFMpeg.obj
 0001:0000ab50       ??$_Emplace_reallocate@AEBV?$basic_string@DU?$char_traits@D@std@@V?$allocator@D@2@@std@@@?$vector@V?$basic_string@DU?$char_traits@D@std@@V?$allocator@D@2@@std@@V?$allocator@V?$basic_string@DU?$char_traits@D@std@@V?$allocator@D@2@@std@@@2@@std@@QEAAPEAV?$basic_string@DU?$char_traits@D@std@@V?$allocator@D@2@@1@QEAV21@AEBV21@@Z 000000018000bb50 f i MovieFFMpeg:MovieFFMpeg.obj
 0001:0000ace0       ??$_Emplace_reallocate@U?$pair@V?$basic_string@DU?$char_traits@D@std@@V?$allocator@D@2@@std@@V12@@std@@@?$vector@U?$pair@V?$basic_string@DU?$char_traits@D@std@@V?$allocator@D@2@@std@@V12@@std@@V?$allocator@U?$pair@V?$basic_string@DU?$char_traits@D@std@@V?$allocator@D@2@@std@@V12@@std@@@2@@std@@QEAAPEAU?$pair@V?$basic_string@DU?$char_traits@D@std@@V?$allocator@D@2@@std@@V12@@1@QEAU21@$$QEAU21@@Z 000000018000bce0 f i MovieFFMpeg:MovieFFMpeg.obj
 0001:0000ae60       ??$_Emplace_reallocate@UParameter@MovieIO@TwkMovie@@@?$vector@UParameter@MovieIO@TwkMovie@@V?$allocator@UParameter@MovieIO@TwkMovie@@@std@@@std@@QEAAPEAUParameter@MovieIO@TwkMovie@@QEAU234@$$QEAU234@@Z 000000018000be60 f i MovieFFMpeg:MovieFFMpeg.obj
 0001:0000b050       ??$_Emplace_reallocate@W4Channels@TwkAudio@@@?$vector@W4Channels@TwkAudio@@V?$allocator@W4Channels@TwkAudio@@@std@@@std@@QEAAPEAW4Channels@TwkAudio@@QEAW423@$$QEAW423@@Z 000000018000c050 f i MovieFFMpeg:MovieFFMpeg.obj
 0001:0000b1a0       ??$_Insert_at@AEAU?$pair@$$CBU?$pair@HH@std@@V?$vector@HV?$allocator@H@std@@@2@@std@@PEAU?$_Tree_node@U?$pair@$$CBU?$pair@HH@std@@V?$vector@HV?$allocator@H@std@@@2@@std@@PEAX@2@@?$_Tree@V?$_Tmap_traits@U?$pair@HH@std@@V?$vector@HV?$allocator@H@std@@@2@U?$less@U?$pair@HH@std@@@2@V?$allocator@U?$pair@$$CBU?$pair@HH@std@@V?$vector@HV?$allocator@H@std@@@2@@std@@@2@$0A@@std@@@std@@IEAA?AV?$_Tree_iterator@V?$_Tree_val@U?$_Tree_simple_types@U?$pair@$$CBU?$pair@HH@std@@V?$vector@HV?$allocator@H@std@@@2@@std@@@std@@@std@@@1@_NPEAU?$_Tree_node@U?$pair@$$CBU?$pair@HH@std@@V?$vector@HV?$allocator@H@std@@@2@@std@@PEAX@1@AEAU?$pair@$$CBU?$pair@HH@std@@V?$vector@HV?$allocator@H@std@@@2@@1@1@Z 000000018000c1a0 f i MovieFFMpeg:MovieFFMpeg.obj
 0001:0000b420       ??$_Insert_at@AEAU?$pair@$$CBU?$pair@PEAVMovieFFMpegReader@TwkMovie@@H@std@@UContext@ContextPool@TwkMovie@@@std@@PEAU?$_Tree_node@U?$pair@$$CBU?$pair@PEAVMovieFFMpegReader@TwkMovie@@H@std@@UContext@ContextPool@TwkMovie@@@std@@PEAX@2@@?$_Tree@V?$_Tmap_traits@U?$pair@PEAVMovieFFMpegReader@TwkMovie@@H@std@@UContext@ContextPool@TwkMovie@@U?$less@U?$pair@PEAVMovieFFMpegReader@TwkMovie@@H@std@@@2@V?$allocator@U?$pair@$$CBU?$pair@PEAVMovieFFMpegReader@TwkMovie@@H@std@@UContext@ContextPool@TwkMovie@@@std@@@2@$0A@@std@@@std@@IEAA?AV?$_Tree_iterator@V?$_Tree_val@U?$_Tree_simple_types@U?$pair@$$CBU?$pair@PEAVMovieFFMpegReader@TwkMovie@@H@std@@UContext@ContextPool@TwkMovie@@@std@@@std@@@std@@@1@_NPEAU?$_Tree_node@U?$pair@$$CBU?$pair@PEAVMovieFFMpegReader@TwkMovie@@H@std@@UContext@ContextPool@TwkMovie@@@std@@PEAX@1@AEAU?$pair@$$CBU?$pair@PEAVMovieFFMpegReader@TwkMovie@@H@std@@UContext@ContextPool@TwkMovie@@@1@1@Z 000000018000c420 f i MovieFFMpeg:MovieFFMpeg.obj
 0001:0000b6a0       ??$_Insert_at@AEAU?$pair@$$CBU?$pair@V?$basic_string@DU?$char_traits@D@std@@V?$allocator@D@2@@std@@H@std@@V?$vector@HV?$allocator@H@std@@@2@@std@@PEAU?$_Tree_node@U?$pair@$$CBU?$pair@V?$basic_string@DU?$char_traits@D@std@@V?$allocator@D@2@@std@@H@std@@V?$vector@HV?$allocator@H@std@@@2@@std@@PEAX@2@@?$_Tree@V?$_Tmap_traits@U?$pair@V?$basic_string@DU?$char_traits@D@std@@V?$allocator@D@2@@std@@H@std@@V?$vector@HV?$allocator@H@std@@@2@U?$less@U?$pair@V?$basic_string@DU?$char_traits@D@std@@V?$allocator@D@2@@std@@H@std@@@2@V?$allocator@U?$pair@$$CBU?$pair@V?$basic_string@DU?$char_traits@D@std@@V?$allocator@D@2@@std@@H@std@@V?$vector@HV?$allocator@H@std@@@2@@std@@@2@$0A@@std@@@std@@IEAA?AV?$_Tree_iterator@V?$_Tree_val@U?$_Tree_simple_types@U?$pair@$$CBU?$pair@V?$basic_string@DU?$char_traits@D@std@@V?$allocator@D@2@@std@@H@std@@V?$vector@HV?$allocator@H@std@@@2@@std@@@std@@@std@@@1@_NPEAU?$_Tree_node@U?$pair@$$CBU?$pair@V?$basic_string@DU?$char_traits@D@std@@V?$allocator@D@2@@std@@H@std@@V?$vector@HV?$allocator@H@std@@@2@@std@@PEAX@1@AEAU?$pair@$$CBU?$pair@V?$basic_string@DU?$char_traits@D@std@@V?$allocator@D@2@@std@@H@std@@V?$vector@HV?$allocator@H@std@@@2@@1@1@Z 000000018000c6a0 f i MovieFFMpeg:MovieFFMpeg.obj
 0001:0000b920       ??$_Insert_at@AEAU?$pair@$$CBV?$basic_string@DU?$char_traits@D@std@@V?$allocator@D@2@@std@@H@std@@PEAU?$_Tree_node@U?$pair@$$CBV?$basic_string@DU?$char_traits@D@std@@V?$allocator@D@2@@std@@H@std@@PEAX@2@@?$_Tree@V?$_Tmap_traits@V?$basic_string@DU?$char_traits@D@std@@V?$allocator@D@2@@std@@HU?$less@V?$basic_string@DU?$char_traits@D@std@@V?$allocator@D@2@@std@@@2@V?$allocator@U?$pair@$$CBV?$basic_string@DU?$char_traits@D@std@@V?$allocator@D@2@@std@@H@std@@@2@$0A@@std@@@std@@IEAA?AV?$_Tree_iterator@V?$_Tree_val@U?$_Tree_simple_types@U?$pair@$$CBV?$basic_string@DU?$char_traits@D@std@@V?$allocator@D@2@@std@@H@std@@@std@@@std@@@1@_NPEAU?$_Tree_node@U?$pair@$$CBV?$basic_string@DU?$char_traits@D@std@@V?$allocator@D@2@@std@@H@std@@PEAX@1@AEAU?$pair@$$CBV?$basic_string@DU?$char_traits@D@std@@V?$allocator@D@2@@std@@H@1@1@Z 000000018000c920 f i MovieFFMpeg:MovieFFMpeg.obj
 0001:0000bba0       ??$_Insert_at@AEAU?$pair@$$CBV?$basic_string@DU?$char_traits@D@std@@V?$allocator@D@2@@std@@U?$pair@V?$basic_string@DU?$char_traits@D@std@@V?$allocator@D@2@@std@@I@2@@std@@PEAU?$_Tree_node@U?$pair@$$CBV?$basic_string@DU?$char_traits@D@std@@V?$allocator@D@2@@std@@U?$pair@V?$basic_string@DU?$char_traits@D@std@@V?$allocator@D@2@@std@@I@2@@std@@PEAX@2@@?$_Tree@V?$_Tmap_traits@V?$basic_string@DU?$char_traits@D@std@@V?$allocator@D@2@@std@@U?$pair@V?$basic_string@DU?$char_traits@D@std@@V?$allocator@D@2@@std@@I@2@U?$less@V?$basic_string@DU?$char_traits@D@std@@V?$allocator@D@2@@std@@@2@V?$allocator@U?$pair@$$CBV?$basic_string@DU?$char_traits@D@std@@V?$allocator@D@2@@std@@U?$pair@V?$basic_string@DU?$char_traits@D@std@@V?$allocator@D@2@@std@@I@2@@std@@@2@$0A@@std@@@std@@IEAA?AV?$_Tree_iterator@V?$_Tree_val@U?$_Tree_simple_types@U?$pair@$$CBV?$basic_string@DU?$char_traits@D@std@@V?$allocator@D@2@@std@@U?$pair@V?$basic_string@DU?$char_traits@D@std@@V?$allocator@D@2@@std@@I@2@@std@@@std@@@std@@@1@_NPEAU?$_Tree_node@U?$pair@$$CBV?$basic_string@DU?$char_traits@D@std@@V?$allocator@D@2@@std@@U?$pair@V?$basic_string@DU?$char_traits@D@std@@V?$allocator@D@2@@std@@I@2@@std@@PEAX@1@AEAU?$pair@$$CBV?$basic_string@DU?$char_traits@D@std@@V?$allocator@D@2@@std@@U?$pair@V?$basic_string@DU?$char_traits@D@std@@V?$allocator@D@2@@std@@I@2@@1@1@Z 000000018000cba0 f i MovieFFMpeg:MovieFFMpeg.obj
 0001:0000be20       ??$_Insert_at@AEAU?$pair@$$CBV?$basic_string@DU?$char_traits@D@std@@V?$allocator@D@2@@std@@V12@@std@@PEAU?$_Tree_node@U?$pair@$$CBV?$basic_string@DU?$char_traits@D@std@@V?$allocator@D@2@@std@@V12@@std@@PEAX@2@@?$_Tree@V?$_Tmap_traits@V?$basic_string@DU?$char_traits@D@std@@V?$allocator@D@2@@std@@V12@U?$less@V?$basic_string@DU?$char_traits@D@std@@V?$allocator@D@2@@std@@@2@V?$allocator@U?$pair@$$CBV?$basic_string@DU?$char_traits@D@std@@V?$allocator@D@2@@std@@V12@@std@@@2@$0A@@std@@@std@@IEAA?AV?$_Tree_iterator@V?$_Tree_val@U?$_Tree_simple_types@U?$pair@$$CBV?$basic_string@DU?$char_traits@D@std@@V?$allocator@D@2@@std@@V12@@std@@@std@@@std@@@1@_NPEAU?$_Tree_node@U?$pair@$$CBV?$basic_string@DU?$char_traits@D@std@@V?$allocator@D@2@@std@@V12@@std@@PEAX@1@AEAU?$pair@$$CBV?$basic_string@DU?$char_traits@D@std@@V?$allocator@D@2@@std@@V12@@1@1@Z 000000018000ce20 f i MovieFFMpeg:MovieFFMpeg.obj
 0001:0000c0a0       ??$_Insert_at@AEAU?$pair@$$CBV?$basic_string@DU?$char_traits@D@std@@V?$allocator@D@2@@std@@V?$set@HU?$less@H@std@@V?$allocator@H@2@@2@@std@@PEAU?$_Tree_node@U?$pair@$$CBV?$basic_string@DU?$char_traits@D@std@@V?$allocator@D@2@@std@@V?$set@HU?$less@H@std@@V?$allocator@H@2@@2@@std@@PEAX@2@@?$_Tree@V?$_Tmap_traits@V?$basic_string@DU?$char_traits@D@std@@V?$allocator@D@2@@std@@V?$set@HU?$less@H@std@@V?$allocator@H@2@@2@U?$less@V?$basic_string@DU?$char_traits@D@std@@V?$allocator@D@2@@std@@@2@V?$allocator@U?$pair@$$CBV?$basic_string@DU?$char_traits@D@std@@V?$allocator@D@2@@std@@V?$set@HU?$less@H@std@@V?$allocator@H@2@@2@@std@@@2@$0A@@std@@@std@@IEAA?AV?$_Tree_iterator@V?$_Tree_val@U?$_Tree_simple_types@U?$pair@$$CBV?$basic_string@DU?$char_traits@D@std@@V?$allocator@D@2@@std@@V?$set@HU?$less@H@std@@V?$allocator@H@2@@2@@std@@@std@@@std@@@1@_NPEAU?$_Tree_node@U?$pair@$$CBV?$basic_string@DU?$char_traits@D@std@@V?$allocator@D@2@@std@@V?$set@HU?$less@H@std@@V?$allocator@H@2@@2@@std@@PEAX@1@AEAU?$pair@$$CBV?$basic_string@DU?$char_traits@D@std@@V?$allocator@D@2@@std@@V?$set@HU?$less@H@std@@V?$allocator@H@2@@2@@1@1@Z 000000018000d0a0 f i MovieFFMpeg:MovieFFMpeg.obj
 0001:0000c320       ??$_Insert_at@AEAU?$pair@$$CBW4Channels@TwkAudio@@UChannelMixState@2@@std@@PEAU?$_Tree_node@U?$pair@$$CBW4Channels@TwkAudio@@UChannelMixState@2@@std@@PEAX@2@@?$_Tree@V?$_Tmap_traits@W4Channels@TwkAudio@@UChannelMixState@2@U?$less@W4Channels@TwkAudio@@@std@@V?$allocator@U?$pair@$$CBW4Channels@TwkAudio@@UChannelMixState@2@@std@@@5@$0A@@std@@@std@@IEAA?AV?$_Tree_iterator@V?$_Tree_val@U?$_Tree_simple_types@U?$pair@$$CBW4Channels@TwkAudio@@UChannelMixState@2@@std@@@std@@@std@@@1@_NPEAU?$_Tree_node@U?$pair@$$CBW4Channels@TwkAudio@@UChannelMixState@2@@std@@PEAX@1@AEAU?$pair@$$CBW4Channels@TwkAudio@@UChannelMixState@2@@1@1@Z 000000018000d320 f i MovieFFMpeg:MovieFFMpeg.obj
 0001:0000c5a0       ??$_Insert_at@AEAU?$pair@$$CB_J_J@std@@PEAU?$_Tree_node@U?$pair@$$CB_J_J@std@@PEAX@2@@?$_Tree@V?$_Tmap_traits@_J_JU?$less@_J@std@@V?$allocator@U?$pair@$$CB_J_J@std@@@2@$0A@@std@@@std@@IEAA?AV?$_Tree_iterator@V?$_Tree_val@U?$_Tree_simple_types@U?$pair@$$CB_J_J@std@@@std@@@std@@@1@_NPEAU?$_Tree_node@U?$pair@$$CB_J_J@std@@PEAX@1@AEAU?$pair@$$CB_J_J@1@1@Z 000000018000d5a0 f i MovieFFMpeg:MovieFFMpeg.obj
 0001:0000c820       ??$_Insert_at@AEBDU_Not_a_node_tag@std@@@?$_Tree@V?$_Tset_traits@DU?$less@D@std@@V?$allocator@D@2@$0A@@std@@@std@@IEAA?AV?$_Tree_const_iterator@V?$_Tree_val@U?$_Tree_simple_types@D@std@@@std@@@1@_NPEAU?$_Tree_node@DPEAX@1@AEBDU_Not_a_node_tag@1@@Z 000000018000d820 f i MovieFFMpeg:MovieFFMpeg.obj
 0001:0000cab0       ??$_Insert_at@AEBHU_Not_a_node_tag@std@@@?$_Tree@V?$_Tset_traits@HU?$less@H@std@@V?$allocator@H@2@$0A@@std@@@std@@IEAA?AV?$_Tree_const_iterator@V?$_Tree_val@U?$_Tree_simple_types@H@std@@@std@@@1@_NPEAU?$_Tree_node@HPEAX@1@AEBHU_Not_a_node_tag@1@@Z 000000018000dab0 f i MovieFFMpeg:MovieFFMpeg.obj
 0001:0000cd40       ??$_Insert_at@AEB_JU_Not_a_node_tag@std@@@?$_Tree@V?$_Tset_traits@_JU?$less@_J@std@@V?$allocator@_J@2@$0A@@std@@@std@@IEAA?AV?$_Tree_const_iterator@V?$_Tree_val@U?$_Tree_simple_types@_J@std@@@std@@@1@_NPEAU?$_Tree_node@_JPEAX@1@AEB_JU_Not_a_node_tag@1@@Z 000000018000dd40 f i MovieFFMpeg:MovieFFMpeg.obj
 0001:0000cfd0       ??$_Insert_hint@AEAU?$pair@$$CBU?$pair@HH@std@@V?$vector@HV?$allocator@H@std@@@2@@std@@PEAU?$_Tree_node@U?$pair@$$CBU?$pair@HH@std@@V?$vector@HV?$allocator@H@std@@@2@@std@@PEAX@2@@?$_Tree@V?$_Tmap_traits@U?$pair@HH@std@@V?$vector@HV?$allocator@H@std@@@2@U?$less@U?$pair@HH@std@@@2@V?$allocator@U?$pair@$$CBU?$pair@HH@std@@V?$vector@HV?$allocator@H@std@@@2@@std@@@2@$0A@@std@@@std@@IEAA?AV?$_Tree_iterator@V?$_Tree_val@U?$_Tree_simple_types@U?$pair@$$CBU?$pair@HH@std@@V?$vector@HV?$allocator@H@std@@@2@@std@@@std@@@std@@@1@V?$_Tree_const_iterator@V?$_Tree_val@U?$_Tree_simple_types@U?$pair@$$CBU?$pair@HH@std@@V?$vector@HV?$allocator@H@std@@@2@@std@@@std@@@std@@@1@AEAU?$pair@$$CBU?$pair@HH@std@@V?$vector@HV?$allocator@H@std@@@2@@1@PEAU?$_Tree_node@U?$pair@$$CBU?$pair@HH@std@@V?$vector@HV?$allocator@H@std@@@2@@std@@PEAX@1@@Z 000000018000dfd0 f i MovieFFMpeg:MovieFFMpeg.obj
 0001:0000d210       ??$_Insert_hint@AEAU?$pair@$$CBU?$pair@PEAVMovieFFMpegReader@TwkMovie@@H@std@@UContext@ContextPool@TwkMovie@@@std@@PEAU?$_Tree_node@U?$pair@$$CBU?$pair@PEAVMovieFFMpegReader@TwkMovie@@H@std@@UContext@ContextPool@TwkMovie@@@std@@PEAX@2@@?$_Tree@V?$_Tmap_traits@U?$pair@PEAVMovieFFMpegReader@TwkMovie@@H@std@@UContext@ContextPool@TwkMovie@@U?$less@U?$pair@PEAVMovieFFMpegReader@TwkMovie@@H@std@@@2@V?$allocator@U?$pair@$$CBU?$pair@PEAVMovieFFMpegReader@TwkMovie@@H@std@@UContext@ContextPool@TwkMovie@@@std@@@2@$0A@@std@@@std@@IEAA?AV?$_Tree_iterator@V?$_Tree_val@U?$_Tree_simple_types@U?$pair@$$CBU?$pair@PEAVMovieFFMpegReader@TwkMovie@@H@std@@UContext@ContextPool@TwkMovie@@@std@@@std@@@std@@@1@V?$_Tree_const_iterator@V?$_Tree_val@U?$_Tree_simple_types@U?$pair@$$CBU?$pair@PEAVMovieFFMpegReader@TwkMovie@@H@std@@UContext@ContextPool@TwkMovie@@@std@@@std@@@std@@@1@AEAU?$pair@$$CBU?$pair@PEAVMovieFFMpegReader@TwkMovie@@H@std@@UContext@ContextPool@TwkMovie@@@1@PEAU?$_Tree_node@U?$pair@$$CBU?$pair@PEAVMovieFFMpegReader@TwkMovie@@H@std@@UContext@ContextPool@TwkMovie@@@std@@PEAX@1@@Z 000000018000e210 f i MovieFFMpeg:MovieFFMpeg.obj
 0001:0000d450       ??$_Insert_hint@AEAU?$pair@$$CBU?$pair@V?$basic_string@DU?$char_traits@D@std@@V?$allocator@D@2@@std@@H@std@@V?$vector@HV?$allocator@H@std@@@2@@std@@PEAU?$_Tree_node@U?$pair@$$CBU?$pair@V?$basic_string@DU?$char_traits@D@std@@V?$allocator@D@2@@std@@H@std@@V?$vector@HV?$allocator@H@std@@@2@@std@@PEAX@2@@?$_Tree@V?$_Tmap_traits@U?$pair@V?$basic_string@DU?$char_traits@D@std@@V?$allocator@D@2@@std@@H@std@@V?$vector@HV?$allocator@H@std@@@2@U?$less@U?$pair@V?$basic_string@DU?$char_traits@D@std@@V?$allocator@D@2@@std@@H@std@@@2@V?$allocator@U?$pair@$$CBU?$pair@V?$basic_string@DU?$char_traits@D@std@@V?$allocator@D@2@@std@@H@std@@V?$vector@HV?$allocator@H@std@@@2@@std@@@2@$0A@@std@@@std@@IEAA?AV?$_Tree_iterator@V?$_Tree_val@U?$_Tree_simple_types@U?$pair@$$CBU?$pair@V?$basic_string@DU?$char_traits@D@std@@V?$allocator@D@2@@std@@H@std@@V?$vector@HV?$allocator@H@std@@@2@@std@@@std@@@std@@@1@V?$_Tree_const_iterator@V?$_Tree_val@U?$_Tree_simple_types@U?$pair@$$CBU?$pair@V?$basic_string@DU?$char_traits@D@std@@V?$allocator@D@2@@std@@H@std@@V?$vector@HV?$allocator@H@std@@@2@@std@@@std@@@std@@@1@AEAU?$pair@$$CBU?$pair@V?$basic_string@DU?$char_traits@D@std@@V?$allocator@D@2@@std@@H@std@@V?$vector@HV?$allocator@H@std@@@2@@1@PEAU?$_Tree_node@U?$pair@$$CBU?$pair@V?$basic_string@DU?$char_traits@D@std@@V?$allocator@D@2@@std@@H@std@@V?$vector@HV?$allocator@H@std@@@2@@std@@PEAX@1@@Z 000000018000e450 f i MovieFFMpeg:MovieFFMpeg.obj
 0001:0000d690       ??$_Insert_hint@AEAU?$pair@$$CBV?$basic_string@DU?$char_traits@D@std@@V?$allocator@D@2@@std@@H@std@@PEAU?$_Tree_node@U?$pair@$$CBV?$basic_string@DU?$char_traits@D@std@@V?$allocator@D@2@@std@@H@std@@PEAX@2@@?$_Tree@V?$_Tmap_traits@V?$basic_string@DU?$char_traits@D@std@@V?$allocator@D@2@@std@@HU?$less@V?$basic_string@DU?$char_traits@D@std@@V?$allocator@D@2@@std@@@2@V?$allocator@U?$pair@$$CBV?$basic_string@DU?$char_traits@D@std@@V?$allocator@D@2@@std@@H@std@@@2@$0A@@std@@@std@@IEAA?AV?$_Tree_iterator@V?$_Tree_val@U?$_Tree_simple_types@U?$pair@$$CBV?$basic_string@DU?$char_traits@D@std@@V?$allocator@D@2@@std@@H@std@@@std@@@std@@@1@V?$_Tree_const_iterator@V?$_Tree_val@U?$_Tree_simple_types@U?$pair@$$CBV?$basic_string@DU?$char_traits@D@std@@V?$allocator@D@2@@std@@H@std@@@std@@@std@@@1@AEAU?$pair@$$CBV?$basic_string@DU?$char_traits@D@std@@V?$allocator@D@2@@std@@H@1@PEAU?$_Tree_node@U?$pair@$$CBV?$basic_string@DU?$char_traits@D@std@@V?$allocator@D@2@@std@@H@std@@PEAX@1@@Z 000000018000e690 f i MovieFFMpeg:MovieFFMpeg.obj
 0001:0000d8d0       ??$_Insert_hint@AEAU?$pair@$$CBV?$basic_string@DU?$char_traits@D@std@@V?$allocator@D@2@@std@@U?$pair@V?$basic_string@DU?$char_traits@D@std@@V?$allocator@D@2@@std@@I@2@@std@@PEAU?$_Tree_node@U?$pair@$$CBV?$basic_string@DU?$char_traits@D@std@@V?$allocator@D@2@@std@@U?$pair@V?$basic_string@DU?$char_traits@D@std@@V?$allocator@D@2@@std@@I@2@@std@@PEAX@2@@?$_Tree@V?$_Tmap_traits@V?$basic_string@DU?$char_traits@D@std@@V?$allocator@D@2@@std@@U?$pair@V?$basic_string@DU?$char_traits@D@std@@V?$allocator@D@2@@std@@I@2@U?$less@V?$basic_string@DU?$char_traits@D@std@@V?$allocator@D@2@@std@@@2@V?$allocator@U?$pair@$$CBV?$basic_string@DU?$char_traits@D@std@@V?$allocator@D@2@@std@@U?$pair@V?$basic_string@DU?$char_traits@D@std@@V?$allocator@D@2@@std@@I@2@@std@@@2@$0A@@std@@@std@@IEAA?AV?$_Tree_iterator@V?$_Tree_val@U?$_Tree_simple_types@U?$pair@$$CBV?$basic_string@DU?$char_traits@D@std@@V?$allocator@D@2@@std@@U?$pair@V?$basic_string@DU?$char_traits@D@std@@V?$allocator@D@2@@std@@I@2@@std@@@std@@@std@@@1@V?$_Tree_const_iterator@V?$_Tree_val@U?$_Tree_simple_types@U?$pair@$$CBV?$basic_string@DU?$char_traits@D@std@@V?$allocator@D@2@@std@@U?$pair@V?$basic_string@DU?$char_traits@D@std@@V?$allocator@D@2@@std@@I@2@@std@@@std@@@std@@@1@AEAU?$pair@$$CBV?$basic_string@DU?$char_traits@D@std@@V?$allocator@D@2@@std@@U?$pair@V?$basic_string@DU?$char_traits@D@std@@V?$allocator@D@2@@std@@I@2@@1@PEAU?$_Tree_node@U?$pair@$$CBV?$basic_string@DU?$char_traits@D@std@@V?$allocator@D@2@@std@@U?$pair@V?$basic_string@DU?$char_traits@D@std@@V?$allocator@D@2@@std@@I@2@@std@@PEAX@1@@Z 000000018000e8d0 f i MovieFFMpeg:MovieFFMpeg.obj
 0001:0000db10       ??$_Insert_hint@AEAU?$pair@$$CBV?$basic_string@DU?$char_traits@D@std@@V?$allocator@D@2@@std@@V12@@std@@PEAU?$_Tree_node@U?$pair@$$CBV?$basic_string@DU?$char_traits@D@std@@V?$allocator@D@2@@std@@V12@@std@@PEAX@2@@?$_Tree@V?$_Tmap_traits@V?$basic_string@DU?$char_traits@D@std@@V?$allocator@D@2@@std@@V12@U?$less@V?$basic_string@DU?$char_traits@D@std@@V?$allocator@D@2@@std@@@2@V?$allocator@U?$pair@$$CBV?$basic_string@DU?$char_traits@D@std@@V?$allocator@D@2@@std@@V12@@std@@@2@$0A@@std@@@std@@IEAA?AV?$_Tree_iterator@V?$_Tree_val@U?$_Tree_simple_types@U?$pair@$$CBV?$basic_string@DU?$char_traits@D@std@@V?$allocator@D@2@@std@@V12@@std@@@std@@@std@@@1@V?$_Tree_const_iterator@V?$_Tree_val@U?$_Tree_simple_types@U?$pair@$$CBV?$basic_string@DU?$char_traits@D@std@@V?$allocator@D@2@@std@@V12@@std@@@std@@@std@@@1@AEAU?$pair@$$CBV?$basic_string@DU?$char_traits@D@std@@V?$allocator@D@2@@std@@V12@@1@PEAU?$_Tree_node@U?$pair@$$CBV?$basic_string@DU?$char_traits@D@std@@V?$allocator@D@2@@std@@V12@@std@@PEAX@1@@Z 000000018000eb10 f i MovieFFMpeg:MovieFFMpeg.obj
 0001:0000dd50       ??$_Insert_hint@AEAU?$pair@$$CBV?$basic_string@DU?$char_traits@D@std@@V?$allocator@D@2@@std@@V?$set@HU?$less@H@std@@V?$allocator@H@2@@2@@std@@PEAU?$_Tree_node@U?$pair@$$CBV?$basic_string@DU?$char_traits@D@std@@V?$allocator@D@2@@std@@V?$set@HU?$less@H@std@@V?$allocator@H@2@@2@@std@@PEAX@2@@?$_Tree@V?$_Tmap_traits@V?$basic_string@DU?$char_traits@D@std@@V?$allocator@D@2@@std@@V?$set@HU?$less@H@std@@V?$allocator@H@2@@2@U?$less@V?$basic_string@DU?$char_traits@D@std@@V?$allocator@D@2@@std@@@2@V?$allocator@U?$pair@$$CBV?$basic_string@DU?$char_traits@D@std@@V?$allocator@D@2@@std@@V?$set@HU?$less@H@std@@V?$allocator@H@2@@2@@std@@@2@$0A@@std@@@std@@IEAA?AV?$_Tree_iterator@V?$_Tree_val@U?$_Tree_simple_types@U?$pair@$$CBV?$basic_string@DU?$char_traits@D@std@@V?$allocator@D@2@@std@@V?$set@HU?$less@H@std@@V?$allocator@H@2@@2@@std@@@std@@@std@@@1@V?$_Tree_const_iterator@V?$_Tree_val@U?$_Tree_simple_types@U?$pair@$$CBV?$basic_string@DU?$char_traits@D@std@@V?$allocator@D@2@@std@@V?$set@HU?$less@H@std@@V?$allocator@H@2@@2@@std@@@std@@@std@@@1@AEAU?$pair@$$CBV?$basic_string@DU?$char_traits@D@std@@V?$allocator@D@2@@std@@V?$set@HU?$less@H@std@@V?$allocator@H@2@@2@@1@PEAU?$_Tree_node@U?$pair@$$CBV?$basic_string@DU?$char_traits@D@std@@V?$allocator@D@2@@std@@V?$set@HU?$less@H@std@@V?$allocator@H@2@@2@@std@@PEAX@1@@Z 000000018000ed50 f i MovieFFMpeg:MovieFFMpeg.obj
 0001:0000df90       ??$_Insert_hint@AEAU?$pair@$$CBW4Channels@TwkAudio@@UChannelMixState@2@@std@@PEAU?$_Tree_node@U?$pair@$$CBW4Channels@TwkAudio@@UChannelMixState@2@@std@@PEAX@2@@?$_Tree@V?$_Tmap_traits@W4Channels@TwkAudio@@UChannelMixState@2@U?$less@W4Channels@TwkAudio@@@std@@V?$allocator@U?$pair@$$CBW4Channels@TwkAudio@@UChannelMixState@2@@std@@@5@$0A@@std@@@std@@IEAA?AV?$_Tree_iterator@V?$_Tree_val@U?$_Tree_simple_types@U?$pair@$$CBW4Channels@TwkAudio@@UChannelMixState@2@@std@@@std@@@std@@@1@V?$_Tree_const_iterator@V?$_Tree_val@U?$_Tree_simple_types@U?$pair@$$CBW4Channels@TwkAudio@@UChannelMixState@2@@std@@@std@@@std@@@1@AEAU?$pair@$$CBW4Channels@TwkAudio@@UChannelMixState@2@@1@PEAU?$_Tree_node@U?$pair@$$CBW4Channels@TwkAudio@@UChannelMixState@2@@std@@PEAX@1@@Z 000000018000ef90 f i MovieFFMpeg:MovieFFMpeg.obj
 0001:0000e180       ??$_Insert_hint@AEAU?$pair@$$CB_J_J@std@@PEAU?$_Tree_node@U?$pair@$$CB_J_J@std@@PEAX@2@@?$_Tree@V?$_Tmap_traits@_J_JU?$less@_J@std@@V?$allocator@U?$pair@$$CB_J_J@std@@@2@$0A@@std@@@std@@IEAA?AV?$_Tree_iterator@V?$_Tree_val@U?$_Tree_simple_types@U?$pair@$$CB_J_J@std@@@std@@@std@@@1@V?$_Tree_const_iterator@V?$_Tree_val@U?$_Tree_simple_types@U?$pair@$$CB_J_J@std@@@std@@@std@@@1@AEAU?$pair@$$CB_J_J@1@PEAU?$_Tree_node@U?$pair@$$CB_J_J@std@@PEAX@1@@Z 000000018000f180 f i MovieFFMpeg:MovieFFMpeg.obj
 0001:0000e370       ??$_Insert_nohint@AEAU?$pair@$$CBU?$pair@HH@std@@V?$vector@HV?$allocator@H@std@@@2@@std@@PEAU?$_Tree_node@U?$pair@$$CBU?$pair@HH@std@@V?$vector@HV?$allocator@H@std@@@2@@std@@PEAX@2@@?$_Tree@V?$_Tmap_traits@U?$pair@HH@std@@V?$vector@HV?$allocator@H@std@@@2@U?$less@U?$pair@HH@std@@@2@V?$allocator@U?$pair@$$CBU?$pair@HH@std@@V?$vector@HV?$allocator@H@std@@@2@@std@@@2@$0A@@std@@@std@@IEAA?AU?$pair@V?$_Tree_iterator@V?$_Tree_val@U?$_Tree_simple_types@U?$pair@$$CBU?$pair@HH@std@@V?$vector@HV?$allocator@H@std@@@2@@std@@@std@@@std@@@std@@_N@1@_NAEAU?$pair@$$CBU?$pair@HH@std@@V?$vector@HV?$allocator@H@std@@@2@@1@PEAU?$_Tree_node@U?$pair@$$CBU?$pair@HH@std@@V?$vector@HV?$allocator@H@std@@@2@@std@@PEAX@1@@Z 000000018000f370 f i MovieFFMpeg:MovieFFMpeg.obj
 0001:0000e520       ??$_Insert_nohint@AEAU?$pair@$$CBU?$pair@PEAVMovieFFMpegReader@TwkMovie@@H@std@@UContext@ContextPool@TwkMovie@@@std@@PEAU?$_Tree_node@U?$pair@$$CBU?$pair@PEAVMovieFFMpegReader@TwkMovie@@H@std@@UContext@ContextPool@TwkMovie@@@std@@PEAX@2@@?$_Tree@V?$_Tmap_traits@U?$pair@PEAVMovieFFMpegReader@TwkMovie@@H@std@@UContext@ContextPool@TwkMovie@@U?$less@U?$pair@PEAVMovieFFMpegReader@TwkMovie@@H@std@@@2@V?$allocator@U?$pair@$$CBU?$pair@PEAVMovieFFMpegReader@TwkMovie@@H@std@@UContext@ContextPool@TwkMovie@@@std@@@2@$0A@@std@@@std@@IEAA?AU?$pair@V?$_Tree_iterator@V?$_Tree_val@U?$_Tree_simple_types@U?$pair@$$CBU?$pair@PEAVMovieFFMpegReader@TwkMovie@@H@std@@UContext@ContextPool@TwkMovie@@@std@@@std@@@std@@@std@@_N@1@_NAEAU?$pair@$$CBU?$pair@PEAVMovieFFMpegReader@TwkMovie@@H@std@@UContext@ContextPool@TwkMovie@@@1@PEAU?$_Tree_node@U?$pair@$$CBU?$pair@PEAVMovieFFMpegReader@TwkMovie@@H@std@@UContext@ContextPool@TwkMovie@@@std@@PEAX@1@@Z 000000018000f520 f i MovieFFMpeg:MovieFFMpeg.obj
 0001:0000e6d0       ??$_Insert_nohint@AEAU?$pair@$$CBU?$pair@V?$basic_string@DU?$char_traits@D@std@@V?$allocator@D@2@@std@@H@std@@V?$vector@HV?$allocator@H@std@@@2@@std@@PEAU?$_Tree_node@U?$pair@$$CBU?$pair@V?$basic_string@DU?$char_traits@D@std@@V?$allocator@D@2@@std@@H@std@@V?$vector@HV?$allocator@H@std@@@2@@std@@PEAX@2@@?$_Tree@V?$_Tmap_traits@U?$pair@V?$basic_string@DU?$char_traits@D@std@@V?$allocator@D@2@@std@@H@std@@V?$vector@HV?$allocator@H@std@@@2@U?$less@U?$pair@V?$basic_string@DU?$char_traits@D@std@@V?$allocator@D@2@@std@@H@std@@@2@V?$allocator@U?$pair@$$CBU?$pair@V?$basic_string@DU?$char_traits@D@std@@V?$allocator@D@2@@std@@H@std@@V?$vector@HV?$allocator@H@std@@@2@@std@@@2@$0A@@std@@@std@@IEAA?AU?$pair@V?$_Tree_iterator@V?$_Tree_val@U?$_Tree_simple_types@U?$pair@$$CBU?$pair@V?$basic_string@DU?$char_traits@D@std@@V?$allocator@D@2@@std@@H@std@@V?$vector@HV?$allocator@H@std@@@2@@std@@@std@@@std@@@std@@_N@1@_NAEAU?$pair@$$CBU?$pair@V?$basic_string@DU?$char_traits@D@std@@V?$allocator@D@2@@std@@H@std@@V?$vector@HV?$allocator@H@std@@@2@@1@PEAU?$_Tree_node@U?$pair@$$CBU?$pair@V?$basic_string@DU?$char_traits@D@std@@V?$allocator@D@2@@std@@H@std@@V?$vector@HV?$allocator@H@std@@@2@@std@@PEAX@1@@Z 000000018000f6d0 f i MovieFFMpeg:MovieFFMpeg.obj
 0001:0000e940       ??$_Insert_nohint@AEAU?$pair@$$CBV?$basic_string@DU?$char_traits@D@std@@V?$allocator@D@2@@std@@H@std@@PEAU?$_Tree_node@U?$pair@$$CBV?$basic_string@DU?$char_traits@D@std@@V?$allocator@D@2@@std@@H@std@@PEAX@2@@?$_Tree@V?$_Tmap_traits@V?$basic_string@DU?$char_traits@D@std@@V?$allocator@D@2@@std@@HU?$less@V?$basic_string@DU?$char_traits@D@std@@V?$allocator@D@2@@std@@@2@V?$allocator@U?$pair@$$CBV?$basic_string@DU?$char_traits@D@std@@V?$allocator@D@2@@std@@H@std@@@2@$0A@@std@@@std@@IEAA?AU?$pair@V?$_Tree_iterator@V?$_Tree_val@U?$_Tree_simple_types@U?$pair@$$CBV?$basic_string@DU?$char_traits@D@std@@V?$allocator@D@2@@std@@H@std@@@std@@@std@@@std@@_N@1@_NAEAU?$pair@$$CBV?$basic_string@DU?$char_traits@D@std@@V?$allocator@D@2@@std@@H@1@PEAU?$_Tree_node@U?$pair@$$CBV?$basic_string@DU?$char_traits@D@std@@V?$allocator@D@2@@std@@H@std@@PEAX@1@@Z 000000018000f940 f i MovieFFMpeg:MovieFFMpeg.obj
 0001:0000eb10       ??$_Insert_nohint@AEAU?$pair@$$CBV?$basic_string@DU?$char_traits@D@std@@V?$allocator@D@2@@std@@U?$pair@V?$basic_string@DU?$char_traits@D@std@@V?$allocator@D@2@@std@@I@2@@std@@PEAU?$_Tree_node@U?$pair@$$CBV?$basic_string@DU?$char_traits@D@std@@V?$allocator@D@2@@std@@U?$pair@V?$basic_string@DU?$char_traits@D@std@@V?$allocator@D@2@@std@@I@2@@std@@PEAX@2@@?$_Tree@V?$_Tmap_traits@V?$basic_string@DU?$char_traits@D@std@@V?$allocator@D@2@@std@@U?$pair@V?$basic_string@DU?$char_traits@D@std@@V?$allocator@D@2@@std@@I@2@U?$less@V?$basic_string@DU?$char_traits@D@std@@V?$allocator@D@2@@std@@@2@V?$allocator@U?$pair@$$CBV?$basic_string@DU?$char_traits@D@std@@V?$allocator@D@2@@std@@U?$pair@V?$basic_string@DU?$char_traits@D@std@@V?$allocator@D@2@@std@@I@2@@std@@@2@$0A@@std@@@std@@IEAA?AU?$pair@V?$_Tree_iterator@V?$_Tree_val@U?$_Tree_simple_types@U?$pair@$$CBV?$basic_string@DU?$char_traits@D@std@@V?$allocator@D@2@@std@@U?$pair@V?$basic_string@DU?$char_traits@D@std@@V?$allocator@D@2@@std@@I@2@@std@@@std@@@std@@@std@@_N@1@_NAEAU?$pair@$$CBV?$basic_string@DU?$char_traits@D@std@@V?$allocator@D@2@@std@@U?$pair@V?$basic_string@DU?$char_traits@D@std@@V?$allocator@D@2@@std@@I@2@@1@PEAU?$_Tree_node@U?$pair@$$CBV?$basic_string@DU?$char_traits@D@std@@V?$allocator@D@2@@std@@U?$pair@V?$basic_string@DU?$char_traits@D@std@@V?$allocator@D@2@@std@@I@2@@std@@PEAX@1@@Z 000000018000fb10 f i MovieFFMpeg:MovieFFMpeg.obj
 0001:0000ecf0       ??$_Insert_nohint@AEAU?$pair@$$CBV?$basic_string@DU?$char_traits@D@std@@V?$allocator@D@2@@std@@V12@@std@@PEAU?$_Tree_node@U?$pair@$$CBV?$basic_string@DU?$char_traits@D@std@@V?$allocator@D@2@@std@@V12@@std@@PEAX@2@@?$_Tree@V?$_Tmap_traits@V?$basic_string@DU?$char_traits@D@std@@V?$allocator@D@2@@std@@V12@U?$less@V?$basic_string@DU?$char_traits@D@std@@V?$allocator@D@2@@std@@@2@V?$allocator@U?$pair@$$CBV?$basic_string@DU?$char_traits@D@std@@V?$allocator@D@2@@std@@V12@@std@@@2@$0A@@std@@@std@@IEAA?AU?$pair@V?$_Tree_iterator@V?$_Tree_val@U?$_Tree_simple_types@U?$pair@$$CBV?$basic_string@DU?$char_traits@D@std@@V?$allocator@D@2@@std@@V12@@std@@@std@@@std@@@std@@_N@1@_NAEAU?$pair@$$CBV?$basic_string@DU?$char_traits@D@std@@V?$allocator@D@2@@std@@V12@@1@PEAU?$_Tree_node@U?$pair@$$CBV?$basic_string@DU?$char_traits@D@std@@V?$allocator@D@2@@std@@V12@@std@@PEAX@1@@Z 000000018000fcf0 f i MovieFFMpeg:MovieFFMpeg.obj
 0001:0000eed0       ??$_Insert_nohint@AEAU?$pair@$$CBV?$basic_string@DU?$char_traits@D@std@@V?$allocator@D@2@@std@@V?$set@HU?$less@H@std@@V?$allocator@H@2@@2@@std@@PEAU?$_Tree_node@U?$pair@$$CBV?$basic_string@DU?$char_traits@D@std@@V?$allocator@D@2@@std@@V?$set@HU?$less@H@std@@V?$allocator@H@2@@2@@std@@PEAX@2@@?$_Tree@V?$_Tmap_traits@V?$basic_string@DU?$char_traits@D@std@@V?$allocator@D@2@@std@@V?$set@HU?$less@H@std@@V?$allocator@H@2@@2@U?$less@V?$basic_string@DU?$char_traits@D@std@@V?$allocator@D@2@@std@@@2@V?$allocator@U?$pair@$$CBV?$basic_string@DU?$char_traits@D@std@@V?$allocator@D@2@@std@@V?$set@HU?$less@H@std@@V?$allocator@H@2@@2@@std@@@2@$0A@@std@@@std@@IEAA?AU?$pair@V?$_Tree_iterator@V?$_Tree_val@U?$_Tree_simple_types@U?$pair@$$CBV?$basic_string@DU?$char_traits@D@std@@V?$allocator@D@2@@std@@V?$set@HU?$less@H@std@@V?$allocator@H@2@@2@@std@@@std@@@std@@@std@@_N@1@_NAEAU?$pair@$$CBV?$basic_string@DU?$char_traits@D@std@@V?$allocator@D@2@@std@@V?$set@HU?$less@H@std@@V?$allocator@H@2@@2@@1@PEAU?$_Tree_node@U?$pair@$$CBV?$basic_string@DU?$char_traits@D@std@@V?$allocator@D@2@@std@@V?$set@HU?$less@H@std@@V?$allocator@H@2@@2@@std@@PEAX@1@@Z 000000018000fed0 f i MovieFFMpeg:MovieFFMpeg.obj
 0001:0000f0b0       ??$_Insert_nohint@AEAU?$pair@$$CBW4Channels@TwkAudio@@UChannelMixState@2@@std@@PEAU?$_Tree_node@U?$pair@$$CBW4Channels@TwkAudio@@UChannelMixState@2@@std@@PEAX@2@@?$_Tree@V?$_Tmap_traits@W4Channels@TwkAudio@@UChannelMixState@2@U?$less@W4Channels@TwkAudio@@@std@@V?$allocator@U?$pair@$$CBW4Channels@TwkAudio@@UChannelMixState@2@@std@@@5@$0A@@std@@@std@@IEAA?AU?$pair@V?$_Tree_iterator@V?$_Tree_val@U?$_Tree_simple_types@U?$pair@$$CBW4Channels@TwkAudio@@UChannelMixState@2@@std@@@std@@@std@@@std@@_N@1@_NAEAU?$pair@$$CBW4Channels@TwkAudio@@UChannelMixState@2@@1@PEAU?$_Tree_node@U?$pair@$$CBW4Channels@TwkAudio@@UChannelMixState@2@@std@@PEAX@1@@Z 00000001800100b0 f i MovieFFMpeg:MovieFFMpeg.obj
 0001:0000f240       ??$_Insert_nohint@AEAU?$pair@$$CB_J_J@std@@PEAU?$_Tree_node@U?$pair@$$CB_J_J@std@@PEAX@2@@?$_Tree@V?$_Tmap_traits@_J_JU?$less@_J@std@@V?$allocator@U?$pair@$$CB_J_J@std@@@2@$0A@@std@@@std@@IEAA?AU?$pair@V?$_Tree_iterator@V?$_Tree_val@U?$_Tree_simple_types@U?$pair@$$CB_J_J@std@@@std@@@std@@@std@@_N@1@_NAEAU?$pair@$$CB_J_J@1@PEAU?$_Tree_node@U?$pair@$$CB_J_J@std@@PEAX@1@@Z 0000000180010240 f i MovieFFMpeg:MovieFFMpeg.obj
 0001:0000f3d0       ??$_Insert_nohint@AEBDU_Not_a_node_tag@std@@@?$_Tree@V?$_Tset_traits@DU?$less@D@std@@V?$allocator@D@2@$0A@@std@@@std@@IEAA?AU?$pair@V?$_Tree_const_iterator@V?$_Tree_val@U?$_Tree_simple_types@D@std@@@std@@@std@@_N@1@_NAEBDU_Not_a_node_tag@1@@Z 00000001800103d0 f i MovieFFMpeg:MovieFFMpeg.obj
 0001:0000f530       ??$_Insert_nohint@AEBHU_Not_a_node_tag@std@@@?$_Tree@V?$_Tset_traits@HU?$less@H@std@@V?$allocator@H@2@$0A@@std@@@std@@IEAA?AU?$pair@V?$_Tree_const_iterator@V?$_Tree_val@U?$_Tree_simple_types@H@std@@@std@@@std@@_N@1@_NAEBHU_Not_a_node_tag@1@@Z 0000000180010530 f i MovieFFMpeg:MovieFFMpeg.obj
 0001:0000f690       ??$_Insert_nohint@AEB_JU_Not_a_node_tag@std@@@?$_Tree@V?$_Tset_traits@_JU?$less@_J@std@@V?$allocator@_J@2@$0A@@std@@@std@@IEAA?AU?$pair@V?$_Tree_const_iterator@V?$_Tree_val@U?$_Tree_simple_types@_J@std@@@std@@@std@@_N@1@_NAEB_JU_Not_a_node_tag@1@@Z 0000000180010690 f i MovieFFMpeg:MovieFFMpeg.obj
 0001:0000f7b0       ??$_Insert_range@PEAUParameter@MovieIO@TwkMovie@@@?$vector@UParameter@MovieIO@TwkMovie@@V?$allocator@UParameter@MovieIO@TwkMovie@@@std@@@std@@AEAAXV?$_Vector_const_iterator@V?$_Vector_val@U?$_Simple_types@UParameter@MovieIO@TwkMovie@@@std@@@std@@@1@PEAUParameter@MovieIO@TwkMovie@@1Uforward_iterator_tag@1@@Z 00000001800107b0 f i MovieFFMpeg:MovieFFMpeg.obj
 0001:0000faa0       ??$_Insert_string@DU?$char_traits@D@std@@_K@std@@YAAEAV?$basic_ostream@DU?$char_traits@D@std@@@0@AEAV10@QEBD_K@Z 0000000180010aa0 f i MovieFFMpeg:MovieFFMpeg.obj
 0001:0000fc80       ??$_Move_backward_unchecked1@PEAUParameter@MovieIO@TwkMovie@@PEAU123@@std@@YAPEAUParameter@MovieIO@TwkMovie@@PEAU123@00U_General_ptr_iterator_tag@0@@Z 0000000180010c80 f i MovieFFMpeg:MovieFFMpeg.obj
 0001:0000fe60       ??$_Move_unchecked1@PEAUParameter@MovieIO@TwkMovie@@PEAU123@@std@@YAPEAUParameter@MovieIO@TwkMovie@@PEAU123@00U_General_ptr_iterator_tag@0@@Z 0000000180010e60 f i MovieFFMpeg:MovieFFMpeg.obj
 0001:00010040       ??$_Move_unchecked@PEAUParameter@MovieIO@TwkMovie@@PEAU123@@std@@YAPEAUParameter@MovieIO@TwkMovie@@PEAU123@00@Z 0000000180011040 f i MovieFFMpeg:MovieFFMpeg.obj
 0001:00010050       ??$_Reallocate_grow_by@V<lambda_f3a66ab6a0570788f31503db83886f49>@@_KPEBD_K@?$basic_string@DU?$char_traits@D@std@@V?$allocator@D@2@@std@@QEAAAEAV01@_KV<lambda_f3a66ab6a0570788f31503db83886f49>@@_KPEBD2@Z 0000000180011050 f i MovieFFMpeg:MovieFFMpeg.obj
 0001:000101f0       ??$_Resize@V<lambda_4bad70e8c3e06c245281339bf8eae5be>@@@?$vector@V?$basic_string@DU?$char_traits@D@std@@V?$allocator@D@2@@std@@V?$allocator@V?$basic_string@DU?$char_traits@D@std@@V?$allocator@D@2@@std@@@2@@std@@AEAAX_KV<lambda_4bad70e8c3e06c245281339bf8eae5be>@@@Z 00000001800111f0 f i MovieFFMpeg:MovieFFMpeg.obj
 0001:00010370       ??$_Resize@V<lambda_abcf8ee4f63c92d8cb3e42d8c935be2f>@@@?$vector@PEAVAudioTrack@TwkMovie@@V?$allocator@PEAVAudioTrack@TwkMovie@@@std@@@std@@AEAAX_KV<lambda_abcf8ee4f63c92d8cb3e42d8c935be2f>@@@Z 0000000180011370 f i MovieFFMpeg:MovieFFMpeg.obj
 0001:00010370       ??$_Resize@V<lambda_c0aec8efb703097a68a01b50aa5be642>@@@?$vector@PEAVVideoTrack@TwkMovie@@V?$allocator@PEAVVideoTrack@TwkMovie@@@std@@@std@@AEAAX_KV<lambda_c0aec8efb703097a68a01b50aa5be642>@@@Z 0000000180011370 f i MovieFFMpeg:MovieFFMpeg.obj
 0001:00010490       ??$_Resize@V<lambda_c5e4c0e3e667831e2c45facaa3e706ab>@@@?$vector@UChapterInfo@TwkMovie@@V?$allocator@UChapterInfo@TwkMovie@@@std@@@std@@AEAAX_KV<lambda_c5e4c0e3e667831e2c45facaa3e706ab>@@@Z 0000000180011490 f i MovieFFMpeg:MovieFFMpeg.obj
 0001:000106c0       ??$_Resize@V<lambda_dafce6d5af8f2462342c6e300f84c06e>@@@?$vector@MV?$replacement_allocator@M@stl_ext@@@std@@AEAAX_KV<lambda_dafce6d5af8f2462342c6e300f84c06e>@@@Z 00000001800116c0 f i MovieFFMpeg:MovieFFMpeg.obj
 0001:00010840       ??$_Resize@V<lambda_f5f77627601f5a8a55cdb6434a10ac65>@@@?$vector@IV?$allocator@I@std@@@std@@AEAAX_KV<lambda_f5f77627601f5a8a55cdb6434a10ac65>@@@Z 0000000180011840 f i MovieFFMpeg:MovieFFMpeg.obj
 0001:000109e0       ??$_Ucopy@PEAU?$pair@V?$basic_string@DU?$char_traits@D@std@@V?$allocator@D@2@@std@@V12@@std@@@?$vector@U?$pair@V?$basic_string@DU?$char_traits@D@std@@V?$allocator@D@2@@std@@V12@@std@@V?$allocator@U?$pair@V?$basic_string@DU?$char_traits@D@std@@V?$allocator@D@2@@std@@V12@@std@@@2@@std@@AEAAPEAU?$pair@V?$basic_string@DU?$char_traits@D@std@@V?$allocator@D@2@@std@@V12@@1@PEAU21@00@Z 00000001800119e0 f i MovieFFMpeg:MovieFFMpeg.obj
 0001:00010a70       ??$_Ucopy@PEAUChannelInfo@FBInfo@TwkFB@@@?$vector@UChannelInfo@FBInfo@TwkFB@@V?$allocator@UChannelInfo@FBInfo@TwkFB@@@std@@@std@@AEAAPEAUChannelInfo@FBInfo@TwkFB@@PEAU234@00@Z 0000000180011a70 f i MovieFFMpeg:MovieFFMpeg.obj
 0001:00010b00       ??$_Ucopy@PEAULayerInfo@FBInfo@TwkFB@@@?$vector@ULayerInfo@FBInfo@TwkFB@@V?$allocator@ULayerInfo@FBInfo@TwkFB@@@std@@@std@@AEAAPEAULayerInfo@FBInfo@TwkFB@@PEAU234@00@Z 0000000180011b00 f i MovieFFMpeg:MovieFFMpeg.obj
 0001:00010ba0       ??$_Ucopy@PEAUParameter@MovieIO@TwkMovie@@@?$vector@UParameter@MovieIO@TwkMovie@@V?$allocator@UParameter@MovieIO@TwkMovie@@@std@@@std@@AEAAPEAUParameter@MovieIO@TwkMovie@@PEAU234@00@Z 0000000180011ba0 f i MovieFFMpeg:MovieFFMpeg.obj
 0001:00010c40       ??$_Ucopy@PEAUViewInfo@FBInfo@TwkFB@@@?$vector@UViewInfo@FBInfo@TwkFB@@V?$allocator@UViewInfo@FBInfo@TwkFB@@@std@@@std@@AEAAPEAUViewInfo@FBInfo@TwkFB@@PEAU234@00@Z 0000000180011c40 f i MovieFFMpeg:MovieFFMpeg.obj
 0001:00010ce0       ??$_Uninitialized_copy@PEAUChapterInfo@TwkMovie@@PEAU12@V?$allocator@UChapterInfo@TwkMovie@@@std@@@std@@YAPEAUChapterInfo@TwkMovie@@QEAU12@0PEAU12@AEAV?$allocator@UChapterInfo@TwkMovie@@@0@@Z 0000000180011ce0 f i MovieFFMpeg:MovieFFMpeg.obj
 0001:00010d60       ??$_Uninitialized_move@PEAU?$pair@V?$basic_string@DU?$char_traits@D@std@@V?$allocator@D@2@@std@@V12@@std@@PEAU12@V?$allocator@U?$pair@V?$basic_string@DU?$char_traits@D@std@@V?$allocator@D@2@@std@@V12@@std@@@2@@std@@YAPEAU?$pair@V?$basic_string@DU?$char_traits@D@std@@V?$allocator@D@2@@std@@V12@@0@QEAU10@0PEAU10@AEAV?$allocator@U?$pair@V?$basic_string@DU?$char_traits@D@std@@V?$allocator@D@2@@std@@V12@@std@@@0@@Z 0000000180011d60 f i MovieFFMpeg:MovieFFMpeg.obj
 0001:00010df0       ??$_Uninitialized_move@PEAUChannelInfo@FBInfo@TwkFB@@PEAU123@V?$allocator@UChannelInfo@FBInfo@TwkFB@@@std@@@std@@YAPEAUChannelInfo@FBInfo@TwkFB@@QEAU123@0PEAU123@AEAV?$allocator@UChannelInfo@FBInfo@TwkFB@@@0@@Z 0000000180011df0 f i MovieFFMpeg:MovieFFMpeg.obj
 0001:00010e70       ??$_Uninitialized_move@PEAUParameter@MovieIO@TwkMovie@@PEAU123@V?$allocator@UParameter@MovieIO@TwkMovie@@@std@@@std@@YAPEAUParameter@MovieIO@TwkMovie@@QEAU123@0PEAU123@AEAV?$allocator@UParameter@MovieIO@TwkMovie@@@0@@Z 0000000180011e70 f i MovieFFMpeg:MovieFFMpeg.obj
 0001:00010f40       ??$_Uninitialized_move@PEAUViewInfo@FBInfo@TwkFB@@PEAU123@V?$allocator@UViewInfo@FBInfo@TwkFB@@@std@@@std@@YAPEAUViewInfo@FBInfo@TwkFB@@QEAU123@0PEAU123@AEAV?$allocator@UViewInfo@FBInfo@TwkFB@@@0@@Z 0000000180011f40 f i MovieFFMpeg:MovieFFMpeg.obj
 0001:00011020       ??$attribute@M@FrameBuffer@TwkFB@@QEAAAEAMAEBV?$basic_string@DU?$char_traits@D@std@@V?$allocator@D@2@@std@@@Z 0000000180012020 f i MovieFFMpeg:MovieFFMpeg.obj
 0001:00011120       ??$attribute@V?$basic_string@DU?$char_traits@D@std@@V?$allocator@D@2@@std@@@FrameBuffer@TwkFB@@QEAAAEAV?$basic_string@DU?$char_traits@D@std@@V?$allocator@D@2@@std@@AEBV23@@Z 0000000180012120 f i MovieFFMpeg:MovieFFMpeg.obj
 0001:000111a0       ??$construct@UParameter@MovieIO@TwkMovie@@U123@@?$_Default_allocator_traits@V?$allocator@UParameter@MovieIO@TwkMovie@@@std@@@std@@SAXAEAV?$allocator@UParameter@MovieIO@TwkMovie@@@1@QEAUParameter@MovieIO@TwkMovie@@$$QEAU345@@Z 00000001800121a0 f i MovieFFMpeg:MovieFFMpeg.obj
 0001:00011220       ??$construct@UViewInfo@FBInfo@TwkFB@@AEBU123@@?$_Default_allocator_traits@V?$allocator@UViewInfo@FBInfo@TwkFB@@@std@@@std@@SAXAEAV?$allocator@UViewInfo@FBInfo@TwkFB@@@1@QEAUViewInfo@FBInfo@TwkFB@@AEBU345@@Z 0000000180012220 f i MovieFFMpeg:MovieFFMpeg.obj
 0001:00011280       ??$enable_current_exception@U?$error_info_injector@Vthread_resource_error@boost@@@exception_detail@boost@@@boost@@YA?AV?$clone_impl@U?$error_info_injector@Vthread_resource_error@boost@@@exception_detail@boost@@@exception_detail@0@AEBU?$error_info_injector@Vthread_resource_error@boost@@@20@@Z 0000000180012280 f i MovieFFMpeg:MovieFFMpeg.obj
 0001:00011340       ??$enable_error_info@Vthread_resource_error@boost@@@boost@@YA?AU?$error_info_injector@Vthread_resource_error@boost@@@exception_detail@0@AEBVthread_resource_error@0@@Z 0000000180012340 f i MovieFFMpeg:MovieFFMpeg.obj
 0001:00011390       ??$insert@V?$_Vector_iterator@V?$_Vector_val@U?$_Simple_types@UParameter@MovieIO@TwkMovie@@@std@@@std@@@std@@X@?$vector@UParameter@MovieIO@TwkMovie@@V?$allocator@UParameter@MovieIO@TwkMovie@@@std@@@std@@QEAA?AV?$_Vector_iterator@V?$_Vector_val@U?$_Simple_types@UParameter@MovieIO@TwkMovie@@@std@@@std@@@1@V?$_Vector_const_iterator@V?$_Vector_val@U?$_Simple_types@UParameter@MovieIO@TwkMovie@@@std@@@std@@@1@V21@1@Z 0000000180012390 f i MovieFFMpeg:MovieFFMpeg.obj
 0001:00011410       ??$newAttribute@V?$basic_string@DU?$char_traits@D@std@@V?$allocator@D@2@@std@@@FrameBuffer@TwkFB@@QEAAPEAV?$TypedFBAttribute@V?$basic_string@DU?$char_traits@D@std@@V?$allocator@D@2@@std@@@1@AEBV?$basic_string@DU?$char_traits@D@std@@V?$allocator@D@2@@std@@V34@@Z 0000000180012410 f i MovieFFMpeg:MovieFFMpeg.obj
 0001:00011530       ??$throw_exception@Vthread_resource_error@boost@@@boost@@YAXAEBVthread_resource_error@0@@Z 0000000180012530 f i MovieFFMpeg:MovieFFMpeg.obj
 0001:00011570       ??$translateAVAudio@E@MovieFFMpegReader@TwkMovie@@AEAAHPEAUAudioTrack@1@NH@Z 0000000180012570 f i MovieFFMpeg:MovieFFMpeg.obj
 0001:00011b00       ??$translateAVAudio@F@MovieFFMpegReader@TwkMovie@@AEAAHPEAUAudioTrack@1@NH@Z 0000000180012b00 f i MovieFFMpeg:MovieFFMpeg.obj
 0001:00012090       ??$translateAVAudio@H@MovieFFMpegReader@TwkMovie@@AEAAHPEAUAudioTrack@1@NH@Z 0000000180013090 f i MovieFFMpeg:MovieFFMpeg.obj
 0001:00012630       ??$translateAVAudio@M@MovieFFMpegReader@TwkMovie@@AEAAHPEAUAudioTrack@1@NH@Z 0000000180013630 f i MovieFFMpeg:MovieFFMpeg.obj
 0001:00012bb0       ??$translateAVAudio@N@MovieFFMpegReader@TwkMovie@@AEAAHPEAUAudioTrack@1@NH@Z 0000000180013bb0 f i MovieFFMpeg:MovieFFMpeg.obj
 0001:00013140       ??$translateRVAudio@E@MovieFFMpegWriter@TwkMovie@@AEAAXHPEAVAudioBuffer@TwkAudio@@NH_N@Z 0000000180014140 f i MovieFFMpeg:MovieFFMpeg.obj
 0001:000134e0       ??$translateRVAudio@F@MovieFFMpegWriter@TwkMovie@@AEAAXHPEAVAudioBuffer@TwkAudio@@NH_N@Z 00000001800144e0 f i MovieFFMpeg:MovieFFMpeg.obj
 0001:000138a0       ??$translateRVAudio@H@MovieFFMpegWriter@TwkMovie@@AEAAXHPEAVAudioBuffer@TwkAudio@@NH_N@Z 00000001800148a0 f i MovieFFMpeg:MovieFFMpeg.obj
 0001:00013c60       ??$translateRVAudio@M@MovieFFMpegWriter@TwkMovie@@AEAAXHPEAVAudioBuffer@TwkAudio@@NH_N@Z 0000000180014c60 f i MovieFFMpeg:MovieFFMpeg.obj
 0001:000140d0       ??$translateRVAudio@N@MovieFFMpegWriter@TwkMovie@@AEAAXHPEAVAudioBuffer@TwkAudio@@NH_N@Z 00000001800150d0 f i MovieFFMpeg:MovieFFMpeg.obj
 0001:00014570       ??$use_facet@V?$ctype@D@std@@@std@@YAAEBV?$ctype@D@0@AEBVlocale@0@@Z 0000000180015570 f i MovieFFMpeg:MovieFFMpeg.obj
 0001:00014660       ??0?$TypedFBAttribute@V?$basic_string@DU?$char_traits@D@std@@V?$allocator@D@2@@std@@@TwkFB@@QEAA@AEBV?$basic_string@DU?$char_traits@D@std@@V?$allocator@D@2@@std@@V23@@Z 0000000180015660 f i MovieFFMpeg:MovieFFMpeg.obj
 0001:00014730       ??0?$basic_ostringstream@DU?$char_traits@D@std@@V?$allocator@D@2@@std@@QEAA@H@Z 0000000180015730 f i MovieFFMpeg:MovieFFMpeg.obj
 0001:00014810       ??0?$clone_impl@U?$error_info_injector@Vthread_resource_error@boost@@@exception_detail@boost@@@exception_detail@boost@@QEAA@AEBV012@@Z 0000000180015810 f i MovieFFMpeg:MovieFFMpeg.obj
 0001:000148a0       ??0?$error_info_injector@Vthread_resource_error@boost@@@exception_detail@boost@@QEAA@AEBU012@@Z 00000001800158a0 f i MovieFFMpeg:MovieFFMpeg.obj
 0001:00014940       ??0?$lock_guard@Vmutex@boost@@@boost@@QEAA@AEAVmutex@1@@Z 0000000180015940 f i MovieFFMpeg:MovieFFMpeg.obj
 0001:00014a30       ??0?$vector@W4Channels@TwkAudio@@V?$allocator@W4Channels@TwkAudio@@@std@@@std@@QEAA@AEBV01@@Z 0000000180015a30 f i MovieFFMpeg:MovieFFMpeg.obj
 0001:00014a30       ??0?$vector@IV?$allocator@I@std@@@std@@QEAA@AEBV01@@Z 0000000180015a30 f i MovieFFMpeg:MovieFFMpeg.obj
 0001:00014ae0       ??0?$vector@PEAVAudioTrack@TwkMovie@@V?$allocator@PEAVAudioTrack@TwkMovie@@@std@@@std@@QEAA@_KAEBV?$allocator@PEAVAudioTrack@TwkMovie@@@1@@Z 0000000180015ae0 f i MovieFFMpeg:MovieFFMpeg.obj
 0001:00014ae0       ??0?$vector@PEAVVideoTrack@TwkMovie@@V?$allocator@PEAVVideoTrack@TwkMovie@@@std@@@std@@QEAA@_KAEBV?$allocator@PEAVVideoTrack@TwkMovie@@@1@@Z 0000000180015ae0 f i MovieFFMpeg:MovieFFMpeg.obj
 0001:00014b70       ??0?$vector@PEAVFrameBuffer@TwkFB@@V?$allocator@PEAVFrameBuffer@TwkFB@@@std@@@std@@QEAA@AEBV01@@Z 0000000180015b70 f i MovieFFMpeg:MovieFFMpeg.obj
 0001:00014c20       ??0?$vector@UChannelInfo@FBInfo@TwkFB@@V?$allocator@UChannelInfo@FBInfo@TwkFB@@@std@@@std@@QEAA@AEBV01@@Z 0000000180015c20 f i MovieFFMpeg:MovieFFMpeg.obj
 0001:00014ce0       ??0?$vector@ULayerInfo@FBInfo@TwkFB@@V?$allocator@ULayerInfo@FBInfo@TwkFB@@@std@@@std@@QEAA@AEBV01@@Z 0000000180015ce0 f i MovieFFMpeg:MovieFFMpeg.obj
 0001:00014d60       ??0?$vector@UParameter@MovieIO@TwkMovie@@V?$allocator@UParameter@MovieIO@TwkMovie@@@std@@@std@@QEAA@AEBV01@@Z 0000000180015d60 f i MovieFFMpeg:MovieFFMpeg.obj
 0001:00014e20       ??0?$vector@V?$basic_string@DU?$char_traits@D@std@@V?$allocator@D@2@@std@@V?$allocator@V?$basic_string@DU?$char_traits@D@std@@V?$allocator@D@2@@std@@@2@@std@@QEAA@_KAEBV?$allocator@V?$basic_string@DU?$char_traits@D@std@@V?$allocator@D@2@@std@@@1@@Z 0000000180015e20 f i MovieFFMpeg:MovieFFMpeg.obj
 0001:00014ee0       ??0?$vector@V?$basic_string@DU?$char_traits@D@std@@V?$allocator@D@2@@std@@V?$allocator@V?$basic_string@DU?$char_traits@D@std@@V?$allocator@D@2@@std@@@2@@std@@QEAA@_KAEBV?$basic_string@DU?$char_traits@D@std@@V?$allocator@D@2@@1@AEBV?$allocator@V?$basic_string@DU?$char_traits@D@std@@V?$allocator@D@2@@std@@@1@@Z 0000000180015ee0 f i MovieFFMpeg:MovieFFMpeg.obj
 0001:00014fb0       ??0?$vector@V?$vector@MV?$replacement_allocator@M@stl_ext@@@std@@V?$allocator@V?$vector@MV?$replacement_allocator@M@stl_ext@@@std@@@2@@std@@QEAA@_KAEBV?$allocator@V?$vector@MV?$replacement_allocator@M@stl_ext@@@std@@@1@@Z 0000000180015fb0 f i MovieFFMpeg:MovieFFMpeg.obj
 0001:000150c0       ??0AudioTrack@TwkMovie@@QEAA@XZ 00000001800160c0 f i MovieFFMpeg:MovieFFMpeg.obj
 0001:00015170       ??0ChapterInfo@TwkMovie@@QEAA@AEBU01@@Z 0000000180016170 f i MovieFFMpeg:MovieFFMpeg.obj
 0001:00015200       ??0ContextPool@TwkMovie@@QEAA@H@Z 0000000180016200 f i MovieFFMpeg:MovieFFMpeg.obj
 0001:00015270       ??0FBInfo@TwkFB@@QEAA@XZ   0000000180016270 f i MovieFFMpeg:MovieFFMpeg.obj
 0001:00015310       ??0MovieFFMpegIO@TwkMovie@@QEAA@P6A_NV?$basic_string@DU?$char_traits@D@std@@V?$allocator@D@2@@std@@_N@Z1H0N@Z 0000000180016310 f   MovieFFMpeg:MovieFFMpeg.obj
 0001:00016d10       ??0MovieFFMpegReader@TwkMovie@@QEAA@PEBVMovieFFMpegIO@1@@Z 0000000180017d10 f   MovieFFMpeg:MovieFFMpeg.obj
 0001:00016e00       ??0MovieInfo@TwkMovie@@QEAA@AEBU01@@Z 0000000180017e00 f i MovieFFMpeg:MovieFFMpeg.obj
 0001:00017010       ??0Reservation@ContextPool@TwkMovie@@QEAA@PEAVMovieFFMpegReader@2@H@Z 0000000180018010 f   MovieFFMpeg:MovieFFMpeg.obj
 0001:000172e0       ??0VideoTrack@TwkMovie@@QEAA@XZ 00000001800182e0 f i MovieFFMpeg:MovieFFMpeg.obj
 0001:00017400       ??0bad_cast@std@@QEAA@XZ   0000000180018400 f i MovieFFMpeg:MovieFFMpeg.obj
 0001:00017430       ??0system_error@system@boost@@QEAA@AEBV012@@Z 0000000180018430 f i MovieFFMpeg:MovieFFMpeg.obj
 0001:000174a0       ??0thread_exception@boost@@QEAA@AEBV01@@Z 00000001800184a0 f i MovieFFMpeg:MovieFFMpeg.obj
 0001:000174d0       ??0thread_resource_error@boost@@QEAA@AEBV01@@Z 00000001800184d0 f i MovieFFMpeg:MovieFFMpeg.obj
 0001:00017500       ??0thread_resource_error@boost@@QEAA@XZ 0000000180018500 f i MovieFFMpeg:MovieFFMpeg.obj
 0001:00017580       ??1?$_Tree@V?$_Tmap_traits@U?$pair@PEAVMovieFFMpegReader@TwkMovie@@H@std@@UContext@ContextPool@TwkMovie@@U?$less@U?$pair@PEAVMovieFFMpegReader@TwkMovie@@H@std@@@2@V?$allocator@U?$pair@$$CBU?$pair@PEAVMovieFFMpegReader@TwkMovie@@H@std@@UContext@ContextPool@TwkMovie@@@std@@@2@$0A@@std@@@std@@QEAA@XZ 0000000180018580 f i MovieFFMpeg:MovieFFMpeg.obj
 0001:00017620       ??1?$_Tree@V?$_Tmap_traits@_J_JU?$less@_J@std@@V?$allocator@U?$pair@$$CB_J_J@std@@@2@$0A@@std@@@std@@QEAA@XZ 0000000180018620 f i MovieFFMpeg:MovieFFMpeg.obj
 0001:000176c0       ??1?$_Tree@V?$_Tset_traits@HU?$less@H@std@@V?$allocator@H@2@$0A@@std@@@std@@QEAA@XZ 00000001800186c0 f i MovieFFMpeg:MovieFFMpeg.obj
 0001:000176c0       ??1?$_Tree@V?$_Tset_traits@DU?$less@D@std@@V?$allocator@D@2@$0A@@std@@@std@@QEAA@XZ 00000001800186c0 f i MovieFFMpeg:MovieFFMpeg.obj
 0001:00017760       ??1?$_Uninitialized_backout_al@PEAU?$pair@V?$basic_string@DU?$char_traits@D@std@@V?$allocator@D@2@@std@@V12@@std@@V?$allocator@U?$pair@V?$basic_string@DU?$char_traits@D@std@@V?$allocator@D@2@@std@@V12@@std@@@2@@std@@QEAA@XZ 0000000180018760 f i MovieFFMpeg:MovieFFMpeg.obj
 0001:000177a0       ??1?$_Uninitialized_backout_al@PEAUChannelInfo@FBInfo@TwkFB@@V?$allocator@UChannelInfo@FBInfo@TwkFB@@@std@@@std@@QEAA@XZ 00000001800187a0 f i MovieFFMpeg:MovieFFMpeg.obj
 0001:000177b0       ??1?$_Uninitialized_backout_al@PEAUChapterInfo@TwkMovie@@V?$allocator@UChapterInfo@TwkMovie@@@std@@@std@@QEAA@XZ 00000001800187b0 f i MovieFFMpeg:MovieFFMpeg.obj
 0001:000177f0       ??1?$_Uninitialized_backout_al@PEAULayerInfo@FBInfo@TwkFB@@V?$allocator@ULayerInfo@FBInfo@TwkFB@@@std@@@std@@QEAA@XZ 00000001800187f0 f i MovieFFMpeg:MovieFFMpeg.obj
 0001:00017800       ??1?$_Uninitialized_backout_al@PEAUParameter@MovieIO@TwkMovie@@V?$allocator@UParameter@MovieIO@TwkMovie@@@std@@@std@@QEAA@XZ 0000000180018800 f i MovieFFMpeg:MovieFFMpeg.obj
 0001:00017840       ??1?$_Uninitialized_backout_al@PEAUViewInfo@FBInfo@TwkFB@@V?$allocator@UViewInfo@FBInfo@TwkFB@@@std@@@std@@QEAA@XZ 0000000180018840 f i MovieFFMpeg:MovieFFMpeg.obj
 0001:00017880       ??1?$basic_string@_WU?$char_traits@_W@std@@V?$allocator@_W@2@@std@@QEAA@XZ 0000000180018880 f i MovieFFMpeg:MovieFFMpeg.obj
 0001:00017890       ??1?$error_info_injector@Vthread_resource_error@boost@@@exception_detail@boost@@UEAA@XZ 0000000180018890 f i MovieFFMpeg:MovieFFMpeg.obj
 0001:000178f0       ??1?$lock_guard@Vmutex@boost@@@boost@@QEAA@XZ 00000001800188f0 f i MovieFFMpeg:MovieFFMpeg.obj
 0001:00017940       ??1?$map@U?$pair@HH@std@@V?$vector@HV?$allocator@H@std@@@2@U?$less@U?$pair@HH@std@@@2@V?$allocator@U?$pair@$$CBU?$pair@HH@std@@V?$vector@HV?$allocator@H@std@@@2@@std@@@2@@std@@QEAA@XZ 0000000180018940 f i MovieFFMpeg:MovieFFMpeg.obj
 0001:00017980       ??1?$map@U?$pair@PEAVMovieFFMpegReader@TwkMovie@@H@std@@UContext@ContextPool@TwkMovie@@U?$less@U?$pair@PEAVMovieFFMpegReader@TwkMovie@@H@std@@@2@V?$allocator@U?$pair@$$CBU?$pair@PEAVMovieFFMpegReader@TwkMovie@@H@std@@UContext@ContextPool@TwkMovie@@@std@@@2@@std@@QEAA@XZ 0000000180018980 f i MovieFFMpeg:MovieFFMpeg.obj
 0001:00017990       ??1?$map@U?$pair@V?$basic_string@DU?$char_traits@D@std@@V?$allocator@D@2@@std@@H@std@@V?$vector@HV?$allocator@H@std@@@2@U?$less@U?$pair@V?$basic_string@DU?$char_traits@D@std@@V?$allocator@D@2@@std@@H@std@@@2@V?$allocator@U?$pair@$$CBU?$pair@V?$basic_string@DU?$char_traits@D@std@@V?$allocator@D@2@@std@@H@std@@V?$vector@HV?$allocator@H@std@@@2@@std@@@2@@std@@QEAA@XZ 0000000180018990 f i MovieFFMpeg:MovieFFMpeg.obj
 0001:000179d0       ??1?$map@V?$basic_string@DU?$char_traits@D@std@@V?$allocator@D@2@@std@@HU?$less@V?$basic_string@DU?$char_traits@D@std@@V?$allocator@D@2@@std@@@2@V?$allocator@U?$pair@$$CBV?$basic_string@DU?$char_traits@D@std@@V?$allocator@D@2@@std@@H@std@@@2@@std@@QEAA@XZ 00000001800189d0 f i MovieFFMpeg:MovieFFMpeg.obj
 0001:00017a10       ??1?$map@V?$basic_string@DU?$char_traits@D@std@@V?$allocator@D@2@@std@@U?$pair@V?$basic_string@DU?$char_traits@D@std@@V?$allocator@D@2@@std@@I@2@U?$less@V?$basic_string@DU?$char_traits@D@std@@V?$allocator@D@2@@std@@@2@V?$allocator@U?$pair@$$CBV?$basic_string@DU?$char_traits@D@std@@V?$allocator@D@2@@std@@U?$pair@V?$basic_string@DU?$char_traits@D@std@@V?$allocator@D@2@@std@@I@2@@std@@@2@@std@@QEAA@XZ 0000000180018a10 f i MovieFFMpeg:MovieFFMpeg.obj
 0001:00017a50       ??1?$map@V?$basic_string@DU?$char_traits@D@std@@V?$allocator@D@2@@std@@V?$set@HU?$less@H@std@@V?$allocator@H@2@@2@U?$less@V?$basic_string@DU?$char_traits@D@std@@V?$allocator@D@2@@std@@@2@V?$allocator@U?$pair@$$CBV?$basic_string@DU?$char_traits@D@std@@V?$allocator@D@2@@std@@V?$set@HU?$less@H@std@@V?$allocator@H@2@@2@@std@@@2@@std@@QEAA@XZ 0000000180018a50 f i MovieFFMpeg:MovieFFMpeg.obj
 0001:00017a90       ??1?$map@_J_JU?$less@_J@std@@V?$allocator@U?$pair@$$CB_J_J@std@@@2@@std@@QEAA@XZ 0000000180018a90 f i MovieFFMpeg:MovieFFMpeg.obj
 0001:00017aa0       ??1?$pair@$$CBU?$pair@V?$basic_string@DU?$char_traits@D@std@@V?$allocator@D@2@@std@@H@std@@V?$vector@HV?$allocator@H@std@@@2@@std@@QEAA@XZ 0000000180018aa0 f i MovieFFMpeg:MovieFFMpeg.obj
 0001:00017b50       ??1?$pair@$$CBV?$basic_string@DU?$char_traits@D@std@@V?$allocator@D@2@@std@@U?$pair@V?$basic_string@DU?$char_traits@D@std@@V?$allocator@D@2@@std@@I@2@@std@@QEAA@XZ 0000000180018b50 f i MovieFFMpeg:MovieFFMpeg.obj
 0001:00017b50       ??1?$pair@$$CBV?$basic_string@DU?$char_traits@D@std@@V?$allocator@D@2@@std@@V12@@std@@QEAA@XZ 0000000180018b50 f i MovieFFMpeg:MovieFFMpeg.obj
 0001:00017b50       ??1?$pair@V?$basic_string@DU?$char_traits@D@std@@V?$allocator@D@2@@std@@V12@@std@@QEAA@XZ 0000000180018b50 f i MovieFFMpeg:MovieFFMpeg.obj
 0001:00017c00       ??1?$pair@$$CBV?$basic_string@DU?$char_traits@D@std@@V?$allocator@D@2@@std@@V?$set@HU?$less@H@std@@V?$allocator@H@2@@2@@std@@QEAA@XZ 0000000180018c00 f i MovieFFMpeg:MovieFFMpeg.obj
 0001:00017c70       ??1?$set@DU?$less@D@std@@V?$allocator@D@2@@std@@QEAA@XZ 0000000180018c70 f i MovieFFMpeg:MovieFFMpeg.obj
 0001:00017c80       ??1?$set@_JU?$less@_J@std@@V?$allocator@_J@2@@std@@QEAA@XZ 0000000180018c80 f i MovieFFMpeg:MovieFFMpeg.obj
 0001:00017cb0       ??1?$vector@_NV?$allocator@_N@std@@@std@@QEAA@XZ 0000000180018cb0 f i MovieFFMpeg:MovieFFMpeg.obj
 0001:00017cb0       ?_Tidy@?$vector@W4Channels@TwkAudio@@V?$allocator@W4Channels@TwkAudio@@@std@@@std@@AEAAXXZ 0000000180018cb0 f i MovieFFMpeg:MovieFFMpeg.obj
 0001:00017cb0       ??1?$vector@W4Layout@TwkAudio@@V?$allocator@W4Layout@TwkAudio@@@std@@@std@@QEAA@XZ 0000000180018cb0 f i MovieFFMpeg:MovieFFMpeg.obj
 0001:00017cb0       ??1?$vector@HV?$allocator@H@std@@@std@@QEAA@XZ 0000000180018cb0 f i MovieFFMpeg:MovieFFMpeg.obj
 0001:00017cb0       ??1ChannelsVector@TwkAudio@@QEAA@XZ 0000000180018cb0 f i MovieFFMpeg:MovieFFMpeg.obj
 0001:00017cb0       ?_Tidy@?$vector@IV?$allocator@I@std@@@std@@AEAAXXZ 0000000180018cb0 f i MovieFFMpeg:MovieFFMpeg.obj
 0001:00017d10       ??1?$vector@U?$pair@V?$basic_string@DU?$char_traits@D@std@@V?$allocator@D@2@@std@@V12@@std@@V?$allocator@U?$pair@V?$basic_string@DU?$char_traits@D@std@@V?$allocator@D@2@@std@@V12@@std@@@2@@std@@QEAA@XZ 0000000180018d10 f i MovieFFMpeg:MovieFFMpeg.obj
 0001:00017d20       ??1?$vector@UChannelInfo@FBInfo@TwkFB@@V?$allocator@UChannelInfo@FBInfo@TwkFB@@@std@@@std@@QEAA@XZ 0000000180018d20 f i MovieFFMpeg:MovieFFMpeg.obj
 0001:00017d30       ??1?$vector@UChapterInfo@TwkMovie@@V?$allocator@UChapterInfo@TwkMovie@@@std@@@std@@QEAA@XZ 0000000180018d30 f i MovieFFMpeg:MovieFFMpeg.obj
 0001:00017d40       ??1?$vector@ULayerInfo@FBInfo@TwkFB@@V?$allocator@ULayerInfo@FBInfo@TwkFB@@@std@@@std@@QEAA@XZ 0000000180018d40 f i MovieFFMpeg:MovieFFMpeg.obj
 0001:00017d50       ??1?$vector@UParameter@MovieIO@TwkMovie@@V?$allocator@UParameter@MovieIO@TwkMovie@@@std@@@std@@QEAA@XZ 0000000180018d50 f i MovieFFMpeg:MovieFFMpeg.obj
 0001:00017d60       ??1?$vector@UViewInfo@FBInfo@TwkFB@@V?$allocator@UViewInfo@FBInfo@TwkFB@@@std@@@std@@QEAA@XZ 0000000180018d60 f i MovieFFMpeg:MovieFFMpeg.obj
 0001:00017d70       ??1?$vector@V?$vector@MV?$replacement_allocator@M@stl_ext@@@std@@V?$allocator@V?$vector@MV?$replacement_allocator@M@stl_ext@@@std@@@2@@std@@QEAA@XZ 0000000180018d70 f i MovieFFMpeg:MovieFFMpeg.obj
 0001:00017d80       ??1AudioBuffer@TwkAudio@@QEAA@XZ 0000000180018d80 f i MovieFFMpeg:MovieFFMpeg.obj
 0001:00017e10       ??1AudioReadRequest@Movie@TwkMovie@@QEAA@XZ 0000000180018e10 f i MovieFFMpeg:MovieFFMpeg.obj
 0001:00017e80       ??1ChannelMixState@TwkAudio@@QEAA@XZ 0000000180018e80 f i MovieFFMpeg:MovieFFMpeg.obj
 0001:00017f30       ??1ChapterInfo@TwkMovie@@QEAA@XZ 0000000180018f30 f i MovieFFMpeg:MovieFFMpeg.obj
 0001:00017fa0       ??1CloneLock@TwkMovie@@QEAA@XZ 0000000180018fa0 f i MovieFFMpeg:MovieFFMpeg.obj
 0001:00017fb0       ??1FBAttribute@TwkFB@@UEAA@XZ 0000000180018fb0 f i MovieFFMpeg:MovieFFMpeg.obj
 0001:00018020       ??1FBInfo@TwkFB@@QEAA@XZ   0000000180019020 f i MovieFFMpeg:MovieFFMpeg.obj
 0001:000180c0       ??1MovieFFMpegReader@TwkMovie@@UEAA@XZ 00000001800190c0 f   MovieFFMpeg:MovieFFMpeg.obj
 0001:000181e0       ??1MovieFFMpegWriter@TwkMovie@@UEAA@XZ 00000001800191e0 f   MovieFFMpeg:MovieFFMpeg.obj
 0001:000183e0       ??1MovieInfo@TwkMovie@@QEAA@XZ 00000001800193e0 f i MovieFFMpeg:MovieFFMpeg.obj
 0001:00018490       ??1Parameter@MovieIO@TwkMovie@@QEAA@XZ 0000000180019490 f i MovieFFMpeg:MovieFFMpeg.obj
 0001:00018590       ??1ReadRequest@Movie@TwkMovie@@QEAA@XZ 0000000180019590 f i MovieFFMpeg:MovieFFMpeg.obj
 0001:000185d0       ??1Reservation@ContextPool@TwkMovie@@QEAA@XZ 00000001800195d0 f   MovieFFMpeg:MovieFFMpeg.obj
 0001:00018850       ??1VideoTrack@TwkMovie@@QEAA@XZ 0000000180019850 f i MovieFFMpeg:MovieFFMpeg.obj
 0001:00018a00       ??1ViewInfo@FBInfo@TwkFB@@QEAA@XZ 0000000180019a00 f i MovieFFMpeg:MovieFFMpeg.obj
 0001:00018a80       ??1system_error@system@boost@@UEAA@XZ 0000000180019a80 f i MovieFFMpeg:MovieFFMpeg.obj
 0001:00018b00       ??1thread_resource_error@boost@@UEAA@XZ 0000000180019b00 f i MovieFFMpeg:MovieFFMpeg.obj
 0001:00018b10       ??4?$basic_string@DU?$char_traits@D@std@@V?$allocator@D@2@@std@@QEAAAEAV01@$$QEAV01@@Z 0000000180019b10 f i MovieFFMpeg:MovieFFMpeg.obj
 0001:00018b60       ??4?$basic_string@DU?$char_traits@D@std@@V?$allocator@D@2@@std@@QEAAAEAV01@AEBV01@@Z 0000000180019b60 f i MovieFFMpeg:MovieFFMpeg.obj
 0001:00018b90       ??4?$basic_string@DU?$char_traits@D@std@@V?$allocator@D@2@@std@@QEAAAEAV01@QEBD@Z 0000000180019b90 f i MovieFFMpeg:MovieFFMpeg.obj
 0001:00018bb0       ??4?$vector@V?$basic_string@DU?$char_traits@D@std@@V?$allocator@D@2@@std@@V?$allocator@V?$basic_string@DU?$char_traits@D@std@@V?$allocator@D@2@@std@@@2@@std@@QEAAAEAV01@AEBV01@@Z 0000000180019bb0 f i MovieFFMpeg:MovieFFMpeg.obj
 0001:00018d30       ??4?$vector@W4Channels@TwkAudio@@V?$allocator@W4Channels@TwkAudio@@@std@@@std@@QEAAAEAV01@AEBV01@@Z 0000000180019d30 f i MovieFFMpeg:MovieFFMpeg.obj
 0001:00018e90       ??4ChannelsVector@TwkAudio@@QEAAAEAV01@$$QEAV01@@Z 0000000180019e90 f i MovieFFMpeg:MovieFFMpeg.obj
 0001:00018ee0       ??4FBInfo@TwkFB@@QEAAAEAU01@AEBU01@@Z 0000000180019ee0 f i MovieFFMpeg:MovieFFMpeg.obj
 0001:00018fd0       ??4MovieInfo@TwkMovie@@QEAAAEAU01@AEBU01@@Z 0000000180019fd0 f i MovieFFMpeg:MovieFFMpeg.obj
 0001:000190f0       ??A?$map@U?$pair@HH@std@@V?$vector@HV?$allocator@H@std@@@2@U?$less@U?$pair@HH@std@@@2@V?$allocator@U?$pair@$$CBU?$pair@HH@std@@V?$vector@HV?$allocator@H@std@@@2@@std@@@2@@std@@QEAAAEAV?$vector@HV?$allocator@H@std@@@1@AEBU?$pair@HH@1@@Z 000000018001a0f0 f i MovieFFMpeg:MovieFFMpeg.obj
 0001:000191b0       ??A?$map@U?$pair@V?$basic_string@DU?$char_traits@D@std@@V?$allocator@D@2@@std@@H@std@@V?$vector@HV?$allocator@H@std@@@2@U?$less@U?$pair@V?$basic_string@DU?$char_traits@D@std@@V?$allocator@D@2@@std@@H@std@@@2@V?$allocator@U?$pair@$$CBU?$pair@V?$basic_string@DU?$char_traits@D@std@@V?$allocator@D@2@@std@@H@std@@V?$vector@HV?$allocator@H@std@@@2@@std@@@2@@std@@QEAAAEAV?$vector@HV?$allocator@H@std@@@1@AEBU?$pair@V?$basic_string@DU?$char_traits@D@std@@V?$allocator@D@2@@std@@H@1@@Z 000000018001a1b0 f i MovieFFMpeg:MovieFFMpeg.obj
 0001:000192b0       ??A?$map@V?$basic_string@DU?$char_traits@D@std@@V?$allocator@D@2@@std@@HU?$less@V?$basic_string@DU?$char_traits@D@std@@V?$allocator@D@2@@std@@@2@V?$allocator@U?$pair@$$CBV?$basic_string@DU?$char_traits@D@std@@V?$allocator@D@2@@std@@H@std@@@2@@std@@QEAAAEAH$$QEAV?$basic_string@DU?$char_traits@D@std@@V?$allocator@D@2@@1@@Z 000000018001a2b0 f i MovieFFMpeg:MovieFFMpeg.obj
 0001:00019370       ??A?$map@V?$basic_string@DU?$char_traits@D@std@@V?$allocator@D@2@@std@@U?$pair@V?$basic_string@DU?$char_traits@D@std@@V?$allocator@D@2@@std@@I@2@U?$less@V?$basic_string@DU?$char_traits@D@std@@V?$allocator@D@2@@std@@@2@V?$allocator@U?$pair@$$CBV?$basic_string@DU?$char_traits@D@std@@V?$allocator@D@2@@std@@U?$pair@V?$basic_string@DU?$char_traits@D@std@@V?$allocator@D@2@@std@@I@2@@std@@@2@@std@@QEAAAEAU?$pair@V?$basic_string@DU?$char_traits@D@std@@V?$allocator@D@2@@std@@I@1@$$QEAV?$basic_string@DU?$char_traits@D@std@@V?$allocator@D@2@@1@@Z 000000018001a370 f i MovieFFMpeg:MovieFFMpeg.obj
 0001:00019430       ??A?$map@V?$basic_string@DU?$char_traits@D@std@@V?$allocator@D@2@@std@@V12@U?$less@V?$basic_string@DU?$char_traits@D@std@@V?$allocator@D@2@@std@@@2@V?$allocator@U?$pair@$$CBV?$basic_string@DU?$char_traits@D@std@@V?$allocator@D@2@@std@@V12@@std@@@2@@std@@QEAAAEAV?$basic_string@DU?$char_traits@D@std@@V?$allocator@D@2@@1@$$QEAV21@@Z 000000018001a430 f i MovieFFMpeg:MovieFFMpeg.obj
 0001:000194f0       ??A?$map@V?$basic_string@DU?$char_traits@D@std@@V?$allocator@D@2@@std@@V?$set@HU?$less@H@std@@V?$allocator@H@2@@2@U?$less@V?$basic_string@DU?$char_traits@D@std@@V?$allocator@D@2@@std@@@2@V?$allocator@U?$pair@$$CBV?$basic_string@DU?$char_traits@D@std@@V?$allocator@D@2@@std@@V?$set@HU?$less@H@std@@V?$allocator@H@2@@2@@std@@@2@@std@@QEAAAEAV?$set@HU?$less@H@std@@V?$allocator@H@2@@1@AEBV?$basic_string@DU?$char_traits@D@std@@V?$allocator@D@2@@1@@Z 000000018001a4f0 f i MovieFFMpeg:MovieFFMpeg.obj
 0001:000195b0       ??A?$vector@_NV?$allocator@_N@std@@@std@@QEAA?AV?$_Vb_reference@U?$_Wrap_alloc@V?$allocator@I@std@@@std@@@1@_K@Z 000000018001a5b0 f i MovieFFMpeg:MovieFFMpeg.obj
 0001:000195d0       ??B?$_Vb_reference@U?$_Wrap_alloc@V?$allocator@I@std@@@std@@@std@@QEBA_NXZ 000000018001a5d0 f i MovieFFMpeg:MovieFFMpeg.obj
 0001:000195f0       ??E?$_Tree_const_iterator@V?$_Tree_val@U?$_Tree_simple_types@U?$pair@$$CBV?$basic_string@DU?$char_traits@D@std@@V?$allocator@D@2@@std@@V12@@std@@@std@@@std@@@std@@QEAAAEAV01@XZ 000000018001a5f0 f i MovieFFMpeg:MovieFFMpeg.obj
 0001:000195f0       ??E?$_Tree_const_iterator@V?$_Tree_val@U?$_Tree_simple_types@U?$pair@$$CBV?$basic_string@DU?$char_traits@D@std@@V?$allocator@D@2@@std@@V?$set@HU?$less@H@std@@V?$allocator@H@2@@2@@std@@@std@@@std@@@std@@QEAAAEAV01@XZ 000000018001a5f0 f i MovieFFMpeg:MovieFFMpeg.obj
 0001:000195f0       ??E?$_Tree_const_iterator@V?$_Tree_val@U?$_Tree_simple_types@U?$pair@$$CBU?$pair@HH@std@@V?$vector@HV?$allocator@H@std@@@2@@std@@@std@@@std@@@std@@QEAAAEAV01@XZ 000000018001a5f0 f i MovieFFMpeg:MovieFFMpeg.obj
 0001:000195f0       ??E?$_Tree_const_iterator@V?$_Tree_val@U?$_Tree_simple_types@U?$pair@$$CBU?$pair@PEAVMovieFFMpegReader@TwkMovie@@H@std@@UContext@ContextPool@TwkMovie@@@std@@@std@@@std@@@std@@QEAAAEAV01@XZ 000000018001a5f0 f i MovieFFMpeg:MovieFFMpeg.obj
 0001:000195f0       ??E?$_Tree_const_iterator@V?$_Tree_val@U?$_Tree_simple_types@U?$pair@$$CBW4Channels@TwkAudio@@UChannelMixState@2@@std@@@std@@@std@@@std@@QEAAAEAV01@XZ 000000018001a5f0 f i MovieFFMpeg:MovieFFMpeg.obj
 0001:000195f0       ??E?$_Tree_const_iterator@V?$_Tree_val@U?$_Tree_simple_types@U?$pair@$$CBV?$basic_string@DU?$char_traits@D@std@@V?$allocator@D@2@@std@@U?$pair@V?$basic_string@DU?$char_traits@D@std@@V?$allocator@D@2@@std@@I@2@@std@@@std@@@std@@@std@@QEAAAEAV01@XZ 000000018001a5f0 f i MovieFFMpeg:MovieFFMpeg.obj
 0001:000195f0       ??E?$_Tree_const_iterator@V?$_Tree_val@U?$_Tree_simple_types@U?$pair@$$CBU?$pair@V?$basic_string@DU?$char_traits@D@std@@V?$allocator@D@2@@std@@H@std@@V?$vector@HV?$allocator@H@std@@@2@@std@@@std@@@std@@@std@@QEAAAEAV01@XZ 000000018001a5f0 f i MovieFFMpeg:MovieFFMpeg.obj
 0001:000195f0       ??E?$_Tree_const_iterator@V?$_Tree_val@U?$_Tree_simple_types@U?$pair@$$CB_J_J@std@@@std@@@std@@@std@@QEAAAEAV01@XZ 000000018001a5f0 f i MovieFFMpeg:MovieFFMpeg.obj
 0001:000195f0       ??E?$_Tree_const_iterator@V?$_Tree_val@U?$_Tree_simple_types@U?$pair@$$CBV?$basic_string@DU?$char_traits@D@std@@V?$allocator@D@2@@std@@H@std@@@std@@@std@@@std@@QEAAAEAV01@XZ 000000018001a5f0 f i MovieFFMpeg:MovieFFMpeg.obj
 0001:00019660       ??F?$_Tree_const_iterator@V?$_Tree_val@U?$_Tree_simple_types@U?$pair@$$CB_J_J@std@@@std@@@std@@@std@@QEAAAEAV01@XZ 000000018001a660 f i MovieFFMpeg:MovieFFMpeg.obj
 0001:00019660       ??F?$_Tree_const_iterator@V?$_Tree_val@U?$_Tree_simple_types@U?$pair@$$CBU?$pair@HH@std@@V?$vector@HV?$allocator@H@std@@@2@@std@@@std@@@std@@@std@@QEAAAEAV01@XZ 000000018001a660 f i MovieFFMpeg:MovieFFMpeg.obj
 0001:00019660       ??F?$_Tree_const_iterator@V?$_Tree_val@U?$_Tree_simple_types@U?$pair@$$CBU?$pair@V?$basic_string@DU?$char_traits@D@std@@V?$allocator@D@2@@std@@H@std@@V?$vector@HV?$allocator@H@std@@@2@@std@@@std@@@std@@@std@@QEAAAEAV01@XZ 000000018001a660 f i MovieFFMpeg:MovieFFMpeg.obj
 0001:00019660       ??F?$_Tree_const_iterator@V?$_Tree_val@U?$_Tree_simple_types@U?$pair@$$CBU?$pair@PEAVMovieFFMpegReader@TwkMovie@@H@std@@UContext@ContextPool@TwkMovie@@@std@@@std@@@std@@@std@@QEAAAEAV01@XZ 000000018001a660 f i MovieFFMpeg:MovieFFMpeg.obj
 0001:00019660       ??F?$_Tree_const_iterator@V?$_Tree_val@U?$_Tree_simple_types@U?$pair@$$CBW4Channels@TwkAudio@@UChannelMixState@2@@std@@@std@@@std@@@std@@QEAAAEAV01@XZ 000000018001a660 f i MovieFFMpeg:MovieFFMpeg.obj
 0001:00019660       ??F?$_Tree_const_iterator@V?$_Tree_val@U?$_Tree_simple_types@U?$pair@$$CBV?$basic_string@DU?$char_traits@D@std@@V?$allocator@D@2@@std@@V?$set@HU?$less@H@std@@V?$allocator@H@2@@2@@std@@@std@@@std@@@std@@QEAAAEAV01@XZ 000000018001a660 f i MovieFFMpeg:MovieFFMpeg.obj
 0001:00019660       ??F?$_Tree_const_iterator@V?$_Tree_val@U?$_Tree_simple_types@U?$pair@$$CBV?$basic_string@DU?$char_traits@D@std@@V?$allocator@D@2@@std@@H@std@@@std@@@std@@@std@@QEAAAEAV01@XZ 000000018001a660 f i MovieFFMpeg:MovieFFMpeg.obj
 0001:00019660       ??F?$_Tree_const_iterator@V?$_Tree_val@U?$_Tree_simple_types@U?$pair@$$CBV?$basic_string@DU?$char_traits@D@std@@V?$allocator@D@2@@std@@V12@@std@@@std@@@std@@@std@@QEAAAEAV01@XZ 000000018001a660 f i MovieFFMpeg:MovieFFMpeg.obj
 0001:00019660       ??F?$_Tree_const_iterator@V?$_Tree_val@U?$_Tree_simple_types@_J@std@@@std@@@std@@QEAAAEAV01@XZ 000000018001a660 f i MovieFFMpeg:MovieFFMpeg.obj
 0001:00019660       ??F?$_Tree_const_iterator@V?$_Tree_val@U?$_Tree_simple_types@U?$pair@$$CBV?$basic_string@DU?$char_traits@D@std@@V?$allocator@D@2@@std@@U?$pair@V?$basic_string@DU?$char_traits@D@std@@V?$allocator@D@2@@std@@I@2@@std@@@std@@@std@@@std@@QEAAAEAV01@XZ 000000018001a660 f i MovieFFMpeg:MovieFFMpeg.obj
 0001:000196f0       ??R<lambda_c5e4c0e3e667831e2c45facaa3e706ab>@@QEBAPEAUChapterInfo@TwkMovie@@PEAU12@_K@Z 000000018001a6f0 f i MovieFFMpeg:MovieFFMpeg.obj
 0001:00019780       ??R?$less@U?$pair@V?$basic_string@DU?$char_traits@D@std@@V?$allocator@D@2@@std@@H@std@@@std@@QEBA_NAEBU?$pair@V?$basic_string@DU?$char_traits@D@std@@V?$allocator@D@2@@std@@H@1@0@Z 000000018001a780 f i MovieFFMpeg:MovieFFMpeg.obj
 0001:000197d0       ??_D?$basic_istringstream@DU?$char_traits@D@std@@V?$allocator@D@2@@std@@QEAAXXZ 000000018001a7d0 f i MovieFFMpeg:MovieFFMpeg.obj
 0001:00019850       ??_D?$basic_ostringstream@DU?$char_traits@D@std@@V?$allocator@D@2@@std@@QEAAXXZ 000000018001a850 f i MovieFFMpeg:MovieFFMpeg.obj
 0001:000198d0       ??_D?$clone_impl@U?$error_info_injector@Vthread_resource_error@boost@@@exception_detail@boost@@@exception_detail@boost@@QEAAXXZ 000000018001a8d0 f i MovieFFMpeg:MovieFFMpeg.obj
 0001:00019974       ??_E?$basic_istringstream@DU?$char_traits@D@std@@V?$allocator@D@2@@std@@$4PPPPPPPM@A@EAAPEAXI@Z 000000018001a974 f i MovieFFMpeg:MovieFFMpeg.obj
 0001:00019980       ??_E?$basic_ostringstream@DU?$char_traits@D@std@@V?$allocator@D@2@@std@@$4PPPPPPPM@A@EAAPEAXI@Z 000000018001a980 f i MovieFFMpeg:MovieFFMpeg.obj
 0001:0001998c       ??_E?$clone_impl@U?$error_info_injector@Vthread_resource_error@boost@@@exception_detail@boost@@@exception_detail@boost@@$4PPPPPPPM@IA@EAAPEAXI@Z 000000018001a98c f i MovieFFMpeg:MovieFFMpeg.obj
 0001:000199a0       ??_E?$clone_impl@U?$error_info_injector@Vthread_resource_error@boost@@@exception_detail@boost@@@exception_detail@boost@@WEI@EAAPEAXI@Z 000000018001a9a0 f i MovieFFMpeg:MovieFFMpeg.obj
 0001:000199ac       ??_E?$error_info_injector@Vthread_resource_error@boost@@@exception_detail@boost@@WEI@EAAPEAXI@Z 000000018001a9ac f i MovieFFMpeg:MovieFFMpeg.obj
 0001:000199c0       ??_G?$TypedFBAttribute@M@TwkFB@@UEAAPEAXI@Z 000000018001a9c0 f i MovieFFMpeg:MovieFFMpeg.obj
 0001:000199c0       ??_E?$TypedFBAttribute@M@TwkFB@@UEAAPEAXI@Z 000000018001a9c0 f i MovieFFMpeg:MovieFFMpeg.obj
 0001:00019a00       ??_G?$TypedFBAttribute@V?$basic_string@DU?$char_traits@D@std@@V?$allocator@D@2@@std@@@TwkFB@@UEAAPEAXI@Z 000000018001aa00 f i MovieFFMpeg:MovieFFMpeg.obj
 0001:00019a00       ??_E?$TypedFBAttribute@V?$basic_string@DU?$char_traits@D@std@@V?$allocator@D@2@@std@@@TwkFB@@UEAAPEAXI@Z 000000018001aa00 f i MovieFFMpeg:MovieFFMpeg.obj
 0001:00019aa0       ??_G?$basic_istringstream@DU?$char_traits@D@std@@V?$allocator@D@2@@std@@UEAAPEAXI@Z 000000018001aaa0 f i MovieFFMpeg:MovieFFMpeg.obj
 0001:00019aa0       ??_E?$basic_istringstream@DU?$char_traits@D@std@@V?$allocator@D@2@@std@@UEAAPEAXI@Z 000000018001aaa0 f i MovieFFMpeg:MovieFFMpeg.obj
 0001:00019ae0       ??_G?$basic_ostringstream@DU?$char_traits@D@std@@V?$allocator@D@2@@std@@UEAAPEAXI@Z 000000018001aae0 f i MovieFFMpeg:MovieFFMpeg.obj
 0001:00019ae0       ??_E?$basic_ostringstream@DU?$char_traits@D@std@@V?$allocator@D@2@@std@@UEAAPEAXI@Z 000000018001aae0 f i MovieFFMpeg:MovieFFMpeg.obj
 0001:00019b20       ??_E?$clone_impl@U?$error_info_injector@Vthread_resource_error@boost@@@exception_detail@boost@@@exception_detail@boost@@UEAAPEAXI@Z 000000018001ab20 f i MovieFFMpeg:MovieFFMpeg.obj
 0001:00019b20       ??_G?$clone_impl@U?$error_info_injector@Vthread_resource_error@boost@@@exception_detail@boost@@@exception_detail@boost@@UEAAPEAXI@Z 000000018001ab20 f i MovieFFMpeg:MovieFFMpeg.obj
 0001:00019b50       ??_E?$error_info_injector@Vthread_resource_error@boost@@@exception_detail@boost@@UEAAPEAXI@Z 000000018001ab50 f i MovieFFMpeg:MovieFFMpeg.obj
 0001:00019b50       ??_G?$error_info_injector@Vthread_resource_error@boost@@@exception_detail@boost@@UEAAPEAXI@Z 000000018001ab50 f i MovieFFMpeg:MovieFFMpeg.obj
 0001:00019bd0       ??_GFBAttribute@TwkFB@@UEAAPEAXI@Z 000000018001abd0 f i MovieFFMpeg:MovieFFMpeg.obj
 0001:00019bd0       ??_EFBAttribute@TwkFB@@UEAAPEAXI@Z 000000018001abd0 f i MovieFFMpeg:MovieFFMpeg.obj
 0001:00019c10       ??_GMovieFFMpegIO@TwkMovie@@UEAAPEAXI@Z 000000018001ac10 f i MovieFFMpeg:MovieFFMpeg.obj
 0001:00019c10       ??_EMovieFFMpegIO@TwkMovie@@UEAAPEAXI@Z 000000018001ac10 f i MovieFFMpeg:MovieFFMpeg.obj
 0001:00019c50       ??_GMovieFFMpegReader@TwkMovie@@UEAAPEAXI@Z 000000018001ac50 f i MovieFFMpeg:MovieFFMpeg.obj
 0001:00019c50       ??_EMovieFFMpegReader@TwkMovie@@UEAAPEAXI@Z 000000018001ac50 f i MovieFFMpeg:MovieFFMpeg.obj
 0001:00019c80       ??_GMovieFFMpegWriter@TwkMovie@@UEAAPEAXI@Z 000000018001ac80 f i MovieFFMpeg:MovieFFMpeg.obj
 0001:00019c80       ??_EMovieFFMpegWriter@TwkMovie@@UEAAPEAXI@Z 000000018001ac80 f i MovieFFMpeg:MovieFFMpeg.obj
 0001:00019cb0       ??_Esystem_error@system@boost@@UEAAPEAXI@Z 000000018001acb0 f i MovieFFMpeg:MovieFFMpeg.obj
 0001:00019cb0       ??_Gsystem_error@system@boost@@UEAAPEAXI@Z 000000018001acb0 f i MovieFFMpeg:MovieFFMpeg.obj
 0001:00019ce0       ??_Gthread_exception@boost@@UEAAPEAXI@Z 000000018001ace0 f i MovieFFMpeg:MovieFFMpeg.obj
 0001:00019ce0       ??_Gthread_resource_error@boost@@UEAAPEAXI@Z 000000018001ace0 f i MovieFFMpeg:MovieFFMpeg.obj
 0001:00019ce0       ??_Ethread_resource_error@boost@@UEAAPEAXI@Z 000000018001ace0 f i MovieFFMpeg:MovieFFMpeg.obj
 0001:00019ce0       ??_Ethread_exception@boost@@UEAAPEAXI@Z 000000018001ace0 f i MovieFFMpeg:MovieFFMpeg.obj
 0001:00019d20       ?_Buy@?$vector@ULayerInfo@FBInfo@TwkFB@@V?$allocator@ULayerInfo@FBInfo@TwkFB@@@std@@@std@@AEAA_N_K@Z 000000018001ad20 f i MovieFFMpeg:MovieFFMpeg.obj
 0001:00019dd0       ?_Buyheadnode@?$_Tree_comp_alloc@V?$_Tset_traits@_JU?$less@_J@std@@V?$allocator@_J@2@$0A@@std@@@std@@QEAAPEAU?$_Tree_node@_JPEAX@2@XZ 000000018001add0 f i MovieFFMpeg:MovieFFMpeg.obj
 0001:00019dd0       ?_Buyheadnode@?$_Tree_comp_alloc@V?$_Tmap_traits@HHU?$less@H@std@@V?$allocator@U?$pair@$$CBHH@std@@@2@$0A@@std@@@std@@QEAAPEAU?$_Tree_node@U?$pair@$$CBHH@std@@PEAX@2@XZ 000000018001add0 f i MovieFFMpeg:MovieFFMpeg.obj
 0001:00019e10       ?_Buyheadnode@?$_Tree_comp_alloc@V?$_Tmap_traits@U?$pair@HH@std@@V?$vector@HV?$allocator@H@std@@@2@U?$less@U?$pair@HH@std@@@2@V?$allocator@U?$pair@$$CBU?$pair@HH@std@@V?$vector@HV?$allocator@H@std@@@2@@std@@@2@$0A@@std@@@std@@QEAAPEAU?$_Tree_node@U?$pair@$$CBU?$pair@HH@std@@V?$vector@HV?$allocator@H@std@@@2@@std@@PEAX@2@XZ 000000018001ae10 f i MovieFFMpeg:MovieFFMpeg.obj
 0001:00019e50       ?_Buyheadnode@?$_Tree_comp_alloc@V?$_Tmap_traits@V?$basic_string@DU?$char_traits@D@std@@V?$allocator@D@2@@std@@U?$pair@V?$basic_string@DU?$char_traits@D@std@@V?$allocator@D@2@@std@@I@2@U?$less@V?$basic_string@DU?$char_traits@D@std@@V?$allocator@D@2@@std@@@2@V?$allocator@U?$pair@$$CBV?$basic_string@DU?$char_traits@D@std@@V?$allocator@D@2@@std@@U?$pair@V?$basic_string@DU?$char_traits@D@std@@V?$allocator@D@2@@std@@I@2@@std@@@2@$0A@@std@@@std@@QEAAPEAU?$_Tree_node@U?$pair@$$CBV?$basic_string@DU?$char_traits@D@std@@V?$allocator@D@2@@std@@U?$pair@V?$basic_string@DU?$char_traits@D@std@@V?$allocator@D@2@@std@@I@2@@std@@PEAX@2@XZ 000000018001ae50 f i MovieFFMpeg:MovieFFMpeg.obj
 0001:00019e50       ?_Buyheadnode@?$_Tree_comp_alloc@V?$_Tmap_traits@U?$pair@PEAVMovieFFMpegReader@TwkMovie@@H@std@@UContext@ContextPool@TwkMovie@@U?$less@U?$pair@PEAVMovieFFMpegReader@TwkMovie@@H@std@@@2@V?$allocator@U?$pair@$$CBU?$pair@PEAVMovieFFMpegReader@TwkMovie@@H@std@@UContext@ContextPool@TwkMovie@@@std@@@2@$0A@@std@@@std@@QEAAPEAU?$_Tree_node@U?$pair@$$CBU?$pair@PEAVMovieFFMpegReader@TwkMovie@@H@std@@UContext@ContextPool@TwkMovie@@@std@@PEAX@2@XZ 000000018001ae50 f i MovieFFMpeg:MovieFFMpeg.obj
 0001:00019e90       ?_Buyheadnode@?$_Tree_comp_alloc@V?$_Tmap_traits@V?$basic_string@DU?$char_traits@D@std@@V?$allocator@D@2@@std@@V12@U?$less@V?$basic_string@DU?$char_traits@D@std@@V?$allocator@D@2@@std@@@2@V?$allocator@U?$pair@$$CBV?$basic_string@DU?$char_traits@D@std@@V?$allocator@D@2@@std@@V12@@std@@@2@$0A@@std@@@std@@QEAAPEAU?$_Tree_node@U?$pair@$$CBV?$basic_string@DU?$char_traits@D@std@@V?$allocator@D@2@@std@@V12@@std@@PEAX@2@XZ 000000018001ae90 f i MovieFFMpeg:MovieFFMpeg.obj
 0001:00019e90       ?_Buyheadnode@?$_Tree_comp_alloc@V?$_Tmap_traits@U?$pair@V?$basic_string@DU?$char_traits@D@std@@V?$allocator@D@2@@std@@H@std@@V?$vector@HV?$allocator@H@std@@@2@U?$less@U?$pair@V?$basic_string@DU?$char_traits@D@std@@V?$allocator@D@2@@std@@H@std@@@2@V?$allocator@U?$pair@$$CBU?$pair@V?$basic_string@DU?$char_traits@D@std@@V?$allocator@D@2@@std@@H@std@@V?$vector@HV?$allocator@H@std@@@2@@std@@@2@$0A@@std@@@std@@QEAAPEAU?$_Tree_node@U?$pair@$$CBU?$pair@V?$basic_string@DU?$char_traits@D@std@@V?$allocator@D@2@@std@@H@std@@V?$vector@HV?$allocator@H@std@@@2@@std@@PEAX@2@XZ 000000018001ae90 f i MovieFFMpeg:MovieFFMpeg.obj
 0001:00019ed0       ?_Buyheadnode@?$_Tree_comp_alloc@V?$_Tmap_traits@V?$basic_string@DU?$char_traits@D@std@@V?$allocator@D@2@@std@@HU?$less@V?$basic_string@DU?$char_traits@D@std@@V?$allocator@D@2@@std@@@2@V?$allocator@U?$pair@$$CBV?$basic_string@DU?$char_traits@D@std@@V?$allocator@D@2@@std@@H@std@@@2@$0A@@std@@@std@@QEAAPEAU?$_Tree_node@U?$pair@$$CBV?$basic_string@DU?$char_traits@D@std@@V?$allocator@D@2@@std@@H@std@@PEAX@2@XZ 000000018001aed0 f i MovieFFMpeg:MovieFFMpeg.obj
 0001:00019f10       ?_Buyheadnode@?$_Tree_comp_alloc@V?$_Tmap_traits@V?$basic_string@DU?$char_traits@D@std@@V?$allocator@D@2@@std@@V?$set@HU?$less@H@std@@V?$allocator@H@2@@2@U?$less@V?$basic_string@DU?$char_traits@D@std@@V?$allocator@D@2@@std@@@2@V?$allocator@U?$pair@$$CBV?$basic_string@DU?$char_traits@D@std@@V?$allocator@D@2@@std@@V?$set@HU?$less@H@std@@V?$allocator@H@2@@2@@std@@@2@$0A@@std@@@std@@QEAAPEAU?$_Tree_node@U?$pair@$$CBV?$basic_string@DU?$char_traits@D@std@@V?$allocator@D@2@@std@@V?$set@HU?$less@H@std@@V?$allocator@H@2@@2@@std@@PEAX@2@XZ 000000018001af10 f i MovieFFMpeg:MovieFFMpeg.obj
 0001:00019f50       ?_Buyheadnode@?$_Tree_comp_alloc@V?$_Tmap_traits@W4Channels@TwkAudio@@UChannelMixState@2@U?$less@W4Channels@TwkAudio@@@std@@V?$allocator@U?$pair@$$CBW4Channels@TwkAudio@@UChannelMixState@2@@std@@@5@$0A@@std@@@std@@QEAAPEAU?$_Tree_node@U?$pair@$$CBW4Channels@TwkAudio@@UChannelMixState@2@@std@@PEAX@2@XZ 000000018001af50 f i MovieFFMpeg:MovieFFMpeg.obj
 0001:00019f90       ?_Buyheadnode@?$_Tree_comp_alloc@V?$_Tmap_traits@_J_JU?$less@_J@std@@V?$allocator@U?$pair@$$CB_J_J@std@@@2@$0A@@std@@@std@@QEAAPEAU?$_Tree_node@U?$pair@$$CB_J_J@std@@PEAX@2@XZ 000000018001af90 f i MovieFFMpeg:MovieFFMpeg.obj
 0001:00019fd0       ?_Buyheadnode@?$_Tree_comp_alloc@V?$_Tset_traits@HU?$less@H@std@@V?$allocator@H@2@$0A@@std@@@std@@QEAAPEAU?$_Tree_node@HPEAX@2@XZ 000000018001afd0 f i MovieFFMpeg:MovieFFMpeg.obj
 0001:00019fd0       ?_Buyheadnode@?$_Tree_comp_alloc@V?$_Tset_traits@DU?$less@D@std@@V?$allocator@D@2@$0A@@std@@@std@@QEAAPEAU?$_Tree_node@DPEAX@2@XZ 000000018001afd0 f i MovieFFMpeg:MovieFFMpeg.obj
 0001:0001a010       ?_Buynode0@?$_List_alloc@U?$_List_base_types@PEAUContext@ContextPool@TwkMovie@@V?$allocator@PEAUContext@ContextPool@TwkMovie@@@std@@@std@@@std@@QEAAPEAU?$_List_node@PEAUContext@ContextPool@TwkMovie@@PEAX@2@PEAU32@0@Z 000000018001b010 f i MovieFFMpeg:MovieFFMpeg.obj
 0001:0001a060       ?_Buynode0@?$_Tree_comp_alloc@V?$_Tmap_traits@HHU?$less@H@std@@V?$allocator@U?$pair@$$CBHH@std@@@2@$0A@@std@@@std@@QEAAPEAU?$_Tree_node@U?$pair@$$CBHH@std@@PEAX@2@XZ 000000018001b060 f i MovieFFMpeg:MovieFFMpeg.obj
 0001:0001a060       ?_Buynode0@?$_Tree_comp_alloc@V?$_Tset_traits@_JU?$less@_J@std@@V?$allocator@_J@2@$0A@@std@@@std@@QEAAPEAU?$_Tree_node@_JPEAX@2@XZ 000000018001b060 f i MovieFFMpeg:MovieFFMpeg.obj
 0001:0001a0a0       ?_Buynode0@?$_Tree_comp_alloc@V?$_Tmap_traits@U?$pair@HH@std@@V?$vector@HV?$allocator@H@std@@@2@U?$less@U?$pair@HH@std@@@2@V?$allocator@U?$pair@$$CBU?$pair@HH@std@@V?$vector@HV?$allocator@H@std@@@2@@std@@@2@$0A@@std@@@std@@QEAAPEAU?$_Tree_node@U?$pair@$$CBU?$pair@HH@std@@V?$vector@HV?$allocator@H@std@@@2@@std@@PEAX@2@XZ 000000018001b0a0 f i MovieFFMpeg:MovieFFMpeg.obj
 0001:0001a0e0       ?_Buynode0@?$_Tree_comp_alloc@V?$_Tmap_traits@V?$basic_string@DU?$char_traits@D@std@@V?$allocator@D@2@@std@@U?$pair@V?$basic_string@DU?$char_traits@D@std@@V?$allocator@D@2@@std@@I@2@U?$less@V?$basic_string@DU?$char_traits@D@std@@V?$allocator@D@2@@std@@@2@V?$allocator@U?$pair@$$CBV?$basic_string@DU?$char_traits@D@std@@V?$allocator@D@2@@std@@U?$pair@V?$basic_string@DU?$char_traits@D@std@@V?$allocator@D@2@@std@@I@2@@std@@@2@$0A@@std@@@std@@QEAAPEAU?$_Tree_node@U?$pair@$$CBV?$basic_string@DU?$char_traits@D@std@@V?$allocator@D@2@@std@@U?$pair@V?$basic_string@DU?$char_traits@D@std@@V?$allocator@D@2@@std@@I@2@@std@@PEAX@2@XZ 000000018001b0e0 f i MovieFFMpeg:MovieFFMpeg.obj
 0001:0001a0e0       ?_Buynode0@?$_Tree_comp_alloc@V?$_Tmap_traits@U?$pair@PEAVMovieFFMpegReader@TwkMovie@@H@std@@UContext@ContextPool@TwkMovie@@U?$less@U?$pair@PEAVMovieFFMpegReader@TwkMovie@@H@std@@@2@V?$allocator@U?$pair@$$CBU?$pair@PEAVMovieFFMpegReader@TwkMovie@@H@std@@UContext@ContextPool@TwkMovie@@@std@@@2@$0A@@std@@@std@@QEAAPEAU?$_Tree_node@U?$pair@$$CBU?$pair@PEAVMovieFFMpegReader@TwkMovie@@H@std@@UContext@ContextPool@TwkMovie@@@std@@PEAX@2@XZ 000000018001b0e0 f i MovieFFMpeg:MovieFFMpeg.obj
 0001:0001a120       ?_Buynode0@?$_Tree_comp_alloc@V?$_Tmap_traits@U?$pair@V?$basic_string@DU?$char_traits@D@std@@V?$allocator@D@2@@std@@H@std@@V?$vector@HV?$allocator@H@std@@@2@U?$less@U?$pair@V?$basic_string@DU?$char_traits@D@std@@V?$allocator@D@2@@std@@H@std@@@2@V?$allocator@U?$pair@$$CBU?$pair@V?$basic_string@DU?$char_traits@D@std@@V?$allocator@D@2@@std@@H@std@@V?$vector@HV?$allocator@H@std@@@2@@std@@@2@$0A@@std@@@std@@QEAAPEAU?$_Tree_node@U?$pair@$$CBU?$pair@V?$basic_string@DU?$char_traits@D@std@@V?$allocator@D@2@@std@@H@std@@V?$vector@HV?$allocator@H@std@@@2@@std@@PEAX@2@XZ 000000018001b120 f i MovieFFMpeg:MovieFFMpeg.obj
 0001:0001a120       ?_Buynode0@?$_Tree_comp_alloc@V?$_Tmap_traits@V?$basic_string@DU?$char_traits@D@std@@V?$allocator@D@2@@std@@V12@U?$less@V?$basic_string@DU?$char_traits@D@std@@V?$allocator@D@2@@std@@@2@V?$allocator@U?$pair@$$CBV?$basic_string@DU?$char_traits@D@std@@V?$allocator@D@2@@std@@V12@@std@@@2@$0A@@std@@@std@@QEAAPEAU?$_Tree_node@U?$pair@$$CBV?$basic_string@DU?$char_traits@D@std@@V?$allocator@D@2@@std@@V12@@std@@PEAX@2@XZ 000000018001b120 f i MovieFFMpeg:MovieFFMpeg.obj
 0001:0001a160       ?_Buynode0@?$_Tree_comp_alloc@V?$_Tmap_traits@V?$basic_string@DU?$char_traits@D@std@@V?$allocator@D@2@@std@@HU?$less@V?$basic_string@DU?$char_traits@D@std@@V?$allocator@D@2@@std@@@2@V?$allocator@U?$pair@$$CBV?$basic_string@DU?$char_traits@D@std@@V?$allocator@D@2@@std@@H@std@@@2@$0A@@std@@@std@@QEAAPEAU?$_Tree_node@U?$pair@$$CBV?$basic_string@DU?$char_traits@D@std@@V?$allocator@D@2@@std@@H@std@@PEAX@2@XZ 000000018001b160 f i MovieFFMpeg:MovieFFMpeg.obj
 0001:0001a1a0       ?_Buynode0@?$_Tree_comp_alloc@V?$_Tmap_traits@V?$basic_string@DU?$char_traits@D@std@@V?$allocator@D@2@@std@@V?$set@HU?$less@H@std@@V?$allocator@H@2@@2@U?$less@V?$basic_string@DU?$char_traits@D@std@@V?$allocator@D@2@@std@@@2@V?$allocator@U?$pair@$$CBV?$basic_string@DU?$char_traits@D@std@@V?$allocator@D@2@@std@@V?$set@HU?$less@H@std@@V?$allocator@H@2@@2@@std@@@2@$0A@@std@@@std@@QEAAPEAU?$_Tree_node@U?$pair@$$CBV?$basic_string@DU?$char_traits@D@std@@V?$allocator@D@2@@std@@V?$set@HU?$less@H@std@@V?$allocator@H@2@@2@@std@@PEAX@2@XZ 000000018001b1a0 f i MovieFFMpeg:MovieFFMpeg.obj
 0001:0001a1e0       ?_Buynode0@?$_Tree_comp_alloc@V?$_Tmap_traits@W4Channels@TwkAudio@@UChannelMixState@2@U?$less@W4Channels@TwkAudio@@@std@@V?$allocator@U?$pair@$$CBW4Channels@TwkAudio@@UChannelMixState@2@@std@@@5@$0A@@std@@@std@@QEAAPEAU?$_Tree_node@U?$pair@$$CBW4Channels@TwkAudio@@UChannelMixState@2@@std@@PEAX@2@XZ 000000018001b1e0 f i MovieFFMpeg:MovieFFMpeg.obj
 0001:0001a220       ?_Buynode0@?$_Tree_comp_alloc@V?$_Tmap_traits@_J_JU?$less@_J@std@@V?$allocator@U?$pair@$$CB_J_J@std@@@2@$0A@@std@@@std@@QEAAPEAU?$_Tree_node@U?$pair@$$CB_J_J@std@@PEAX@2@XZ 000000018001b220 f i MovieFFMpeg:MovieFFMpeg.obj
 0001:0001a260       ?_Buynode0@?$_Tree_comp_alloc@V?$_Tset_traits@HU?$less@H@std@@V?$allocator@H@2@$0A@@std@@@std@@QEAAPEAU?$_Tree_node@HPEAX@2@XZ 000000018001b260 f i MovieFFMpeg:MovieFFMpeg.obj
 0001:0001a260       ?_Buynode0@?$_Tree_comp_alloc@V?$_Tset_traits@DU?$less@D@std@@V?$allocator@D@2@$0A@@std@@@std@@QEAAPEAU?$_Tree_node@DPEAX@2@XZ 000000018001b260 f i MovieFFMpeg:MovieFFMpeg.obj
 0001:0001a2a0       ?_Change_array@?$vector@PEAVVideoTrack@TwkMovie@@V?$allocator@PEAVVideoTrack@TwkMovie@@@std@@@std@@AEAAXQEAPEAUVideoTrack@TwkMovie@@_K1@Z 000000018001b2a0 f i MovieFFMpeg:MovieFFMpeg.obj
 0001:0001a2a0       ?_Change_array@?$vector@PEAVAudioTrack@TwkMovie@@V?$allocator@PEAVAudioTrack@TwkMovie@@@std@@@std@@AEAAXQEAPEAUAudioTrack@TwkMovie@@_K1@Z 000000018001b2a0 f i MovieFFMpeg:MovieFFMpeg.obj
 0001:0001a330       ?_Change_array@?$vector@U?$pair@V?$basic_string@DU?$char_traits@D@std@@V?$allocator@D@2@@std@@V12@@std@@V?$allocator@U?$pair@V?$basic_string@DU?$char_traits@D@std@@V?$allocator@D@2@@std@@V12@@std@@@2@@std@@AEAAXQEAU?$pair@V?$basic_string@DU?$char_traits@D@std@@V?$allocator@D@2@@std@@V12@@2@_K1@Z 000000018001b330 f i MovieFFMpeg:MovieFFMpeg.obj
 0001:0001a3f0       ?_Change_array@?$vector@UParameter@MovieIO@TwkMovie@@V?$allocator@UParameter@MovieIO@TwkMovie@@@std@@@std@@AEAAXQEAUParameter@MovieIO@TwkMovie@@_K1@Z 000000018001b3f0 f i MovieFFMpeg:MovieFFMpeg.obj
 0001:0001a4d0       ?_Change_array@?$vector@V?$basic_string@DU?$char_traits@D@std@@V?$allocator@D@2@@std@@V?$allocator@V?$basic_string@DU?$char_traits@D@std@@V?$allocator@D@2@@std@@@2@@std@@AEAAXQEAV?$basic_string@DU?$char_traits@D@std@@V?$allocator@D@2@@2@_K1@Z 000000018001b4d0 f i MovieFFMpeg:MovieFFMpeg.obj
 0001:0001a570       ?_Destroy@?$vector@U?$pair@V?$basic_string@DU?$char_traits@D@std@@V?$allocator@D@2@@std@@V12@@std@@V?$allocator@U?$pair@V?$basic_string@DU?$char_traits@D@std@@V?$allocator@D@2@@std@@V12@@std@@@2@@std@@AEAAXPEAU?$pair@V?$basic_string@DU?$char_traits@D@std@@V?$allocator@D@2@@std@@V12@@2@0@Z 000000018001b570 f i MovieFFMpeg:MovieFFMpeg.obj
 0001:0001a5b0       ?_Destroy@?$vector@UChannelInfo@FBInfo@TwkFB@@V?$allocator@UChannelInfo@FBInfo@TwkFB@@@std@@@std@@AEAAXPEAUChannelInfo@FBInfo@TwkFB@@0@Z 000000018001b5b0 f i MovieFFMpeg:MovieFFMpeg.obj
 0001:0001a5d0       ?_Destroy@?$vector@UChapterInfo@TwkMovie@@V?$allocator@UChapterInfo@TwkMovie@@@std@@@std@@AEAAXPEAUChapterInfo@TwkMovie@@0@Z 000000018001b5d0 f i MovieFFMpeg:MovieFFMpeg.obj
 0001:0001a610       ?_Destroy@?$vector@UParameter@MovieIO@TwkMovie@@V?$allocator@UParameter@MovieIO@TwkMovie@@@std@@@std@@AEAAXPEAUParameter@MovieIO@TwkMovie@@0@Z 000000018001b610 f i MovieFFMpeg:MovieFFMpeg.obj
 0001:0001a650       ?_Destroy@?$vector@UViewInfo@FBInfo@TwkFB@@V?$allocator@UViewInfo@FBInfo@TwkFB@@@std@@@std@@AEAAXPEAUViewInfo@FBInfo@TwkFB@@0@Z 000000018001b650 f i MovieFFMpeg:MovieFFMpeg.obj
 0001:0001a690       ?_Destroy_if_node@?$_Tree@V?$_Tmap_traits@U?$pair@HH@std@@V?$vector@HV?$allocator@H@std@@@2@U?$less@U?$pair@HH@std@@@2@V?$allocator@U?$pair@$$CBU?$pair@HH@std@@V?$vector@HV?$allocator@H@std@@@2@@std@@@2@$0A@@std@@@std@@IEAAXPEAU?$_Tree_node@U?$pair@$$CBU?$pair@HH@std@@V?$vector@HV?$allocator@H@std@@@2@@std@@PEAX@2@@Z 000000018001b690 f i MovieFFMpeg:MovieFFMpeg.obj
 0001:0001a700       ?_Destroy_if_node@?$_Tree@V?$_Tmap_traits@U?$pair@PEAVMovieFFMpegReader@TwkMovie@@H@std@@UContext@ContextPool@TwkMovie@@U?$less@U?$pair@PEAVMovieFFMpegReader@TwkMovie@@H@std@@@2@V?$allocator@U?$pair@$$CBU?$pair@PEAVMovieFFMpegReader@TwkMovie@@H@std@@UContext@ContextPool@TwkMovie@@@std@@@2@$0A@@std@@@std@@IEAAXPEAU?$_Tree_node@U?$pair@$$CBU?$pair@PEAVMovieFFMpegReader@TwkMovie@@H@std@@UContext@ContextPool@TwkMovie@@@std@@PEAX@2@@Z 000000018001b700 f i MovieFFMpeg:MovieFFMpeg.obj
 0001:0001a700       ?_Freenode0@?$_Tree_comp_alloc@V?$_Tmap_traits@V?$basic_string@DU?$char_traits@D@std@@V?$allocator@D@2@@std@@U?$pair@V?$basic_string@DU?$char_traits@D@std@@V?$allocator@D@2@@std@@I@2@U?$less@V?$basic_string@DU?$char_traits@D@std@@V?$allocator@D@2@@std@@@2@V?$allocator@U?$pair@$$CBV?$basic_string@DU?$char_traits@D@std@@V?$allocator@D@2@@std@@U?$pair@V?$basic_string@DU?$char_traits@D@std@@V?$allocator@D@2@@std@@I@2@@std@@@2@$0A@@std@@@std@@QEAAXPEAU?$_Tree_node@U?$pair@$$CBV?$basic_string@DU?$char_traits@D@std@@V?$allocator@D@2@@std@@U?$pair@V?$basic_string@DU?$char_traits@D@std@@V?$allocator@D@2@@std@@I@2@@std@@PEAX@2@@Z 000000018001b700 f i MovieFFMpeg:MovieFFMpeg.obj
 0001:0001a700       ?_Freenode0@?$_Tree_comp_alloc@V?$_Tmap_traits@U?$pair@PEAVMovieFFMpegReader@TwkMovie@@H@std@@UContext@ContextPool@TwkMovie@@U?$less@U?$pair@PEAVMovieFFMpegReader@TwkMovie@@H@std@@@2@V?$allocator@U?$pair@$$CBU?$pair@PEAVMovieFFMpegReader@TwkMovie@@H@std@@UContext@ContextPool@TwkMovie@@@std@@@2@$0A@@std@@@std@@QEAAXPEAU?$_Tree_node@U?$pair@$$CBU?$pair@PEAVMovieFFMpegReader@TwkMovie@@H@std@@UContext@ContextPool@TwkMovie@@@std@@PEAX@2@@Z 000000018001b700 f i MovieFFMpeg:MovieFFMpeg.obj
 0001:0001a710       ?_Destroy_if_node@?$_Tree@V?$_Tmap_traits@U?$pair@V?$basic_string@DU?$char_traits@D@std@@V?$allocator@D@2@@std@@H@std@@V?$vector@HV?$allocator@H@std@@@2@U?$less@U?$pair@V?$basic_string@DU?$char_traits@D@std@@V?$allocator@D@2@@std@@H@std@@@2@V?$allocator@U?$pair@$$CBU?$pair@V?$basic_string@DU?$char_traits@D@std@@V?$allocator@D@2@@std@@H@std@@V?$vector@HV?$allocator@H@std@@@2@@std@@@2@$0A@@std@@@std@@IEAAXPEAU?$_Tree_node@U?$pair@$$CBU?$pair@V?$basic_string@DU?$char_traits@D@std@@V?$allocator@D@2@@std@@H@std@@V?$vector@HV?$allocator@H@std@@@2@@std@@PEAX@2@@Z 000000018001b710 f i MovieFFMpeg:MovieFFMpeg.obj
 0001:0001a740       ?_Destroy_if_node@?$_Tree@V?$_Tmap_traits@V?$basic_string@DU?$char_traits@D@std@@V?$allocator@D@2@@std@@HU?$less@V?$basic_string@DU?$char_traits@D@std@@V?$allocator@D@2@@std@@@2@V?$allocator@U?$pair@$$CBV?$basic_string@DU?$char_traits@D@std@@V?$allocator@D@2@@std@@H@std@@@2@$0A@@std@@@std@@IEAAXPEAU?$_Tree_node@U?$pair@$$CBV?$basic_string@DU?$char_traits@D@std@@V?$allocator@D@2@@std@@H@std@@PEAX@2@@Z 000000018001b740 f i MovieFFMpeg:MovieFFMpeg.obj
 0001:0001a7b0       ?_Destroy_if_node@?$_Tree@V?$_Tmap_traits@V?$basic_string@DU?$char_traits@D@std@@V?$allocator@D@2@@std@@U?$pair@V?$basic_string@DU?$char_traits@D@std@@V?$allocator@D@2@@std@@I@2@U?$less@V?$basic_string@DU?$char_traits@D@std@@V?$allocator@D@2@@std@@@2@V?$allocator@U?$pair@$$CBV?$basic_string@DU?$char_traits@D@std@@V?$allocator@D@2@@std@@U?$pair@V?$basic_string@DU?$char_traits@D@std@@V?$allocator@D@2@@std@@I@2@@std@@@2@$0A@@std@@@std@@IEAAXPEAU?$_Tree_node@U?$pair@$$CBV?$basic_string@DU?$char_traits@D@std@@V?$allocator@D@2@@std@@U?$pair@V?$basic_string@DU?$char_traits@D@std@@V?$allocator@D@2@@std@@I@2@@std@@PEAX@2@@Z 000000018001b7b0 f i MovieFFMpeg:MovieFFMpeg.obj
 0001:0001a7e0       ?_Destroy_if_node@?$_Tree@V?$_Tmap_traits@V?$basic_string@DU?$char_traits@D@std@@V?$allocator@D@2@@std@@V12@U?$less@V?$basic_string@DU?$char_traits@D@std@@V?$allocator@D@2@@std@@@2@V?$allocator@U?$pair@$$CBV?$basic_string@DU?$char_traits@D@std@@V?$allocator@D@2@@std@@V12@@std@@@2@$0A@@std@@@std@@IEAAXPEAU?$_Tree_node@U?$pair@$$CBV?$basic_string@DU?$char_traits@D@std@@V?$allocator@D@2@@std@@V12@@std@@PEAX@2@@Z 000000018001b7e0 f i MovieFFMpeg:MovieFFMpeg.obj
 0001:0001a810       ?_Destroy_if_node@?$_Tree@V?$_Tmap_traits@V?$basic_string@DU?$char_traits@D@std@@V?$allocator@D@2@@std@@V?$set@HU?$less@H@std@@V?$allocator@H@2@@2@U?$less@V?$basic_string@DU?$char_traits@D@std@@V?$allocator@D@2@@std@@@2@V?$allocator@U?$pair@$$CBV?$basic_string@DU?$char_traits@D@std@@V?$allocator@D@2@@std@@V?$set@HU?$less@H@std@@V?$allocator@H@2@@2@@std@@@2@$0A@@std@@@std@@IEAAXPEAU?$_Tree_node@U?$pair@$$CBV?$basic_string@DU?$char_traits@D@std@@V?$allocator@D@2@@std@@V?$set@HU?$less@H@std@@V?$allocator@H@2@@2@@std@@PEAX@2@@Z 000000018001b810 f i MovieFFMpeg:MovieFFMpeg.obj
 0001:0001a840       ?_Destroy_if_node@?$_Tree@V?$_Tmap_traits@W4Channels@TwkAudio@@UChannelMixState@2@U?$less@W4Channels@TwkAudio@@@std@@V?$allocator@U?$pair@$$CBW4Channels@TwkAudio@@UChannelMixState@2@@std@@@5@$0A@@std@@@std@@IEAAXPEAU?$_Tree_node@U?$pair@$$CBW4Channels@TwkAudio@@UChannelMixState@2@@std@@PEAX@2@@Z 000000018001b840 f i MovieFFMpeg:MovieFFMpeg.obj
 0001:0001a870       ?_Freenode0@?$_Tree_comp_alloc@V?$_Tmap_traits@_J_JU?$less@_J@std@@V?$allocator@U?$pair@$$CB_J_J@std@@@2@$0A@@std@@@std@@QEAAXPEAU?$_Tree_node@U?$pair@$$CB_J_J@std@@PEAX@2@@Z 000000018001b870 f i MovieFFMpeg:MovieFFMpeg.obj
 0001:0001a870       ?_Destroy_if_node@?$_Tree@V?$_Tmap_traits@_J_JU?$less@_J@std@@V?$allocator@U?$pair@$$CB_J_J@std@@@2@$0A@@std@@@std@@IEAAXPEAU?$_Tree_node@U?$pair@$$CB_J_J@std@@PEAX@2@@Z 000000018001b870 f i MovieFFMpeg:MovieFFMpeg.obj
 0001:0001a880       ?_Erase@?$_Tree@V?$_Tset_traits@_JU?$less@_J@std@@V?$allocator@_J@2@$0A@@std@@@std@@IEAAXPEAU?$_Tree_node@_JPEAX@2@@Z 000000018001b880 f i MovieFFMpeg:MovieFFMpeg.obj
 0001:0001a880       ?_Erase@?$_Tree@V?$_Tmap_traits@HHU?$less@H@std@@V?$allocator@U?$pair@$$CBHH@std@@@2@$0A@@std@@@std@@IEAAXPEAU?$_Tree_node@U?$pair@$$CBHH@std@@PEAX@2@@Z 000000018001b880 f i MovieFFMpeg:MovieFFMpeg.obj
 0001:0001a8e0       ?_Erase@?$_Tree@V?$_Tmap_traits@U?$pair@HH@std@@V?$vector@HV?$allocator@H@std@@@2@U?$less@U?$pair@HH@std@@@2@V?$allocator@U?$pair@$$CBU?$pair@HH@std@@V?$vector@HV?$allocator@H@std@@@2@@std@@@2@$0A@@std@@@std@@IEAAXPEAU?$_Tree_node@U?$pair@$$CBU?$pair@HH@std@@V?$vector@HV?$allocator@H@std@@@2@@std@@PEAX@2@@Z 000000018001b8e0 f i MovieFFMpeg:MovieFFMpeg.obj
 0001:0001a9a0       ?_Erase@?$_Tree@V?$_Tmap_traits@U?$pair@PEAVMovieFFMpegReader@TwkMovie@@H@std@@UContext@ContextPool@TwkMovie@@U?$less@U?$pair@PEAVMovieFFMpegReader@TwkMovie@@H@std@@@2@V?$allocator@U?$pair@$$CBU?$pair@PEAVMovieFFMpegReader@TwkMovie@@H@std@@UContext@ContextPool@TwkMovie@@@std@@@2@$0A@@std@@@std@@IEAAXPEAU?$_Tree_node@U?$pair@$$CBU?$pair@PEAVMovieFFMpegReader@TwkMovie@@H@std@@UContext@ContextPool@TwkMovie@@@std@@PEAX@2@@Z 000000018001b9a0 f i MovieFFMpeg:MovieFFMpeg.obj
 0001:0001aa00       ?_Erase@?$_Tree@V?$_Tmap_traits@U?$pair@V?$basic_string@DU?$char_traits@D@std@@V?$allocator@D@2@@std@@H@std@@V?$vector@HV?$allocator@H@std@@@2@U?$less@U?$pair@V?$basic_string@DU?$char_traits@D@std@@V?$allocator@D@2@@std@@H@std@@@2@V?$allocator@U?$pair@$$CBU?$pair@V?$basic_string@DU?$char_traits@D@std@@V?$allocator@D@2@@std@@H@std@@V?$vector@HV?$allocator@H@std@@@2@@std@@@2@$0A@@std@@@std@@IEAAXPEAU?$_Tree_node@U?$pair@$$CBU?$pair@V?$basic_string@DU?$char_traits@D@std@@V?$allocator@D@2@@std@@H@std@@V?$vector@HV?$allocator@H@std@@@2@@std@@PEAX@2@@Z 000000018001ba00 f i MovieFFMpeg:MovieFFMpeg.obj
 0001:0001aa60       ?_Erase@?$_Tree@V?$_Tmap_traits@V?$basic_string@DU?$char_traits@D@std@@V?$allocator@D@2@@std@@HU?$less@V?$basic_string@DU?$char_traits@D@std@@V?$allocator@D@2@@std@@@2@V?$allocator@U?$pair@$$CBV?$basic_string@DU?$char_traits@D@std@@V?$allocator@D@2@@std@@H@std@@@2@$0A@@std@@@std@@IEAAXPEAU?$_Tree_node@U?$pair@$$CBV?$basic_string@DU?$char_traits@D@std@@V?$allocator@D@2@@std@@H@std@@PEAX@2@@Z 000000018001ba60 f i MovieFFMpeg:MovieFFMpeg.obj
 0001:0001ab20       ?_Erase@?$_Tree@V?$_Tmap_traits@V?$basic_string@DU?$char_traits@D@std@@V?$allocator@D@2@@std@@U?$pair@V?$basic_string@DU?$char_traits@D@std@@V?$allocator@D@2@@std@@I@2@U?$less@V?$basic_string@DU?$char_traits@D@std@@V?$allocator@D@2@@std@@@2@V?$allocator@U?$pair@$$CBV?$basic_string@DU?$char_traits@D@std@@V?$allocator@D@2@@std@@U?$pair@V?$basic_string@DU?$char_traits@D@std@@V?$allocator@D@2@@std@@I@2@@std@@@2@$0A@@std@@@std@@IEAAXPEAU?$_Tree_node@U?$pair@$$CBV?$basic_string@DU?$char_traits@D@std@@V?$allocator@D@2@@std@@U?$pair@V?$basic_string@DU?$char_traits@D@std@@V?$allocator@D@2@@std@@I@2@@std@@PEAX@2@@Z 000000018001bb20 f i MovieFFMpeg:MovieFFMpeg.obj
 0001:0001ab80       ?_Erase@?$_Tree@V?$_Tmap_traits@V?$basic_string@DU?$char_traits@D@std@@V?$allocator@D@2@@std@@V12@U?$less@V?$basic_string@DU?$char_traits@D@std@@V?$allocator@D@2@@std@@@2@V?$allocator@U?$pair@$$CBV?$basic_string@DU?$char_traits@D@std@@V?$allocator@D@2@@std@@V12@@std@@@2@$0A@@std@@@std@@IEAAXPEAU?$_Tree_node@U?$pair@$$CBV?$basic_string@DU?$char_traits@D@std@@V?$allocator@D@2@@std@@V12@@std@@PEAX@2@@Z 000000018001bb80 f i MovieFFMpeg:MovieFFMpeg.obj
 0001:0001abe0       ?_Erase@?$_Tree@V?$_Tmap_traits@V?$basic_string@DU?$char_traits@D@std@@V?$allocator@D@2@@std@@V?$set@HU?$less@H@std@@V?$allocator@H@2@@2@U?$less@V?$basic_string@DU?$char_traits@D@std@@V?$allocator@D@2@@std@@@2@V?$allocator@U?$pair@$$CBV?$basic_string@DU?$char_traits@D@std@@V?$allocator@D@2@@std@@V?$set@HU?$less@H@std@@V?$allocator@H@2@@2@@std@@@2@$0A@@std@@@std@@IEAAXPEAU?$_Tree_node@U?$pair@$$CBV?$basic_string@DU?$char_traits@D@std@@V?$allocator@D@2@@std@@V?$set@HU?$less@H@std@@V?$allocator@H@2@@2@@std@@PEAX@2@@Z 000000018001bbe0 f i MovieFFMpeg:MovieFFMpeg.obj
 0001:0001ac40       ?_Erase@?$_Tree@V?$_Tmap_traits@W4Channels@TwkAudio@@UChannelMixState@2@U?$less@W4Channels@TwkAudio@@@std@@V?$allocator@U?$pair@$$CBW4Channels@TwkAudio@@UChannelMixState@2@@std@@@5@$0A@@std@@@std@@IEAAXPEAU?$_Tree_node@U?$pair@$$CBW4Channels@TwkAudio@@UChannelMixState@2@@std@@PEAX@2@@Z 000000018001bc40 f i MovieFFMpeg:MovieFFMpeg.obj
 0001:0001aca0       ?_Erase@?$_Tree@V?$_Tmap_traits@_J_JU?$less@_J@std@@V?$allocator@U?$pair@$$CB_J_J@std@@@2@$0A@@std@@@std@@IEAAXPEAU?$_Tree_node@U?$pair@$$CB_J_J@std@@PEAX@2@@Z 000000018001bca0 f i MovieFFMpeg:MovieFFMpeg.obj
 0001:0001ad00       ?_Erase@?$_Tree@V?$_Tset_traits@HU?$less@H@std@@V?$allocator@H@2@$0A@@std@@@std@@IEAAXPEAU?$_Tree_node@HPEAX@2@@Z 000000018001bd00 f i MovieFFMpeg:MovieFFMpeg.obj
 0001:0001ad00       ?_Erase@?$_Tree@V?$_Tset_traits@DU?$less@D@std@@V?$allocator@D@2@$0A@@std@@@std@@IEAAXPEAU?$_Tree_node@DPEAX@2@@Z 000000018001bd00 f i MovieFFMpeg:MovieFFMpeg.obj
 0001:0001ad60       ?_Extract@?$_Tree_val@U?$_Tree_simple_types@U?$pair@$$CBV?$basic_string@DU?$char_traits@D@std@@V?$allocator@D@2@@std@@U?$pair@V?$basic_string@DU?$char_traits@D@std@@V?$allocator@D@2@@std@@I@2@@std@@@std@@@std@@QEAAPEAU?$_Tree_node@U?$pair@$$CBV?$basic_string@DU?$char_traits@D@std@@V?$allocator@D@2@@std@@U?$pair@V?$basic_string@DU?$char_traits@D@std@@V?$allocator@D@2@@std@@I@2@@std@@PEAX@2@V?$_Tree_const_iterator@V?$_Tree_val@U?$_Tree_simple_types@U?$pair@$$CBV?$basic_string@DU?$char_traits@D@std@@V?$allocator@D@2@@std@@U?$pair@V?$basic_string@DU?$char_traits@D@std@@V?$allocator@D@2@@std@@I@2@@std@@@std@@@std@@@2@@Z 000000018001bd60 f i MovieFFMpeg:MovieFFMpeg.obj
 0001:0001ad60       ?_Extract@?$_Tree_val@U?$_Tree_simple_types@U?$pair@$$CBV?$basic_string@DU?$char_traits@D@std@@V?$allocator@D@2@@std@@H@std@@@std@@@std@@QEAAPEAU?$_Tree_node@U?$pair@$$CBV?$basic_string@DU?$char_traits@D@std@@V?$allocator@D@2@@std@@H@std@@PEAX@2@V?$_Tree_const_iterator@V?$_Tree_val@U?$_Tree_simple_types@U?$pair@$$CBV?$basic_string@DU?$char_traits@D@std@@V?$allocator@D@2@@std@@H@std@@@std@@@std@@@2@@Z 000000018001bd60 f i MovieFFMpeg:MovieFFMpeg.obj
 0001:0001ad60       ?_Extract@?$_Tree_val@U?$_Tree_simple_types@U?$pair@$$CBU?$pair@HH@std@@V?$vector@HV?$allocator@H@std@@@2@@std@@@std@@@std@@QEAAPEAU?$_Tree_node@U?$pair@$$CBU?$pair@HH@std@@V?$vector@HV?$allocator@H@std@@@2@@std@@PEAX@2@V?$_Tree_const_iterator@V?$_Tree_val@U?$_Tree_simple_types@U?$pair@$$CBU?$pair@HH@std@@V?$vector@HV?$allocator@H@std@@@2@@std@@@std@@@std@@@2@@Z 000000018001bd60 f i MovieFFMpeg:MovieFFMpeg.obj
 0001:0001ad60       ?_Extract@?$_Tree_val@U?$_Tree_simple_types@U?$pair@$$CBV?$basic_string@DU?$char_traits@D@std@@V?$allocator@D@2@@std@@V12@@std@@@std@@@std@@QEAAPEAU?$_Tree_node@U?$pair@$$CBV?$basic_string@DU?$char_traits@D@std@@V?$allocator@D@2@@std@@V12@@std@@PEAX@2@V?$_Tree_const_iterator@V?$_Tree_val@U?$_Tree_simple_types@U?$pair@$$CBV?$basic_string@DU?$char_traits@D@std@@V?$allocator@D@2@@std@@V12@@std@@@std@@@std@@@2@@Z 000000018001bd60 f i MovieFFMpeg:MovieFFMpeg.obj
 0001:0001ad60       ?_Extract@?$_Tree_val@U?$_Tree_simple_types@U?$pair@$$CBV?$basic_string@DU?$char_traits@D@std@@V?$allocator@D@2@@std@@V?$set@HU?$less@H@std@@V?$allocator@H@2@@2@@std@@@std@@@std@@QEAAPEAU?$_Tree_node@U?$pair@$$CBV?$basic_string@DU?$char_traits@D@std@@V?$allocator@D@2@@std@@V?$set@HU?$less@H@std@@V?$allocator@H@2@@2@@std@@PEAX@2@V?$_Tree_const_iterator@V?$_Tree_val@U?$_Tree_simple_types@U?$pair@$$CBV?$basic_string@DU?$char_traits@D@std@@V?$allocator@D@2@@std@@V?$set@HU?$less@H@std@@V?$allocator@H@2@@2@@std@@@std@@@std@@@2@@Z 000000018001bd60 f i MovieFFMpeg:MovieFFMpeg.obj
 0001:0001ad60       ?_Extract@?$_Tree_val@U?$_Tree_simple_types@U?$pair@$$CBU?$pair@PEAVMovieFFMpegReader@TwkMovie@@H@std@@UContext@ContextPool@TwkMovie@@@std@@@std@@@std@@QEAAPEAU?$_Tree_node@U?$pair@$$CBU?$pair@PEAVMovieFFMpegReader@TwkMovie@@H@std@@UContext@ContextPool@TwkMovie@@@std@@PEAX@2@V?$_Tree_const_iterator@V?$_Tree_val@U?$_Tree_simple_types@U?$pair@$$CBU?$pair@PEAVMovieFFMpegReader@TwkMovie@@H@std@@UContext@ContextPool@TwkMovie@@@std@@@std@@@std@@@2@@Z 000000018001bd60 f i MovieFFMpeg:MovieFFMpeg.obj
 0001:0001ad60       ?_Extract@?$_Tree_val@U?$_Tree_simple_types@_J@std@@@std@@QEAAPEAU?$_Tree_node@_JPEAX@2@V?$_Tree_const_iterator@V?$_Tree_val@U?$_Tree_simple_types@_J@std@@@std@@@2@@Z 000000018001bd60 f i MovieFFMpeg:MovieFFMpeg.obj
 0001:0001ad60       ?_Extract@?$_Tree_val@U?$_Tree_simple_types@U?$pair@$$CBU?$pair@V?$basic_string@DU?$char_traits@D@std@@V?$allocator@D@2@@std@@H@std@@V?$vector@HV?$allocator@H@std@@@2@@std@@@std@@@std@@QEAAPEAU?$_Tree_node@U?$pair@$$CBU?$pair@V?$basic_string@DU?$char_traits@D@std@@V?$allocator@D@2@@std@@H@std@@V?$vector@HV?$allocator@H@std@@@2@@std@@PEAX@2@V?$_Tree_const_iterator@V?$_Tree_val@U?$_Tree_simple_types@U?$pair@$$CBU?$pair@V?$basic_string@DU?$char_traits@D@std@@V?$allocator@D@2@@std@@H@std@@V?$vector@HV?$allocator@H@std@@@2@@std@@@std@@@std@@@2@@Z 000000018001bd60 f i MovieFFMpeg:MovieFFMpeg.obj
 0001:0001ad60       ?_Extract@?$_Tree_val@U?$_Tree_simple_types@U?$pair@$$CBW4Channels@TwkAudio@@UChannelMixState@2@@std@@@std@@@std@@QEAAPEAU?$_Tree_node@U?$pair@$$CBW4Channels@TwkAudio@@UChannelMixState@2@@std@@PEAX@2@V?$_Tree_const_iterator@V?$_Tree_val@U?$_Tree_simple_types@U?$pair@$$CBW4Channels@TwkAudio@@UChannelMixState@2@@std@@@std@@@std@@@2@@Z 000000018001bd60 f i MovieFFMpeg:MovieFFMpeg.obj
 0001:0001b0c0       ?_Freenode0@?$_Tree_comp_alloc@V?$_Tmap_traits@HHU?$less@H@std@@V?$allocator@U?$pair@$$CBHH@std@@@2@$0A@@std@@@std@@QEAAXPEAU?$_Tree_node@U?$pair@$$CBHH@std@@PEAX@2@@Z 000000018001c0c0 f i MovieFFMpeg:MovieFFMpeg.obj
 0001:0001b0c0       ?_Freenode0@?$_Tree_comp_alloc@V?$_Tset_traits@_JU?$less@_J@std@@V?$allocator@_J@2@$0A@@std@@@std@@QEAAXPEAU?$_Tree_node@_JPEAX@2@@Z 000000018001c0c0 f i MovieFFMpeg:MovieFFMpeg.obj
 0001:0001b0d0       ?_Freenode0@?$_Tree_comp_alloc@V?$_Tmap_traits@U?$pair@HH@std@@V?$vector@HV?$allocator@H@std@@@2@U?$less@U?$pair@HH@std@@@2@V?$allocator@U?$pair@$$CBU?$pair@HH@std@@V?$vector@HV?$allocator@H@std@@@2@@std@@@2@$0A@@std@@@std@@QEAAXPEAU?$_Tree_node@U?$pair@$$CBU?$pair@HH@std@@V?$vector@HV?$allocator@H@std@@@2@@std@@PEAX@2@@Z 000000018001c0d0 f i MovieFFMpeg:MovieFFMpeg.obj
 0001:0001b0e0       ?_Freenode0@?$_Tree_comp_alloc@V?$_Tmap_traits@V?$basic_string@DU?$char_traits@D@std@@V?$allocator@D@2@@std@@V12@U?$less@V?$basic_string@DU?$char_traits@D@std@@V?$allocator@D@2@@std@@@2@V?$allocator@U?$pair@$$CBV?$basic_string@DU?$char_traits@D@std@@V?$allocator@D@2@@std@@V12@@std@@@2@$0A@@std@@@std@@QEAAXPEAU?$_Tree_node@U?$pair@$$CBV?$basic_string@DU?$char_traits@D@std@@V?$allocator@D@2@@std@@V12@@std@@PEAX@2@@Z 000000018001c0e0 f i MovieFFMpeg:MovieFFMpeg.obj
 0001:0001b0e0       ?_Freenode0@?$_Tree_comp_alloc@V?$_Tmap_traits@U?$pair@V?$basic_string@DU?$char_traits@D@std@@V?$allocator@D@2@@std@@H@std@@V?$vector@HV?$allocator@H@std@@@2@U?$less@U?$pair@V?$basic_string@DU?$char_traits@D@std@@V?$allocator@D@2@@std@@H@std@@@2@V?$allocator@U?$pair@$$CBU?$pair@V?$basic_string@DU?$char_traits@D@std@@V?$allocator@D@2@@std@@H@std@@V?$vector@HV?$allocator@H@std@@@2@@std@@@2@$0A@@std@@@std@@QEAAXPEAU?$_Tree_node@U?$pair@$$CBU?$pair@V?$basic_string@DU?$char_traits@D@std@@V?$allocator@D@2@@std@@H@std@@V?$vector@HV?$allocator@H@std@@@2@@std@@PEAX@2@@Z 000000018001c0e0 f i MovieFFMpeg:MovieFFMpeg.obj
 0001:0001b0f0       ?_Freenode0@?$_Tree_comp_alloc@V?$_Tmap_traits@V?$basic_string@DU?$char_traits@D@std@@V?$allocator@D@2@@std@@HU?$less@V?$basic_string@DU?$char_traits@D@std@@V?$allocator@D@2@@std@@@2@V?$allocator@U?$pair@$$CBV?$basic_string@DU?$char_traits@D@std@@V?$allocator@D@2@@std@@H@std@@@2@$0A@@std@@@std@@QEAAXPEAU?$_Tree_node@U?$pair@$$CBV?$basic_string@DU?$char_traits@D@std@@V?$allocator@D@2@@std@@H@std@@PEAX@2@@Z 000000018001c0f0 f i MovieFFMpeg:MovieFFMpeg.obj
 0001:0001b100       ?_Freenode0@?$_Tree_comp_alloc@V?$_Tmap_traits@V?$basic_string@DU?$char_traits@D@std@@V?$allocator@D@2@@std@@V?$set@HU?$less@H@std@@V?$allocator@H@2@@2@U?$less@V?$basic_string@DU?$char_traits@D@std@@V?$allocator@D@2@@std@@@2@V?$allocator@U?$pair@$$CBV?$basic_string@DU?$char_traits@D@std@@V?$allocator@D@2@@std@@V?$set@HU?$less@H@std@@V?$allocator@H@2@@2@@std@@@2@$0A@@std@@@std@@QEAAXPEAU?$_Tree_node@U?$pair@$$CBV?$basic_string@DU?$char_traits@D@std@@V?$allocator@D@2@@std@@V?$set@HU?$less@H@std@@V?$allocator@H@2@@2@@std@@PEAX@2@@Z 000000018001c100 f i MovieFFMpeg:MovieFFMpeg.obj
 0001:0001b110       ?_Freenode0@?$_Tree_comp_alloc@V?$_Tmap_traits@W4Channels@TwkAudio@@UChannelMixState@2@U?$less@W4Channels@TwkAudio@@@std@@V?$allocator@U?$pair@$$CBW4Channels@TwkAudio@@UChannelMixState@2@@std@@@5@$0A@@std@@@std@@QEAAXPEAU?$_Tree_node@U?$pair@$$CBW4Channels@TwkAudio@@UChannelMixState@2@@std@@PEAX@2@@Z 000000018001c110 f i MovieFFMpeg:MovieFFMpeg.obj
 0001:0001b120       ?_Freenode0@?$_Tree_comp_alloc@V?$_Tset_traits@DU?$less@D@std@@V?$allocator@D@2@$0A@@std@@@std@@QEAAXPEAU?$_Tree_node@DPEAX@2@@Z 000000018001c120 f i MovieFFMpeg:MovieFFMpeg.obj
 0001:0001b120       ?_Freenode0@?$_Tree_comp_alloc@V?$_Tset_traits@HU?$less@H@std@@V?$allocator@H@2@$0A@@std@@@std@@QEAAXPEAU?$_Tree_node@HPEAX@2@@Z 000000018001c120 f i MovieFFMpeg:MovieFFMpeg.obj
 0001:0001b130       ?_Getal@?$_Vector_alloc@U?$_Vec_base_types@UChapterInfo@TwkMovie@@V?$allocator@UChapterInfo@TwkMovie@@@std@@@std@@@std@@QEAAAEAV?$allocator@UChapterInfo@TwkMovie@@@2@XZ 000000018001c130 f i MovieFFMpeg:MovieFFMpeg.obj
 0001:0001b130       ?_Getal@?$_Vector_alloc@U?$_Vec_base_types@UParameter@MovieIO@TwkMovie@@V?$allocator@UParameter@MovieIO@TwkMovie@@@std@@@std@@@std@@QEAAAEAV?$allocator@UParameter@MovieIO@TwkMovie@@@2@XZ 000000018001c130 f i MovieFFMpeg:MovieFFMpeg.obj
 0001:0001b130       ?_Getal@?$_Vector_alloc@U?$_Vec_base_types@MV?$replacement_allocator@M@stl_ext@@@std@@@std@@QEAAAEAV?$replacement_allocator@M@stl_ext@@XZ 000000018001c130 f i MovieFFMpeg:MovieFFMpeg.obj
 0001:0001b130       ?_Getal@?$_Vector_alloc@U?$_Vec_base_types@IV?$allocator@I@std@@@std@@@std@@QEAAAEAV?$allocator@I@2@XZ 000000018001c130 f i MovieFFMpeg:MovieFFMpeg.obj
 0001:0001b130       ?_Getal@?$_Vector_alloc@U?$_Vec_base_types@PEAVVideoTrack@TwkMovie@@V?$allocator@PEAVVideoTrack@TwkMovie@@@std@@@std@@@std@@QEAAAEAV?$allocator@PEAVVideoTrack@TwkMovie@@@2@XZ 000000018001c130 f i MovieFFMpeg:MovieFFMpeg.obj
 0001:0001b130       ?_Getal@?$_Vector_alloc@U?$_Vec_base_types@PEAVAudioTrack@TwkMovie@@V?$allocator@PEAVAudioTrack@TwkMovie@@@std@@@std@@@std@@QEAAAEAV?$allocator@PEAVAudioTrack@TwkMovie@@@2@XZ 000000018001c130 f i MovieFFMpeg:MovieFFMpeg.obj
 0001:0001b130       ?_Getal@?$_Vector_alloc@U?$_Vec_base_types@V?$basic_string@DU?$char_traits@D@std@@V?$allocator@D@2@@std@@V?$allocator@V?$basic_string@DU?$char_traits@D@std@@V?$allocator@D@2@@std@@@2@@std@@@std@@QEAAAEAV?$allocator@V?$basic_string@DU?$char_traits@D@std@@V?$allocator@D@2@@std@@@2@XZ 000000018001c130 f i MovieFFMpeg:MovieFFMpeg.obj
 0001:0001b140       ?_Init@?$basic_stringbuf@DU?$char_traits@D@std@@V?$allocator@D@2@@std@@IEAAXPEBD_KH@Z 000000018001c140 f i MovieFFMpeg:MovieFFMpeg.obj
 0001:0001b250       ?_Insert_x@?$vector@_NV?$allocator@_N@std@@@std@@QEAA_KV?$_Vb_const_iterator@U?$_Wrap_alloc@V?$allocator@I@std@@@std@@@2@_K@Z 000000018001c250 f i MovieFFMpeg:MovieFFMpeg.obj
 0001:0001b450       ?_Lrotate@?$_Tree_val@U?$_Tree_simple_types@U?$pair@$$CBV?$basic_string@DU?$char_traits@D@std@@V?$allocator@D@2@@std@@U?$pair@V?$basic_string@DU?$char_traits@D@std@@V?$allocator@D@2@@std@@I@2@@std@@@std@@@std@@QEAAXPEAU?$_Tree_node@U?$pair@$$CBV?$basic_string@DU?$char_traits@D@std@@V?$allocator@D@2@@std@@U?$pair@V?$basic_string@DU?$char_traits@D@std@@V?$allocator@D@2@@std@@I@2@@std@@PEAX@2@@Z 000000018001c450 f i MovieFFMpeg:MovieFFMpeg.obj
 0001:0001b450       ?_Lrotate@?$_Tree_val@U?$_Tree_simple_types@_J@std@@@std@@QEAAXPEAU?$_Tree_node@_JPEAX@2@@Z 000000018001c450 f i MovieFFMpeg:MovieFFMpeg.obj
 0001:0001b450       ?_Lrotate@?$_Tree_val@U?$_Tree_simple_types@U?$pair@$$CBV?$basic_string@DU?$char_traits@D@std@@V?$allocator@D@2@@std@@V?$set@HU?$less@H@std@@V?$allocator@H@2@@2@@std@@@std@@@std@@QEAAXPEAU?$_Tree_node@U?$pair@$$CBV?$basic_string@DU?$char_traits@D@std@@V?$allocator@D@2@@std@@V?$set@HU?$less@H@std@@V?$allocator@H@2@@2@@std@@PEAX@2@@Z 000000018001c450 f i MovieFFMpeg:MovieFFMpeg.obj
 0001:0001b450       ?_Lrotate@?$_Tree_val@U?$_Tree_simple_types@U?$pair@$$CBU?$pair@V?$basic_string@DU?$char_traits@D@std@@V?$allocator@D@2@@std@@H@std@@V?$vector@HV?$allocator@H@std@@@2@@std@@@std@@@std@@QEAAXPEAU?$_Tree_node@U?$pair@$$CBU?$pair@V?$basic_string@DU?$char_traits@D@std@@V?$allocator@D@2@@std@@H@std@@V?$vector@HV?$allocator@H@std@@@2@@std@@PEAX@2@@Z 000000018001c450 f i MovieFFMpeg:MovieFFMpeg.obj
 0001:0001b450       ?_Lrotate@?$_Tree_val@U?$_Tree_simple_types@U?$pair@$$CBU?$pair@HH@std@@V?$vector@HV?$allocator@H@std@@@2@@std@@@std@@@std@@QEAAXPEAU?$_Tree_node@U?$pair@$$CBU?$pair@HH@std@@V?$vector@HV?$allocator@H@std@@@2@@std@@PEAX@2@@Z 000000018001c450 f i MovieFFMpeg:MovieFFMpeg.obj
 0001:0001b450       ?_Lrotate@?$_Tree_val@U?$_Tree_simple_types@U?$pair@$$CBW4Channels@TwkAudio@@UChannelMixState@2@@std@@@std@@@std@@QEAAXPEAU?$_Tree_node@U?$pair@$$CBW4Channels@TwkAudio@@UChannelMixState@2@@std@@PEAX@2@@Z 000000018001c450 f i MovieFFMpeg:MovieFFMpeg.obj
 0001:0001b450       ?_Lrotate@?$_Tree_val@U?$_Tree_simple_types@U?$pair@$$CBV?$basic_string@DU?$char_traits@D@std@@V?$allocator@D@2@@std@@H@std@@@std@@@std@@QEAAXPEAU?$_Tree_node@U?$pair@$$CBV?$basic_string@DU?$char_traits@D@std@@V?$allocator@D@2@@std@@H@std@@PEAX@2@@Z 000000018001c450 f i MovieFFMpeg:MovieFFMpeg.obj
 0001:0001b450       ?_Lrotate@?$_Tree_val@U?$_Tree_simple_types@U?$pair@$$CBV?$basic_string@DU?$char_traits@D@std@@V?$allocator@D@2@@std@@V12@@std@@@std@@@std@@QEAAXPEAU?$_Tree_node@U?$pair@$$CBV?$basic_string@DU?$char_traits@D@std@@V?$allocator@D@2@@std@@V12@@std@@PEAX@2@@Z 000000018001c450 f i MovieFFMpeg:MovieFFMpeg.obj
 0001:0001b450       ?_Lrotate@?$_Tree_val@U?$_Tree_simple_types@U?$pair@$$CBU?$pair@PEAVMovieFFMpegReader@TwkMovie@@H@std@@UContext@ContextPool@TwkMovie@@@std@@@std@@@std@@QEAAXPEAU?$_Tree_node@U?$pair@$$CBU?$pair@PEAVMovieFFMpegReader@TwkMovie@@H@std@@UContext@ContextPool@TwkMovie@@@std@@PEAX@2@@Z 000000018001c450 f i MovieFFMpeg:MovieFFMpeg.obj
 0001:0001b4b0       ?_Mylast@?$_Vector_alloc@U?$_Vec_base_types@UParameter@MovieIO@TwkMovie@@V?$allocator@UParameter@MovieIO@TwkMovie@@@std@@@std@@@std@@QEAAAEAPEAUParameter@MovieIO@TwkMovie@@XZ 000000018001c4b0 f i MovieFFMpeg:MovieFFMpeg.obj
 0001:0001b4c0       ?_Rrotate@?$_Tree_val@U?$_Tree_simple_types@U?$pair@$$CBV?$basic_string@DU?$char_traits@D@std@@V?$allocator@D@2@@std@@H@std@@@std@@@std@@QEAAXPEAU?$_Tree_node@U?$pair@$$CBV?$basic_string@DU?$char_traits@D@std@@V?$allocator@D@2@@std@@H@std@@PEAX@2@@Z 000000018001c4c0 f i MovieFFMpeg:MovieFFMpeg.obj
 0001:0001b4c0       ?_Rrotate@?$_Tree_val@U?$_Tree_simple_types@U?$pair@$$CBV?$basic_string@DU?$char_traits@D@std@@V?$allocator@D@2@@std@@V?$set@HU?$less@H@std@@V?$allocator@H@2@@2@@std@@@std@@@std@@QEAAXPEAU?$_Tree_node@U?$pair@$$CBV?$basic_string@DU?$char_traits@D@std@@V?$allocator@D@2@@std@@V?$set@HU?$less@H@std@@V?$allocator@H@2@@2@@std@@PEAX@2@@Z 000000018001c4c0 f i MovieFFMpeg:MovieFFMpeg.obj
 0001:0001b4c0       ?_Rrotate@?$_Tree_val@U?$_Tree_simple_types@U?$pair@$$CBU?$pair@HH@std@@V?$vector@HV?$allocator@H@std@@@2@@std@@@std@@@std@@QEAAXPEAU?$_Tree_node@U?$pair@$$CBU?$pair@HH@std@@V?$vector@HV?$allocator@H@std@@@2@@std@@PEAX@2@@Z 000000018001c4c0 f i MovieFFMpeg:MovieFFMpeg.obj
 0001:0001b4c0       ?_Rrotate@?$_Tree_val@U?$_Tree_simple_types@H@std@@@std@@QEAAXPEAU?$_Tree_node@HPEAX@2@@Z 000000018001c4c0 f i MovieFFMpeg:MovieFFMpeg.obj
 0001:0001b4c0       ?_Rrotate@?$_Tree_val@U?$_Tree_simple_types@U?$pair@$$CBU?$pair@V?$basic_string@DU?$char_traits@D@std@@V?$allocator@D@2@@std@@H@std@@V?$vector@HV?$allocator@H@std@@@2@@std@@@std@@@std@@QEAAXPEAU?$_Tree_node@U?$pair@$$CBU?$pair@V?$basic_string@DU?$char_traits@D@std@@V?$allocator@D@2@@std@@H@std@@V?$vector@HV?$allocator@H@std@@@2@@std@@PEAX@2@@Z 000000018001c4c0 f i MovieFFMpeg:MovieFFMpeg.obj
 0001:0001b4c0       ?_Rrotate@?$_Tree_val@U?$_Tree_simple_types@U?$pair@$$CBU?$pair@PEAVMovieFFMpegReader@TwkMovie@@H@std@@UContext@ContextPool@TwkMovie@@@std@@@std@@@std@@QEAAXPEAU?$_Tree_node@U?$pair@$$CBU?$pair@PEAVMovieFFMpegReader@TwkMovie@@H@std@@UContext@ContextPool@TwkMovie@@@std@@PEAX@2@@Z 000000018001c4c0 f i MovieFFMpeg:MovieFFMpeg.obj
 0001:0001b4c0       ?_Rrotate@?$_Tree_val@U?$_Tree_simple_types@U?$pair@$$CBV?$basic_string@DU?$char_traits@D@std@@V?$allocator@D@2@@std@@U?$pair@V?$basic_string@DU?$char_traits@D@std@@V?$allocator@D@2@@std@@I@2@@std@@@std@@@std@@QEAAXPEAU?$_Tree_node@U?$pair@$$CBV?$basic_string@DU?$char_traits@D@std@@V?$allocator@D@2@@std@@U?$pair@V?$basic_string@DU?$char_traits@D@std@@V?$allocator@D@2@@std@@I@2@@std@@PEAX@2@@Z 000000018001c4c0 f i MovieFFMpeg:MovieFFMpeg.obj
 0001:0001b4c0       ?_Rrotate@?$_Tree_val@U?$_Tree_simple_types@_J@std@@@std@@QEAAXPEAU?$_Tree_node@_JPEAX@2@@Z 000000018001c4c0 f i MovieFFMpeg:MovieFFMpeg.obj
 0001:0001b4c0       ?_Rrotate@?$_Tree_val@U?$_Tree_simple_types@U?$pair@$$CB_J_J@std@@@std@@@std@@QEAAXPEAU?$_Tree_node@U?$pair@$$CB_J_J@std@@PEAX@2@@Z 000000018001c4c0 f i MovieFFMpeg:MovieFFMpeg.obj
 0001:0001b4c0       ?_Rrotate@?$_Tree_val@U?$_Tree_simple_types@U?$pair@$$CBV?$basic_string@DU?$char_traits@D@std@@V?$allocator@D@2@@std@@V12@@std@@@std@@@std@@QEAAXPEAU?$_Tree_node@U?$pair@$$CBV?$basic_string@DU?$char_traits@D@std@@V?$allocator@D@2@@std@@V12@@std@@PEAX@2@@Z 000000018001c4c0 f i MovieFFMpeg:MovieFFMpeg.obj
 0001:0001b4c0       ?_Rrotate@?$_Tree_val@U?$_Tree_simple_types@D@std@@@std@@QEAAXPEAU?$_Tree_node@DPEAX@2@@Z 000000018001c4c0 f i MovieFFMpeg:MovieFFMpeg.obj
 0001:0001b4c0       ?_Rrotate@?$_Tree_val@U?$_Tree_simple_types@U?$pair@$$CBW4Channels@TwkAudio@@UChannelMixState@2@@std@@@std@@@std@@QEAAXPEAU?$_Tree_node@U?$pair@$$CBW4Channels@TwkAudio@@UChannelMixState@2@@std@@PEAX@2@@Z 000000018001c4c0 f i MovieFFMpeg:MovieFFMpeg.obj
 0001:0001b520       ?_Tidy@?$basic_stringbuf@DU?$char_traits@D@std@@V?$allocator@D@2@@std@@IEAAXXZ 000000018001c520 f i MovieFFMpeg:MovieFFMpeg.obj
 0001:0001b5d0       ?_Tidy@?$vector@U?$pair@V?$basic_string@DU?$char_traits@D@std@@V?$allocator@D@2@@std@@V12@@std@@V?$allocator@U?$pair@V?$basic_string@DU?$char_traits@D@std@@V?$allocator@D@2@@std@@V12@@std@@@2@@std@@AEAAXXZ 000000018001c5d0 f i MovieFFMpeg:MovieFFMpeg.obj
 0001:0001b660       ?_Tidy@?$vector@UChannelInfo@FBInfo@TwkFB@@V?$allocator@UChannelInfo@FBInfo@TwkFB@@@std@@@std@@AEAAXXZ 000000018001c660 f i MovieFFMpeg:MovieFFMpeg.obj
 0001:0001b6f0       ?_Tidy@?$vector@UChapterInfo@TwkMovie@@V?$allocator@UChapterInfo@TwkMovie@@@std@@@std@@AEAAXXZ 000000018001c6f0 f i MovieFFMpeg:MovieFFMpeg.obj
 0001:0001b7b0       ?_Tidy@?$vector@ULayerInfo@FBInfo@TwkFB@@V?$allocator@ULayerInfo@FBInfo@TwkFB@@@std@@@std@@AEAAXXZ 000000018001c7b0 f i MovieFFMpeg:MovieFFMpeg.obj
 0001:0001b840       ?_Tidy@?$vector@UParameter@MovieIO@TwkMovie@@V?$allocator@UParameter@MovieIO@TwkMovie@@@std@@@std@@AEAAXXZ 000000018001c840 f i MovieFFMpeg:MovieFFMpeg.obj
 0001:0001b900       ?_Tidy@?$vector@UViewInfo@FBInfo@TwkFB@@V?$allocator@UViewInfo@FBInfo@TwkFB@@@std@@@std@@AEAAXXZ 000000018001c900 f i MovieFFMpeg:MovieFFMpeg.obj
 0001:0001b9c0       ?_Tidy@?$vector@V?$vector@MV?$replacement_allocator@M@stl_ext@@@std@@V?$allocator@V?$vector@MV?$replacement_allocator@M@stl_ext@@@std@@@2@@std@@AEAAXXZ 000000018001c9c0 f i MovieFFMpeg:MovieFFMpeg.obj
 0001:0001ba90       ?_Tidy_deallocate@?$basic_string@_WU?$char_traits@_W@std@@V?$allocator@_W@2@@std@@QEAAXXZ 000000018001ca90 f i MovieFFMpeg:MovieFFMpeg.obj
 0001:0001bb00       ?_Umove@?$vector@UParameter@MovieIO@TwkMovie@@V?$allocator@UParameter@MovieIO@TwkMovie@@@std@@@std@@AEAAPEAUParameter@MovieIO@TwkMovie@@PEAU345@00@Z 000000018001cb00 f i MovieFFMpeg:MovieFFMpeg.obj
 0001:0001bb20       ?_Xlen@?$vector@_NV?$allocator@_N@std@@@std@@QEBAXXZ 000000018001cb20 f i MovieFFMpeg:MovieFFMpeg.obj
 0001:0001bb40       ?about@MovieFFMpegIO@TwkMovie@@UEBA?AV?$basic_string@DU?$char_traits@D@std@@V?$allocator@D@2@@std@@XZ 000000018001cb40 f   MovieFFMpeg:MovieFFMpeg.obj
 0001:0001be40       ?addTrack@MovieFFMpegWriter@TwkMovie@@AEAAX_NV?$basic_string@DU?$char_traits@D@std@@V?$allocator@D@2@@std@@0@Z 000000018001ce40 f   MovieFFMpeg:MovieFFMpeg.obj
 0001:0001cdb0       ?addVideoFBAttrs@MovieFFMpegReader@TwkMovie@@AEAAXPEAUVideoTrack@2@@Z 000000018001ddb0 f   MovieFFMpeg:MovieFFMpeg.obj
 0001:0001d200       ?allocate@?$allocator@I@std@@QEAAPEAI_K@Z 000000018001e200 f i MovieFFMpeg:MovieFFMpeg.obj
 0001:0001d200       ?allocate@?$allocator@W4Channels@TwkAudio@@@std@@QEAAPEAW4Channels@TwkAudio@@_K@Z 000000018001e200 f i MovieFFMpeg:MovieFFMpeg.obj
 0001:0001d280       ?allocate@?$allocator@PEAVVideoTrack@TwkMovie@@@std@@QEAAPEAPEAUVideoTrack@TwkMovie@@_K@Z 000000018001e280 f i MovieFFMpeg:MovieFFMpeg.obj
 0001:0001d280       ?allocate@?$allocator@PEAVFrameBuffer@TwkFB@@@std@@QEAAPEAPEAVFrameBuffer@TwkFB@@_K@Z 000000018001e280 f i MovieFFMpeg:MovieFFMpeg.obj
 0001:0001d280       ?allocate@?$allocator@PEAVAudioTrack@TwkMovie@@@std@@QEAAPEAPEAUAudioTrack@TwkMovie@@_K@Z 000000018001e280 f i MovieFFMpeg:MovieFFMpeg.obj
 0001:0001d300       ?allocate@?$allocator@U?$pair@V?$basic_string@DU?$char_traits@D@std@@V?$allocator@D@2@@std@@V12@@std@@@std@@QEAAPEAU?$pair@V?$basic_string@DU?$char_traits@D@std@@V?$allocator@D@2@@std@@V12@@2@_K@Z 000000018001e300 f i MovieFFMpeg:MovieFFMpeg.obj
 0001:0001d380       ?allocate@?$allocator@UChannelInfo@FBInfo@TwkFB@@@std@@QEAAPEAUChannelInfo@FBInfo@TwkFB@@_K@Z 000000018001e380 f i MovieFFMpeg:MovieFFMpeg.obj
 0001:0001d400       ?allocate@?$allocator@UChapterInfo@TwkMovie@@@std@@QEAAPEAUChapterInfo@TwkMovie@@_K@Z 000000018001e400 f i MovieFFMpeg:MovieFFMpeg.obj
 0001:0001d480       ?allocate@?$allocator@UParameter@MovieIO@TwkMovie@@@std@@QEAAPEAUParameter@MovieIO@TwkMovie@@_K@Z 000000018001e480 f i MovieFFMpeg:MovieFFMpeg.obj
 0001:0001d500       ?allocate@?$allocator@UViewInfo@FBInfo@TwkFB@@@std@@QEAAPEAUViewInfo@FBInfo@TwkFB@@_K@Z 000000018001e500 f i MovieFFMpeg:MovieFFMpeg.obj
 0001:0001d580       ?applyCodecParameters@MovieFFMpegWriter@TwkMovie@@AEAAXPEAUAVCodecContext@@_N@Z 000000018001e580 f   MovieFFMpeg:MovieFFMpeg.obj
 0001:0001dea0       ?applyFormatParameters@MovieFFMpegWriter@TwkMovie@@AEAAXXZ 000000018001eea0 f   MovieFFMpeg:MovieFFMpeg.obj
 0001:0001ecd0       ?audioConfigure@MovieFFMpegReader@TwkMovie@@UEAAXAEBUAudioConfiguration@Movie@2@@Z 000000018001fcd0 f   MovieFFMpeg:MovieFFMpeg.obj
 0001:0001f000       ?audioFillBuffer@MovieFFMpegReader@TwkMovie@@UEAA_KAEBUAudioReadRequest@Movie@2@AEAVAudioBuffer@TwkAudio@@@Z 0000000180020000 f   MovieFFMpeg:MovieFFMpeg.obj
 0001:000202b0       ?canConvertAudioChannels@MovieFFMpegReader@TwkMovie@@UEBA_NXZ 00000001800212b0 f   MovieFFMpeg:MovieFFMpeg.obj
 0001:000202c0       ?clear@?$_Tree@V?$_Tmap_traits@HHU?$less@H@std@@V?$allocator@U?$pair@$$CBHH@std@@@2@$0A@@std@@@std@@QEAAXXZ 00000001800212c0 f i MovieFFMpeg:MovieFFMpeg.obj
 0001:000202c0       ?clear@?$_Tree@V?$_Tset_traits@_JU?$less@_J@std@@V?$allocator@_J@2@$0A@@std@@@std@@QEAAXXZ 00000001800212c0 f i MovieFFMpeg:MovieFFMpeg.obj
 0001:0002034c       ?clone@?$clone_impl@U?$error_info_injector@Vthread_resource_error@boost@@@exception_detail@boost@@@exception_detail@boost@@$0PPPPPPPM@A@EBAPEBVclone_base@23@XZ 000000018002134c f i MovieFFMpeg:MovieFFMpeg.obj
 0001:00020360       ?clone@?$clone_impl@U?$error_info_injector@Vthread_resource_error@boost@@@exception_detail@boost@@@exception_detail@boost@@EEBAPEBVclone_base@23@XZ 0000000180021360 f i MovieFFMpeg:MovieFFMpeg.obj
 0001:00020460       ?clone@MovieFFMpegReader@TwkMovie@@UEBAPEAVMovieReader@2@XZ 0000000180021460 f   MovieFFMpeg:MovieFFMpeg.obj
 0001:000208f0       ?close@MovieFFMpegReader@TwkMovie@@QEAAXXZ 00000001800218f0 f   MovieFFMpeg:MovieFFMpeg.obj
 0001:00020cc0       ?codecIsAllowed@MovieFFMpegIO@TwkMovie@@QEBA_NV?$basic_string@DU?$char_traits@D@std@@V?$allocator@D@2@@std@@_N@Z 0000000180021cc0 f   MovieFFMpeg:MovieFFMpeg.obj
 0001:00020d80       ?collectParameters@MovieFFMpegIO@TwkMovie@@AEAAXPEBVAVClass@@PEAV?$vector@UParameter@MovieIO@TwkMovie@@V?$allocator@UParameter@MovieIO@TwkMovie@@@std@@@std@@1V?$basic_string@DU?$char_traits@D@std@@V?$allocator@D@2@@5@2@Z 0000000180021d80 f   MovieFFMpeg:MovieFFMpeg.obj
 0001:00021a20       ?collectPlaybackTiming@MovieFFMpegReader@TwkMovie@@AEAAXV?$vector@_NV?$allocator@_N@std@@@std@@0@Z 0000000180022a20 f   MovieFFMpeg:MovieFFMpeg.obj
 0001:00022020       ?collectWriteInfo@MovieFFMpegWriter@TwkMovie@@AEAAXV?$basic_string@DU?$char_traits@D@std@@V?$allocator@D@2@@std@@0@Z 0000000180023020 f   MovieFFMpeg:MovieFFMpeg.obj
 0001:00022a20       ?compare@?$basic_string@DU?$char_traits@D@std@@V?$allocator@D@2@@std@@QEBAHAEBV12@@Z 0000000180023a20 f i MovieFFMpeg:MovieFFMpeg.obj
 0001:00022a90       ?configureYUVPlanes@MovieFFMpegReader@TwkMovie@@AEAAPEAVFrameBuffer@TwkFB@@W4DataType@34@HHHHHH_NW4Orientation@34@@Z 0000000180023a90 f   MovieFFMpeg:MovieFFMpeg.obj
 0001:000230c0       ?copy@?$TypedFBAttribute@M@TwkFB@@UEBAPEAVFBAttribute@2@XZ 00000001800240c0 f i MovieFFMpeg:MovieFFMpeg.obj
 0001:00023150       ?copy@?$TypedFBAttribute@V?$basic_string@DU?$char_traits@D@std@@V?$allocator@D@2@@std@@@TwkFB@@UEBAPEAVFBAttribute@2@XZ 0000000180024150 f i MovieFFMpeg:MovieFFMpeg.obj
 0001:000231c0       ?copyWithPrefix@?$TypedFBAttribute@M@TwkFB@@UEBAPEAVFBAttribute@2@AEBV?$basic_string@DU?$char_traits@D@std@@V?$allocator@D@2@@std@@@Z 00000001800241c0 f i MovieFFMpeg:MovieFFMpeg.obj
 0001:000232d0       ?copyWithPrefix@?$TypedFBAttribute@V?$basic_string@DU?$char_traits@D@std@@V?$allocator@D@2@@std@@@TwkFB@@UEBAPEAVFBAttribute@2@AEBV?$basic_string@DU?$char_traits@D@std@@V?$allocator@D@2@@std@@@Z 00000001800242d0 f i MovieFFMpeg:MovieFFMpeg.obj
 0001:000233e0       ?data@?$TypedFBAttribute@M@TwkFB@@UEAAPEAXXZ 00000001800243e0 f i MovieFFMpeg:MovieFFMpeg.obj
 0001:000233e0       ?data@?$TypedFBAttribute@V?$basic_string@DU?$char_traits@D@std@@V?$allocator@D@2@@std@@@TwkFB@@UEAAPEAXXZ 00000001800243e0 f i MovieFFMpeg:MovieFFMpeg.obj
 0001:000233f0       ?deallocate@?$allocator@H@std@@QEAAXQEAH_K@Z 00000001800243f0 f i MovieFFMpeg:MovieFFMpeg.obj
 0001:000233f0       ?deallocate@?$allocator@I@std@@QEAAXQEAI_K@Z 00000001800243f0 f i MovieFFMpeg:MovieFFMpeg.obj
 0001:000233f0       ?deallocate@?$allocator@W4Channels@TwkAudio@@@std@@QEAAXQEAW4Channels@TwkAudio@@_K@Z 00000001800243f0 f i MovieFFMpeg:MovieFFMpeg.obj
 0001:00023440       ?deallocate@?$allocator@PEAVFrameBuffer@TwkFB@@@std@@QEAAXQEAPEAVFrameBuffer@TwkFB@@_K@Z 0000000180024440 f i MovieFFMpeg:MovieFFMpeg.obj
 0001:00023440       ?deallocate@?$allocator@PEAVFBAttribute@TwkFB@@@std@@QEAAXQEAPEAVFBAttribute@TwkFB@@_K@Z 0000000180024440 f i MovieFFMpeg:MovieFFMpeg.obj
 0001:00023440       ?deallocate@?$allocator@PEAVAudioTrack@TwkMovie@@@std@@QEAAXQEAPEAUAudioTrack@TwkMovie@@_K@Z 0000000180024440 f i MovieFFMpeg:MovieFFMpeg.obj
 0001:00023440       ?deallocate@?$allocator@PEAVVideoTrack@TwkMovie@@@std@@QEAAXQEAPEAUVideoTrack@TwkMovie@@_K@Z 0000000180024440 f i MovieFFMpeg:MovieFFMpeg.obj
 0001:00023490       ?deallocate@?$allocator@U?$_List_node@PEAUContext@ContextPool@TwkMovie@@PEAX@std@@@std@@QEAAXQEAU?$_List_node@PEAUContext@ContextPool@TwkMovie@@PEAX@2@_K@Z 0000000180024490 f i MovieFFMpeg:MovieFFMpeg.obj
 0001:000234e0       ?deallocate@?$allocator@U?$_Tree_node@U?$pair@$$CBHH@std@@PEAX@std@@@std@@QEAAXQEAU?$_Tree_node@U?$pair@$$CBHH@std@@PEAX@2@_K@Z 00000001800244e0 f i MovieFFMpeg:MovieFFMpeg.obj
 0001:000234e0       ?deallocate@?$allocator@UChannelInfo@FBInfo@TwkFB@@@std@@QEAAXQEAUChannelInfo@FBInfo@TwkFB@@_K@Z 00000001800244e0 f i MovieFFMpeg:MovieFFMpeg.obj
 0001:000234e0       ?deallocate@?$allocator@U?$_Tree_node@_JPEAX@std@@@std@@QEAAXQEAU?$_Tree_node@_JPEAX@2@_K@Z 00000001800244e0 f i MovieFFMpeg:MovieFFMpeg.obj
 0001:00023530       ?deallocate@?$allocator@U?$_Tree_node@U?$pair@$$CBU?$pair@HH@std@@V?$vector@HV?$allocator@H@std@@@2@@std@@PEAX@std@@@std@@QEAAXQEAU?$_Tree_node@U?$pair@$$CBU?$pair@HH@std@@V?$vector@HV?$allocator@H@std@@@2@@std@@PEAX@2@_K@Z 0000000180024530 f i MovieFFMpeg:MovieFFMpeg.obj
 0001:00023530       ?deallocate@?$allocator@U?$pair@V?$basic_string@DU?$char_traits@D@std@@V?$allocator@D@2@@std@@V12@@std@@@std@@QEAAXQEAU?$pair@V?$basic_string@DU?$char_traits@D@std@@V?$allocator@D@2@@std@@V12@@2@_K@Z 0000000180024530 f i MovieFFMpeg:MovieFFMpeg.obj
 0001:00023580       ?deallocate@?$allocator@U?$_Tree_node@U?$pair@$$CBV?$basic_string@DU?$char_traits@D@std@@V?$allocator@D@2@@std@@U?$pair@V?$basic_string@DU?$char_traits@D@std@@V?$allocator@D@2@@std@@I@2@@std@@PEAX@std@@@std@@QEAAXQEAU?$_Tree_node@U?$pair@$$CBV?$basic_string@DU?$char_traits@D@std@@V?$allocator@D@2@@std@@U?$pair@V?$basic_string@DU?$char_traits@D@std@@V?$allocator@D@2@@std@@I@2@@std@@PEAX@2@_K@Z 0000000180024580 f i MovieFFMpeg:MovieFFMpeg.obj
 0001:00023580       ?deallocate@?$allocator@U?$_Tree_node@U?$pair@$$CBU?$pair@PEAVMovieFFMpegReader@TwkMovie@@H@std@@UContext@ContextPool@TwkMovie@@@std@@PEAX@std@@@std@@QEAAXQEAU?$_Tree_node@U?$pair@$$CBU?$pair@PEAVMovieFFMpegReader@TwkMovie@@H@std@@UContext@ContextPool@TwkMovie@@@std@@PEAX@2@_K@Z 0000000180024580 f i MovieFFMpeg:MovieFFMpeg.obj
 0001:000235c0       ?deallocate@?$allocator@U?$_Tree_node@U?$pair@$$CBU?$pair@V?$basic_string@DU?$char_traits@D@std@@V?$allocator@D@2@@std@@H@std@@V?$vector@HV?$allocator@H@std@@@2@@std@@PEAX@std@@@std@@QEAAXQEAU?$_Tree_node@U?$pair@$$CBU?$pair@V?$basic_string@DU?$char_traits@D@std@@V?$allocator@D@2@@std@@H@std@@V?$vector@HV?$allocator@H@std@@@2@@std@@PEAX@2@_K@Z 00000001800245c0 f i MovieFFMpeg:MovieFFMpeg.obj
 0001:000235c0       ?deallocate@?$allocator@UParameter@MovieIO@TwkMovie@@@std@@QEAAXQEAUParameter@MovieIO@TwkMovie@@_K@Z 00000001800245c0 f i MovieFFMpeg:MovieFFMpeg.obj
 0001:000235c0       ?deallocate@?$allocator@U?$_Tree_node@U?$pair@$$CBV?$basic_string@DU?$char_traits@D@std@@V?$allocator@D@2@@std@@V12@@std@@PEAX@std@@@std@@QEAAXQEAU?$_Tree_node@U?$pair@$$CBV?$basic_string@DU?$char_traits@D@std@@V?$allocator@D@2@@std@@V12@@std@@PEAX@2@_K@Z 00000001800245c0 f i MovieFFMpeg:MovieFFMpeg.obj
 0001:00023610       ?deallocate@?$allocator@U?$_Tree_node@U?$pair@$$CBV?$basic_string@DU?$char_traits@D@std@@V?$allocator@D@2@@std@@H@std@@PEAX@std@@@std@@QEAAXQEAU?$_Tree_node@U?$pair@$$CBV?$basic_string@DU?$char_traits@D@std@@V?$allocator@D@2@@std@@H@std@@PEAX@2@_K@Z 0000000180024610 f i MovieFFMpeg:MovieFFMpeg.obj
 0001:00023660       ?deallocate@?$allocator@UViewInfo@FBInfo@TwkFB@@@std@@QEAAXQEAUViewInfo@FBInfo@TwkFB@@_K@Z 0000000180024660 f i MovieFFMpeg:MovieFFMpeg.obj
 0001:00023660       ?deallocate@?$allocator@U?$_Tree_node@U?$pair@$$CBV?$basic_string@DU?$char_traits@D@std@@V?$allocator@D@2@@std@@V?$set@HU?$less@H@std@@V?$allocator@H@2@@2@@std@@PEAX@std@@@std@@QEAAXQEAU?$_Tree_node@U?$pair@$$CBV?$basic_string@DU?$char_traits@D@std@@V?$allocator@D@2@@std@@V?$set@HU?$less@H@std@@V?$allocator@H@2@@2@@std@@PEAX@2@_K@Z 0000000180024660 f i MovieFFMpeg:MovieFFMpeg.obj
 0001:000236b0       ?deallocate@?$allocator@U?$_Tree_node@U?$pair@$$CBW4Channels@TwkAudio@@UChannelMixState@2@@std@@PEAX@std@@@std@@QEAAXQEAU?$_Tree_node@U?$pair@$$CBW4Channels@TwkAudio@@UChannelMixState@2@@std@@PEAX@2@_K@Z 00000001800246b0 f i MovieFFMpeg:MovieFFMpeg.obj
 0001:000236f0       ?deallocate@?$allocator@U?$_Tree_node@U?$pair@$$CB_J_J@std@@PEAX@std@@@std@@QEAAXQEAU?$_Tree_node@U?$pair@$$CB_J_J@std@@PEAX@2@_K@Z 00000001800246f0 f i MovieFFMpeg:MovieFFMpeg.obj
 0001:00023740       ?deallocate@?$allocator@UChapterInfo@TwkMovie@@@std@@QEAAXQEAUChapterInfo@TwkMovie@@_K@Z 0000000180024740 f i MovieFFMpeg:MovieFFMpeg.obj
 0001:00023790       ?deallocate@?$replacement_allocator@M@stl_ext@@QEAAXPEAM_K@Z 0000000180024790 f i MovieFFMpeg:MovieFFMpeg.obj
 0001:000237a0       ?decodeAudioForBuffer@MovieFFMpegReader@TwkMovie@@AEAAHPEAUAudioTrack@2@@Z 00000001800247a0 f   MovieFFMpeg:MovieFFMpeg.obj
 0001:00023960       ?decodeImageAtFrame@MovieFFMpegReader@TwkMovie@@AEAAPEAVFrameBuffer@TwkFB@@HPEAUVideoTrack@2@@Z 0000000180024960 f   MovieFFMpeg:MovieFFMpeg.obj
 0001:00024bd0       ?defaultFPS@MovieFFMpegIO@TwkMovie@@QEBANXZ 0000000180025bd0 f   MovieFFMpeg:MovieFFMpeg.obj
 0001:00024c90       ?erase@?$_Tree@V?$_Tmap_traits@U?$pair@HH@std@@V?$vector@HV?$allocator@H@std@@@2@U?$less@U?$pair@HH@std@@@2@V?$allocator@U?$pair@$$CBU?$pair@HH@std@@V?$vector@HV?$allocator@H@std@@@2@@std@@@2@$0A@@std@@@std@@QEAA?AV?$_Tree_iterator@V?$_Tree_val@U?$_Tree_simple_types@U?$pair@$$CBU?$pair@HH@std@@V?$vector@HV?$allocator@H@std@@@2@@std@@@std@@@std@@@2@V?$_Tree_const_iterator@V?$_Tree_val@U?$_Tree_simple_types@U?$pair@$$CBU?$pair@HH@std@@V?$vector@HV?$allocator@H@std@@@2@@std@@@std@@@std@@@2@0@Z 0000000180025c90 f i MovieFFMpeg:MovieFFMpeg.obj
 0001:00024e40       ?erase@?$_Tree@V?$_Tmap_traits@U?$pair@V?$basic_string@DU?$char_traits@D@std@@V?$allocator@D@2@@std@@H@std@@V?$vector@HV?$allocator@H@std@@@2@U?$less@U?$pair@V?$basic_string@DU?$char_traits@D@std@@V?$allocator@D@2@@std@@H@std@@@2@V?$allocator@U?$pair@$$CBU?$pair@V?$basic_string@DU?$char_traits@D@std@@V?$allocator@D@2@@std@@H@std@@V?$vector@HV?$allocator@H@std@@@2@@std@@@2@$0A@@std@@@std@@QEAA?AV?$_Tree_iterator@V?$_Tree_val@U?$_Tree_simple_types@U?$pair@$$CBU?$pair@V?$basic_string@DU?$char_traits@D@std@@V?$allocator@D@2@@std@@H@std@@V?$vector@HV?$allocator@H@std@@@2@@std@@@std@@@std@@@2@V?$_Tree_const_iterator@V?$_Tree_val@U?$_Tree_simple_types@U?$pair@$$CBU?$pair@V?$basic_string@DU?$char_traits@D@std@@V?$allocator@D@2@@std@@H@std@@V?$vector@HV?$allocator@H@std@@@2@@std@@@std@@@std@@@2@0@Z 0000000180025e40 f i MovieFFMpeg:MovieFFMpeg.obj
 0001:00024fe0       ?erase@?$_Tree@V?$_Tmap_traits@V?$basic_string@DU?$char_traits@D@std@@V?$allocator@D@2@@std@@HU?$less@V?$basic_string@DU?$char_traits@D@std@@V?$allocator@D@2@@std@@@2@V?$allocator@U?$pair@$$CBV?$basic_string@DU?$char_traits@D@std@@V?$allocator@D@2@@std@@H@std@@@2@$0A@@std@@@std@@QEAA?AV?$_Tree_iterator@V?$_Tree_val@U?$_Tree_simple_types@U?$pair@$$CBV?$basic_string@DU?$char_traits@D@std@@V?$allocator@D@2@@std@@H@std@@@std@@@std@@@2@V?$_Tree_const_iterator@V?$_Tree_val@U?$_Tree_simple_types@U?$pair@$$CBV?$basic_string@DU?$char_traits@D@std@@V?$allocator@D@2@@std@@H@std@@@std@@@std@@@2@0@Z 0000000180025fe0 f i MovieFFMpeg:MovieFFMpeg.obj
 0001:00025190       ?erase@?$_Tree@V?$_Tmap_traits@V?$basic_string@DU?$char_traits@D@std@@V?$allocator@D@2@@std@@U?$pair@V?$basic_string@DU?$char_traits@D@std@@V?$allocator@D@2@@std@@I@2@U?$less@V?$basic_string@DU?$char_traits@D@std@@V?$allocator@D@2@@std@@@2@V?$allocator@U?$pair@$$CBV?$basic_string@DU?$char_traits@D@std@@V?$allocator@D@2@@std@@U?$pair@V?$basic_string@DU?$char_traits@D@std@@V?$allocator@D@2@@std@@I@2@@std@@@2@$0A@@std@@@std@@QEAA?AV?$_Tree_iterator@V?$_Tree_val@U?$_Tree_simple_types@U?$pair@$$CBV?$basic_string@DU?$char_traits@D@std@@V?$allocator@D@2@@std@@U?$pair@V?$basic_string@DU?$char_traits@D@std@@V?$allocator@D@2@@std@@I@2@@std@@@std@@@std@@@2@V?$_Tree_const_iterator@V?$_Tree_val@U?$_Tree_simple_types@U?$pair@$$CBV?$basic_string@DU?$char_traits@D@std@@V?$allocator@D@2@@std@@U?$pair@V?$basic_string@DU?$char_traits@D@std@@V?$allocator@D@2@@std@@I@2@@std@@@std@@@std@@@2@0@Z 0000000180026190 f i MovieFFMpeg:MovieFFMpeg.obj
 0001:00025330       ?erase@?$_Tree@V?$_Tmap_traits@V?$basic_string@DU?$char_traits@D@std@@V?$allocator@D@2@@std@@V12@U?$less@V?$basic_string@DU?$char_traits@D@std@@V?$allocator@D@2@@std@@@2@V?$allocator@U?$pair@$$CBV?$basic_string@DU?$char_traits@D@std@@V?$allocator@D@2@@std@@V12@@std@@@2@$0A@@std@@@std@@QEAA?AV?$_Tree_iterator@V?$_Tree_val@U?$_Tree_simple_types@U?$pair@$$CBV?$basic_string@DU?$char_traits@D@std@@V?$allocator@D@2@@std@@V12@@std@@@std@@@std@@@2@V?$_Tree_const_iterator@V?$_Tree_val@U?$_Tree_simple_types@U?$pair@$$CBV?$basic_string@DU?$char_traits@D@std@@V?$allocator@D@2@@std@@V12@@std@@@std@@@std@@@2@0@Z 0000000180026330 f i MovieFFMpeg:MovieFFMpeg.obj
 0001:000254d0       ?erase@?$_Tree@V?$_Tmap_traits@V?$basic_string@DU?$char_traits@D@std@@V?$allocator@D@2@@std@@V12@U?$less@V?$basic_string@DU?$char_traits@D@std@@V?$allocator@D@2@@std@@@2@V?$allocator@U?$pair@$$CBV?$basic_string@DU?$char_traits@D@std@@V?$allocator@D@2@@std@@V12@@std@@@2@$0A@@std@@@std@@QEAA_KAEBV?$basic_string@DU?$char_traits@D@std@@V?$allocator@D@2@@2@@Z 00000001800264d0 f i MovieFFMpeg:MovieFFMpeg.obj
 0001:00025610       ?erase@?$_Tree@V?$_Tmap_traits@V?$basic_string@DU?$char_traits@D@std@@V?$allocator@D@2@@std@@V?$set@HU?$less@H@std@@V?$allocator@H@2@@2@U?$less@V?$basic_string@DU?$char_traits@D@std@@V?$allocator@D@2@@std@@@2@V?$allocator@U?$pair@$$CBV?$basic_string@DU?$char_traits@D@std@@V?$allocator@D@2@@std@@V?$set@HU?$less@H@std@@V?$allocator@H@2@@2@@std@@@2@$0A@@std@@@std@@QEAA?AV?$_Tree_iterator@V?$_Tree_val@U?$_Tree_simple_types@U?$pair@$$CBV?$basic_string@DU?$char_traits@D@std@@V?$allocator@D@2@@std@@V?$set@HU?$less@H@std@@V?$allocator@H@2@@2@@std@@@std@@@std@@@2@V?$_Tree_const_iterator@V?$_Tree_val@U?$_Tree_simple_types@U?$pair@$$CBV?$basic_string@DU?$char_traits@D@std@@V?$allocator@D@2@@std@@V?$set@HU?$less@H@std@@V?$allocator@H@2@@2@@std@@@std@@@std@@@2@0@Z 0000000180026610 f i MovieFFMpeg:MovieFFMpeg.obj
 0001:000257b0       ?erase@?$_Tree@V?$_Tmap_traits@W4Channels@TwkAudio@@UChannelMixState@2@U?$less@W4Channels@TwkAudio@@@std@@V?$allocator@U?$pair@$$CBW4Channels@TwkAudio@@UChannelMixState@2@@std@@@5@$0A@@std@@@std@@QEAA?AV?$_Tree_iterator@V?$_Tree_val@U?$_Tree_simple_types@U?$pair@$$CBW4Channels@TwkAudio@@UChannelMixState@2@@std@@@std@@@std@@@2@V?$_Tree_const_iterator@V?$_Tree_val@U?$_Tree_simple_types@U?$pair@$$CBW4Channels@TwkAudio@@UChannelMixState@2@@std@@@std@@@std@@@2@0@Z 00000001800267b0 f i MovieFFMpeg:MovieFFMpeg.obj
 0001:00025950       ?erase@?$_Tree@V?$_Tset_traits@_JU?$less@_J@std@@V?$allocator@_J@2@$0A@@std@@@std@@QEAA?AV?$_Tree_const_iterator@V?$_Tree_val@U?$_Tree_simple_types@_J@std@@@std@@@2@V32@0@Z 0000000180026950 f i MovieFFMpeg:MovieFFMpeg.obj
 0001:00025a80       ?fillAudio@MovieFFMpegWriter@TwkMovie@@AEAA_NPEAVMovie@2@N_N@Z 0000000180026a80 f   MovieFFMpeg:MovieFFMpeg.obj
 0001:000263b0       ?fillVideo@MovieFFMpegWriter@TwkMovie@@AEAAXV?$vector@PEAVFrameBuffer@TwkFB@@V?$allocator@PEAVFrameBuffer@TwkFB@@@std@@@std@@H_N@Z 00000001800273b0 f   MovieFFMpeg:MovieFFMpeg.obj
 0001:00026840       ?find@?$_Tree@V?$_Tmap_traits@V?$basic_string@DU?$char_traits@D@std@@V?$allocator@D@2@@std@@HU?$less@V?$basic_string@DU?$char_traits@D@std@@V?$allocator@D@2@@std@@@2@V?$allocator@U?$pair@$$CBV?$basic_string@DU?$char_traits@D@std@@V?$allocator@D@2@@std@@H@std@@@2@$0A@@std@@@std@@QEAA?AV?$_Tree_iterator@V?$_Tree_val@U?$_Tree_simple_types@U?$pair@$$CBV?$basic_string@DU?$char_traits@D@std@@V?$allocator@D@2@@std@@H@std@@@std@@@std@@@2@AEBV?$basic_string@DU?$char_traits@D@std@@V?$allocator@D@2@@2@@Z 0000000180027840 f i MovieFFMpeg:MovieFFMpeg.obj
 0001:00026b70       ?findImageWithBestTimestamp_legacy@MovieFFMpegReader@TwkMovie@@AEAA_NHHPEAUAVStream@@PEAUVideoTrack@2@@Z 0000000180027b70 f   MovieFFMpeg:MovieFFMpeg.obj
 0001:00026ed0       ?findStreamInfo@MovieFFMpegReader@TwkMovie@@AEAAXXZ 0000000180027ed0 f   MovieFFMpeg:MovieFFMpeg.obj
 0001:00026f90       ?finishTrackFBAttrs@MovieFFMpegReader@TwkMovie@@AEAAXPEAVFrameBuffer@TwkFB@@V?$basic_string@DU?$char_traits@D@std@@V?$allocator@D@2@@std@@@Z 0000000180027f90 f   MovieFFMpeg:MovieFFMpeg.obj
 0001:00027670       ?flushContext@ContextPool@TwkMovie@@SAXPEAVMovieFFMpegReader@2@H@Z 0000000180028670 f   MovieFFMpeg:MovieFFMpeg.obj
 0001:00027990       ?getFirstFrame@MovieFFMpegReader@TwkMovie@@AEAA_JUAVRational@@@Z 0000000180028990 f   MovieFFMpeg:MovieFFMpeg.obj
 0001:00028420       ?getFormats@MovieFFMpegIO@TwkMovie@@QEBA?AV?$map@V?$basic_string@DU?$char_traits@D@std@@V?$allocator@D@2@@std@@U?$pair@V?$basic_string@DU?$char_traits@D@std@@V?$allocator@D@2@@std@@I@2@U?$less@V?$basic_string@DU?$char_traits@D@std@@V?$allocator@D@2@@std@@@2@V?$allocator@U?$pair@$$CBV?$basic_string@DU?$char_traits@D@std@@V?$allocator@D@2@@std@@U?$pair@V?$basic_string@DU?$char_traits@D@std@@V?$allocator@D@2@@std@@I@2@@std@@@2@@std@@XZ 0000000180029420 f   MovieFFMpeg:MovieFFMpeg.obj
 0001:00028eb0       ?getMovieInfo@MovieFFMpegIO@TwkMovie@@UEBAXAEBV?$basic_string@DU?$char_traits@D@std@@V?$allocator@D@2@@std@@AEAUMovieInfo@2@@Z 0000000180029eb0 f   MovieFFMpeg:MovieFFMpeg.obj
 0001:00029180       ?getWriterCodec@MovieFFMpegWriter@TwkMovie@@AEAA?AV?$basic_string@DU?$char_traits@D@std@@V?$allocator@D@2@@std@@V34@V?$vector@V?$basic_string@DU?$char_traits@D@std@@V?$allocator@D@2@@std@@V?$allocator@V?$basic_string@DU?$char_traits@D@std@@V?$allocator@D@2@@std@@@2@@4@@Z 000000018002a180 f   MovieFFMpeg:MovieFFMpeg.obj
 0001:00029740       ?get_event@basic_timed_mutex@detail@boost@@AEAAPEAXXZ 000000018002a740 f i MovieFFMpeg:MovieFFMpeg.obj
 0001:000297d0       ?idAudioChannels@MovieFFMpegReader@TwkMovie@@AEAA?AVChannelsVector@TwkAudio@@_KH@Z 000000018002a7d0 f   MovieFFMpeg:MovieFFMpeg.obj
 0001:00029cc0       ?identifiersAtFrame@MovieFFMpegReader@TwkMovie@@UEAAXAEBUReadRequest@Movie@2@AEAV?$vector@V?$basic_string@DU?$char_traits@D@std@@V?$allocator@D@2@@std@@V?$allocator@V?$basic_string@DU?$char_traits@D@std@@V?$allocator@D@2@@std@@@2@@std@@@Z 000000018002acc0 f   MovieFFMpeg:MovieFFMpeg.obj
 0001:0002a0e0       ?imagesAtFrame@MovieFFMpegReader@TwkMovie@@UEAAXAEBUReadRequest@Movie@2@AEAV?$vector@PEAVFrameBuffer@TwkFB@@V?$allocator@PEAVFrameBuffer@TwkFB@@@std@@@std@@@Z 000000018002b0e0 f   MovieFFMpeg:MovieFFMpeg.obj
 0001:0002a580       ?init@MovieIO@TwkMovie@@UEAAXXZ 000000018002b580 f i MovieFFMpeg:MovieFFMpeg.obj
 0001:0002a580       ?invalidateFileSystemInfo@Movie@TwkMovie@@UEAAXXZ 000000018002b580 f i MovieFFMpeg:MovieFFMpeg.obj
 0001:0002a580       _guard_check_icall_nop     000000018002b580 f i MSVCRT:guard_support.obj
 0001:0002a580       ?scan@MovieFFMpegReader@TwkMovie@@UEAAXXZ 000000018002b580 f i MovieFFMpeg:MovieFFMpeg.obj
 0001:0002a590       ?initRefMovie@MovieFFMpegWriter@TwkMovie@@AEAAXPEAVReformattingMovie@2@@Z 000000018002b590 f   MovieFFMpeg:MovieFFMpeg.obj
 0001:0002a950       ?initVideoTrack@MovieFFMpegWriter@TwkMovie@@AEAAXPEAUAVStream@@@Z 000000018002b950 f   MovieFFMpeg:MovieFFMpeg.obj
 0001:0002add0       ?initializeAll@MovieFFMpegReader@TwkMovie@@AEAAXXZ 000000018002bdd0 f   MovieFFMpeg:MovieFFMpeg.obj
 0001:0002c650       ?initializeAudio@MovieFFMpegReader@TwkMovie@@AEAAXXZ 000000018002d650 f   MovieFFMpeg:MovieFFMpeg.obj
 0001:0002d500       ?initializeVideo@MovieFFMpegReader@TwkMovie@@AEAAXHH@Z 000000018002e500 f   MovieFFMpeg:MovieFFMpeg.obj
 0001:0002dfd0       ?language@MovieFFMpegIO@TwkMovie@@QEBA?AV?$basic_string@DU?$char_traits@D@std@@V?$allocator@D@2@@std@@XZ 000000018002efd0 f   MovieFFMpeg:MovieFFMpeg.obj
 0001:0002e0a0       ?movieReader@MovieFFMpegIO@TwkMovie@@UEBAPEAVMovieReader@2@XZ 000000018002f0a0 f   MovieFFMpeg:MovieFFMpeg.obj
 0001:0002e0e0       ?movieWriter@MovieFFMpegIO@TwkMovie@@UEBAPEAVMovieWriter@2@XZ 000000018002f0e0 f   MovieFFMpeg:MovieFFMpeg.obj
 0001:0002e230       ?needsScan@MovieFFMpegReader@TwkMovie@@UEBA_NXZ 000000018002f230 f i MovieFFMpeg:MovieFFMpeg.obj
 0001:0002e240       ?oneTrackAudioFillBuffer@MovieFFMpegReader@TwkMovie@@AEAA_JPEAUAudioTrack@2@@Z 000000018002f240 f   MovieFFMpeg:MovieFFMpeg.obj
 0001:0002e730       ?open@MovieFFMpegReader@TwkMovie@@UEAAXAEBV?$basic_string@DU?$char_traits@D@std@@V?$allocator@D@2@@std@@AEBUMovieInfo@2@AEBUReadRequest@Movie@2@@Z 000000018002f730 f   MovieFFMpeg:MovieFFMpeg.obj
 0001:0002e860       ?open@MovieFFMpegWriter@TwkMovie@@UEAA?AUMovieInfo@2@AEBU32@AEBV?$basic_string@DU?$char_traits@D@std@@V?$allocator@D@2@@std@@AEBUWriteRequest@Movie@2@@Z 000000018002f860 f   MovieFFMpeg:MovieFFMpeg.obj
 0001:0002f4e0       ?openAVCodec@MovieFFMpegReader@TwkMovie@@AEAA_NH@Z 00000001800304e0 f   MovieFFMpeg:MovieFFMpeg.obj
 0001:0002f7d0       ?openAVFormat@MovieFFMpegReader@TwkMovie@@AEAA_NXZ 00000001800307d0 f   MovieFFMpeg:MovieFFMpeg.obj
 0001:0002fbf0       ?push_back@?$vector@PEAVAudioTrack@TwkMovie@@V?$allocator@PEAVAudioTrack@TwkMovie@@@std@@@std@@QEAAXAEBQEAUAudioTrack@TwkMovie@@@Z 0000000180030bf0 f i MovieFFMpeg:MovieFFMpeg.obj
 0001:0002fc10       ?push_back@?$vector@U?$pair@V?$basic_string@DU?$char_traits@D@std@@V?$allocator@D@2@@std@@V12@@std@@V?$allocator@U?$pair@V?$basic_string@DU?$char_traits@D@std@@V?$allocator@D@2@@std@@V12@@std@@@2@@std@@QEAAXAEBU?$pair@V?$basic_string@DU?$char_traits@D@std@@V?$allocator@D@2@@std@@V12@@2@@Z 0000000180030c10 f i MovieFFMpeg:MovieFFMpeg.obj
 0001:0002fc90       ?push_back@?$vector@UParameter@MovieIO@TwkMovie@@V?$allocator@UParameter@MovieIO@TwkMovie@@@std@@@std@@QEAAX$$QEAUParameter@MovieIO@TwkMovie@@@Z 0000000180030c90 f i MovieFFMpeg:MovieFFMpeg.obj
 0001:0002fd30       ?readPacketFromStream@MovieFFMpegReader@TwkMovie@@AEAA_NHPEAUVideoTrack@2@@Z 0000000180030d30 f   MovieFFMpeg:MovieFFMpeg.obj
 0001:0003001c       ?rethrow@?$clone_impl@U?$error_info_injector@Vthread_resource_error@boost@@@exception_detail@boost@@@exception_detail@boost@@$0PPPPPPPM@A@EBAXXZ 000000018003101c f i MovieFFMpeg:MovieFFMpeg.obj
 0001:00030030       ?rethrow@?$clone_impl@U?$error_info_injector@Vthread_resource_error@boost@@@exception_detail@boost@@@exception_detail@boost@@EEBAXXZ 0000000180031030 f i MovieFFMpeg:MovieFFMpeg.obj
 0001:00030070       ?scanProgress@MovieFFMpegReader@TwkMovie@@UEBAMXZ 0000000180031070 f i MovieFFMpeg:MovieFFMpeg.obj
 0001:00030080       ?sendPacketToDecoder@MovieFFMpegReader@TwkMovie@@AEAAXPEAUAVStream@@PEAUVideoTrack@2@@Z 0000000180031080 f   MovieFFMpeg:MovieFFMpeg.obj
 0001:00030150       ?setOption@MovieFFMpegWriter@TwkMovie@@AEAA_NPEBVAVOption@@PEAXV?$basic_string@DU?$char_traits@D@std@@V?$allocator@D@2@@std@@@Z 0000000180031150 f   MovieFFMpeg:MovieFFMpeg.obj
 0001:00030940       ?setPixelAspectRatio@FrameBuffer@TwkFB@@QEAAXM@Z 0000000180031940 f i MovieFFMpeg:MovieFFMpeg.obj
 0001:00030a10       ?snagColr@MovieFFMpegReader@TwkMovie@@AEAA_NPEAUAVCodecContext@@PEAUVideoTrack@2@@Z 0000000180031a10 f   MovieFFMpeg:MovieFFMpeg.obj
 0001:00030ce0       ?snagMetadata@MovieFFMpegReader@TwkMovie@@AEAAXPEAVAVDictionary@@V?$basic_string@DU?$char_traits@D@std@@V?$allocator@D@2@@std@@PEAVFrameBuffer@TwkFB@@@Z 0000000180031ce0 f   MovieFFMpeg:MovieFFMpeg.obj
 0001:00031350       ?snagVideoColorInformation@MovieFFMpegReader@TwkMovie@@AEAA_NPEAUVideoTrack@2@@Z 0000000180032350 f   MovieFFMpeg:MovieFFMpeg.obj
 0001:00032e70       ?snagVideoFrameType@MovieFFMpegReader@TwkMovie@@AEAA?AV?$basic_string@DU?$char_traits@D@std@@V?$allocator@D@2@@std@@PEAUVideoTrack@2@@Z 0000000180033e70 f   MovieFFMpeg:MovieFFMpeg.obj
 0001:00033090       ?str@?$basic_ostringstream@DU?$char_traits@D@std@@V?$allocator@D@2@@std@@QEBA?AV?$basic_string@DU?$char_traits@D@std@@V?$allocator@D@2@@2@XZ 0000000180034090 f i MovieFFMpeg:MovieFFMpeg.obj
 0001:00033140       ?streamLang@MovieFFMpegReader@TwkMovie@@AEAA?AV?$basic_string@DU?$char_traits@D@std@@V?$allocator@D@2@@std@@H@Z 0000000180034140 f   MovieFFMpeg:MovieFFMpeg.obj
 0001:00033290       ?trackFromStreamIndex@MovieFFMpegReader@TwkMovie@@AEAAXHAEAPEAUVideoTrack@2@AEAPEAUAudioTrack@2@@Z 0000000180034290 f   MovieFFMpeg:MovieFFMpeg.obj
 0001:00033360       ?validateCodecs@MovieFFMpegWriter@TwkMovie@@AEAAXPEAV?$basic_string@DU?$char_traits@D@std@@V?$allocator@D@2@@std@@0@Z 0000000180034360 f   MovieFFMpeg:MovieFFMpeg.obj
 0001:000339d0       ?valueAsString@?$TypedFBAttribute@M@TwkFB@@UEBA?AV?$basic_string@DU?$char_traits@D@std@@V?$allocator@D@2@@std@@XZ 00000001800349d0 f i MovieFFMpeg:MovieFFMpeg.obj
 0001:00033b80       ?valueAsString@?$TypedFBAttribute@V?$basic_string@DU?$char_traits@D@std@@V?$allocator@D@2@@std@@@TwkFB@@UEBA?AV?$basic_string@DU?$char_traits@D@std@@V?$allocator@D@2@@std@@XZ 0000000180034b80 f i MovieFFMpeg:MovieFFMpeg.obj
 0001:00033d40       ?what@system_error@system@boost@@UEBAPEBDXZ 0000000180034d40 f i MovieFFMpeg:MovieFFMpeg.obj
 0001:00033ed0       ?write@MovieFFMpegWriter@TwkMovie@@UEAA_NPEAVMovie@2@@Z 0000000180034ed0 f   MovieFFMpeg:MovieFFMpeg.obj
 0001:00034660       ?write@MovieFFMpegWriter@TwkMovie@@UEAA_NPEAVMovie@2@AEBV?$basic_string@DU?$char_traits@D@std@@V?$allocator@D@2@@std@@AEAUWriteRequest@32@@Z 0000000180035660 f   MovieFFMpeg:MovieFFMpeg.obj
 0001:00034710       __local_stdio_scanf_options 0000000180035710 f i MovieFFMpeg:MovieFFMpeg.obj
 0001:00034740       sprintf                    0000000180035740 f i MovieFFMpeg:MovieFFMpeg.obj
 0001:000347a0       sscanf                     00000001800357a0 f i MovieFFMpeg:MovieFFMpeg.obj
 0001:00034800       ?assembleAtomName@mp4v2Utils@@YA_NPEAXHV?$basic_string@DU?$char_traits@D@std@@V?$allocator@D@2@@std@@AEAV23@@Z 0000000180035800 f   mp4v2Utils:mp4v2Utils.obj
 0001:00034c30       ?closeFile@mp4v2Utils@@YA_NAEAPEAX@Z 0000000180035c30 f   mp4v2Utils:mp4v2Utils.obj
 0001:00034c50       ?getColrType@mp4v2Utils@@YA_NPEAXHAEAV?$basic_string@DU?$char_traits@D@std@@V?$allocator@D@2@@std@@@Z 0000000180035c50 f   mp4v2Utils:mp4v2Utils.obj
 0001:00034e70       ?getNCLCValues@mp4v2Utils@@YA_NPEAXHAEA_K11@Z 0000000180035e70 f   mp4v2Utils:mp4v2Utils.obj
 0001:00035100       ?getPROFValues@mp4v2Utils@@YA_NPEAXHAEAPEAEAEAI@Z 0000000180036100 f   mp4v2Utils:mp4v2Utils.obj
 0001:000352b0       ?readFile@mp4v2Utils@@YA_NV?$basic_string@DU?$char_traits@D@std@@V?$allocator@D@2@@std@@AEAPEAX@Z 00000001800362b0 f   mp4v2Utils:mp4v2Utils.obj
 0001:00035349       ?hasAudio@Movie@TwkMovie@@UEBA_NXZ 0000000180036349 f   TwkMovie:TwkMovie.dll
 0001:0003534f       ?hasVideo@Movie@TwkMovie@@UEBA_NXZ 000000018003634f f   TwkMovie:TwkMovie.dll
 0001:00035355       ?canConvertAudioRate@Movie@TwkMovie@@UEBA_NXZ 0000000180036355 f   TwkMovie:TwkMovie.dll
 0001:0003535b       ?attributesAtFrame@Movie@TwkMovie@@UEAAXAEBUReadRequest@12@AEAV?$vector@PEAVFrameBuffer@TwkFB@@V?$allocator@PEAVFrameBuffer@TwkFB@@@std@@@std@@@Z 000000018003635b f   TwkMovie:TwkMovie.dll
 0001:00035361       ?flush@Movie@TwkMovie@@UEAAXXZ 0000000180036361 f   TwkMovie:TwkMovie.dll
 0001:00035367       ?getBoolAttribute@Movie@TwkMovie@@UEBA_NAEBV?$basic_string@DU?$char_traits@D@std@@V?$allocator@D@2@@std@@@Z 0000000180036367 f   TwkMovie:TwkMovie.dll
 0001:0003536d       ?setBoolAttribute@Movie@TwkMovie@@UEAAXAEBV?$basic_string@DU?$char_traits@D@std@@V?$allocator@D@2@@std@@_N@Z 000000018003636d f   TwkMovie:TwkMovie.dll
 0001:00035373       ?getIntAttribute@Movie@TwkMovie@@UEBAHAEBV?$basic_string@DU?$char_traits@D@std@@V?$allocator@D@2@@std@@@Z 0000000180036373 f   TwkMovie:TwkMovie.dll
 0001:00035379       ?setIntAttribute@Movie@TwkMovie@@UEAAXAEBV?$basic_string@DU?$char_traits@D@std@@V?$allocator@D@2@@std@@H@Z 0000000180036379 f   TwkMovie:TwkMovie.dll
 0001:0003537f       ?getStringAttribute@Movie@TwkMovie@@UEBA?AV?$basic_string@DU?$char_traits@D@std@@V?$allocator@D@2@@std@@AEBV34@@Z 000000018003637f f   TwkMovie:TwkMovie.dll
 0001:00035385       ?setStringAttribute@Movie@TwkMovie@@UEAAXAEBV?$basic_string@DU?$char_traits@D@std@@V?$allocator@D@2@@std@@0@Z 0000000180036385 f   TwkMovie:TwkMovie.dll
 0001:0003538b       ?getDoubleAttribute@Movie@TwkMovie@@UEBANAEBV?$basic_string@DU?$char_traits@D@std@@V?$allocator@D@2@@std@@@Z 000000018003638b f   TwkMovie:TwkMovie.dll
 0001:00035391       ?setDoubleAttribute@Movie@TwkMovie@@UEBAXAEBV?$basic_string@DU?$char_traits@D@std@@V?$allocator@D@2@@std@@N@Z 0000000180036391 f   TwkMovie:TwkMovie.dll
 0001:00035397       ??0MovieReader@TwkMovie@@QEAA@XZ 0000000180036397 f   TwkMovie:TwkMovie.dll
 0001:0003539d       ??1MovieReader@TwkMovie@@UEAA@XZ 000000018003639d f   TwkMovie:TwkMovie.dll
 0001:000353a3       ??0MovieWriter@TwkMovie@@QEAA@XZ 00000001800363a3 f   TwkMovie:TwkMovie.dll
 0001:000353a9       ??1MovieWriter@TwkMovie@@UEAA@XZ 00000001800363a9 f   TwkMovie:TwkMovie.dll
 0001:000353af       ?open@MovieWriter@TwkMovie@@UEAA?AUMovieInfo@2@AEBU32@AEBV?$basic_string@DU?$char_traits@D@std@@V?$allocator@D@2@@std@@AEBUWriteRequest@Movie@2@@Z 00000001800363af f   TwkMovie:TwkMovie.dll
 0001:000353b5       ?reallyVerbose@MovieWriter@TwkMovie@@SA_NXZ 00000001800363b5 f   TwkMovie:TwkMovie.dll
 0001:000353bb       ??0MovieIO@TwkMovie@@QEAA@AEBV?$basic_string@DU?$char_traits@D@std@@V?$allocator@D@2@@std@@0@Z 00000001800363bb f   TwkMovie:TwkMovie.dll
 0001:000353c1       ??1MovieIO@TwkMovie@@UEAA@XZ 00000001800363c1 f   TwkMovie:TwkMovie.dll
 0001:000353c7       ?getIntAttribute@MovieIO@TwkMovie@@QEBAHAEBV?$basic_string@DU?$char_traits@D@std@@V?$allocator@D@2@@std@@@Z 00000001800363c7 f   TwkMovie:TwkMovie.dll
 0001:000353cd       ?setIntAttribute@MovieIO@TwkMovie@@QEAAXAEBV?$basic_string@DU?$char_traits@D@std@@V?$allocator@D@2@@std@@H@Z 00000001800363cd f   TwkMovie:TwkMovie.dll
 0001:000353d3       ?getStringAttribute@MovieIO@TwkMovie@@QEBA?AV?$basic_string@DU?$char_traits@D@std@@V?$allocator@D@2@@std@@AEBV34@@Z 00000001800363d3 f   TwkMovie:TwkMovie.dll
 0001:000353d9       ?setStringAttribute@MovieIO@TwkMovie@@QEAAXAEBV?$basic_string@DU?$char_traits@D@std@@V?$allocator@D@2@@std@@0@Z 00000001800363d9 f   TwkMovie:TwkMovie.dll
 0001:000353df       ?getDoubleAttribute@MovieIO@TwkMovie@@QEBANAEBV?$basic_string@DU?$char_traits@D@std@@V?$allocator@D@2@@std@@@Z 00000001800363df f   TwkMovie:TwkMovie.dll
 0001:000353e5       ?setDoubleAttribute@MovieIO@TwkMovie@@QEBAXAEBV?$basic_string@DU?$char_traits@D@std@@V?$allocator@D@2@@std@@N@Z 00000001800363e5 f   TwkMovie:TwkMovie.dll
 0001:000353eb       ?addType@MovieIO@TwkMovie@@IEAAXAEBV?$basic_string@DU?$char_traits@D@std@@V?$allocator@D@2@@std@@0IAEBV?$vector@U?$pair@V?$basic_string@DU?$char_traits@D@std@@V?$allocator@D@2@@std@@V12@@std@@V?$allocator@U?$pair@V?$basic_string@DU?$char_traits@D@std@@V?$allocator@D@2@@std@@V12@@std@@@2@@4@1AEBV?$vector@UParameter@MovieIO@TwkMovie@@V?$allocator@UParameter@MovieIO@TwkMovie@@@std@@@4@2@Z 00000001800363eb f   TwkMovie:TwkMovie.dll
 0001:000353f1       ??0ReformattingMovie@TwkMovie@@QEAA@PEAVMovie@1@@Z 00000001800363f1 f   TwkMovie:TwkMovie.dll
 0001:000353f7       ?setFPS@ReformattingMovie@TwkMovie@@QEAAXM@Z 00000001800363f7 f   TwkMovie:TwkMovie.dll
 0001:000353fd       ?setAudio@ReformattingMovie@TwkMovie@@QEAAXM_KVChannelsVector@TwkAudio@@@Z 00000001800363fd f   TwkMovie:TwkMovie.dll
 0001:00035403       ?setOutputResolution@ReformattingMovie@TwkMovie@@QEAAXHH@Z 0000000180036403 f   TwkMovie:TwkMovie.dll
 0001:00035409       ??0Exception@TwkExc@@QEAA@AEBV01@@Z 0000000180036409 f   TwkExc:TwkExc.dll
 0001:0003540f       ??1Exception@TwkExc@@UEAA@XZ 000000018003640f f   TwkExc:TwkExc.dll
 0001:00035415       ??2FBAttribute@TwkFB@@SAPEAX_K@Z 0000000180036415 f   TwkFB:TwkFB.dll
 0001:0003541b       ??3FBAttribute@TwkFB@@SAXPEAX_K@Z 000000018003641b f   TwkFB:TwkFB.dll
 0001:00035421       ?ChromaPlacement@ColorSpace@TwkFB@@YA?AV?$basic_string@DU?$char_traits@D@std@@V?$allocator@D@2@@std@@XZ 0000000180036421 f   TwkFB:TwkFB.dll
 0001:00035427       ?Range@ColorSpace@TwkFB@@YA?AV?$basic_string@DU?$char_traits@D@std@@V?$allocator@D@2@@std@@XZ 0000000180036427 f   TwkFB:TwkFB.dll
 0001:0003542d       ?Rec709@ColorSpace@TwkFB@@YA?AV?$basic_string@DU?$char_traits@D@std@@V?$allocator@D@2@@std@@XZ 000000018003642d f   TwkFB:TwkFB.dll
 0001:00035433       ?Rec601@ColorSpace@TwkFB@@YA?AV?$basic_string@DU?$char_traits@D@std@@V?$allocator@D@2@@std@@XZ 0000000180036433 f   TwkFB:TwkFB.dll
 0001:00035439       ?SMPTE_C@ColorSpace@TwkFB@@YA?AV?$basic_string@DU?$char_traits@D@std@@V?$allocator@D@2@@std@@XZ 0000000180036439 f   TwkFB:TwkFB.dll
 0001:0003543f       ?SMPTE240M@ColorSpace@TwkFB@@YA?AV?$basic_string@DU?$char_traits@D@std@@V?$allocator@D@2@@std@@XZ 000000018003643f f   TwkFB:TwkFB.dll
 0001:00035445       ?ICCProfile@ColorSpace@TwkFB@@YA?AV?$basic_string@DU?$char_traits@D@std@@V?$allocator@D@2@@std@@XZ 0000000180036445 f   TwkFB:TwkFB.dll
 0001:0003544b       ?VideoRange@ColorSpace@TwkFB@@YA?AV?$basic_string@DU?$char_traits@D@std@@V?$allocator@D@2@@std@@XZ 000000018003644b f   TwkFB:TwkFB.dll
 0001:00035451       ?FullRange@ColorSpace@TwkFB@@YA?AV?$basic_string@DU?$char_traits@D@std@@V?$allocator@D@2@@std@@XZ 0000000180036451 f   TwkFB:TwkFB.dll
 0001:00035457       ?Left@ColorSpace@TwkFB@@YA?AV?$basic_string@DU?$char_traits@D@std@@V?$allocator@D@2@@std@@XZ 0000000180036457 f   TwkFB:TwkFB.dll
 0001:0003545d       ?Center@ColorSpace@TwkFB@@YA?AV?$basic_string@DU?$char_traits@D@std@@V?$allocator@D@2@@std@@XZ 000000018003645d f   TwkFB:TwkFB.dll
 0001:00035463       ?TopLeft@ColorSpace@TwkFB@@YA?AV?$basic_string@DU?$char_traits@D@std@@V?$allocator@D@2@@std@@XZ 0000000180036463 f   TwkFB:TwkFB.dll
 0001:00035469       ?Top@ColorSpace@TwkFB@@YA?AV?$basic_string@DU?$char_traits@D@std@@V?$allocator@D@2@@std@@XZ 0000000180036469 f   TwkFB:TwkFB.dll
 0001:0003546f       ?BottomLeft@ColorSpace@TwkFB@@YA?AV?$basic_string@DU?$char_traits@D@std@@V?$allocator@D@2@@std@@XZ 000000018003646f f   TwkFB:TwkFB.dll
 0001:00035475       ?Bottom@ColorSpace@TwkFB@@YA?AV?$basic_string@DU?$char_traits@D@std@@V?$allocator@D@2@@std@@XZ 0000000180036475 f   TwkFB:TwkFB.dll
 0001:0003547b       ?Gamma@ColorSpace@TwkFB@@YA?AV?$basic_string@DU?$char_traits@D@std@@V?$allocator@D@2@@std@@XZ 000000018003647b f   TwkFB:TwkFB.dll
 0001:00035481       ??2FrameBuffer@TwkFB@@SAPEAX_K@Z 0000000180036481 f   TwkFB:TwkFB.dll
 0001:00035487       ??3FrameBuffer@TwkFB@@SAXPEAX_K@Z 0000000180036487 f   TwkFB:TwkFB.dll
 0001:0003548d       ??0FrameBuffer@TwkFB@@QEAA@XZ 000000018003648d f   TwkFB:TwkFB.dll
 0001:00035493       ??1FrameBuffer@TwkFB@@QEAA@XZ 0000000180036493 f   TwkFB:TwkFB.dll
 0001:00035499       ??0FrameBuffer@TwkFB@@QEAA@HHHW4DataType@01@PEAEPEBV?$vector@V?$basic_string@DU?$char_traits@D@std@@V?$allocator@D@2@@std@@V?$allocator@V?$basic_string@DU?$char_traits@D@std@@V?$allocator@D@2@@std@@@2@@std@@W4Orientation@01@HH@Z 0000000180036499 f   TwkFB:TwkFB.dll
 0001:0003549f       ??0FrameBuffer@TwkFB@@QEAA@W4CoordinateTypes@01@HHHHW4DataType@01@PEAEPEBV?$vector@V?$basic_string@DU?$char_traits@D@std@@V?$allocator@D@2@@std@@V?$allocator@V?$basic_string@DU?$char_traits@D@std@@V?$allocator@D@2@@std@@@2@@std@@W4Orientation@01@_NHH@Z 000000018003649f f   TwkFB:TwkFB.dll
 0001:000354a5       ?copyFrom@FrameBuffer@TwkFB@@QEAAXPEBV12@@Z 00000001800364a5 f   TwkFB:TwkFB.dll
 0001:000354ab       ?appendPlane@FrameBuffer@TwkFB@@QEAAXPEAV12@@Z 00000001800364ab f   TwkFB:TwkFB.dll
 0001:000354b1       ?findAttribute@FrameBuffer@TwkFB@@QEAAPEAVFBAttribute@2@AEBV?$basic_string@DU?$char_traits@D@std@@V?$allocator@D@2@@std@@@Z 00000001800364b1 f   TwkFB:TwkFB.dll
 0001:000354b7       ?copyAttributesTo@FrameBuffer@TwkFB@@QEBAXPEAV12@@Z 00000001800364b7 f   TwkFB:TwkFB.dll
 0001:000354bd       ?appendAttributesAndPrefixTo@FrameBuffer@TwkFB@@QEBAXPEAV12@AEBV?$basic_string@DU?$char_traits@D@std@@V?$allocator@D@2@@std@@@Z 00000001800364bd f   TwkFB:TwkFB.dll
 0001:000354c3       ?deleteAttribute@FrameBuffer@TwkFB@@QEAAXPEBVFBAttribute@2@@Z 00000001800364c3 f   TwkFB:TwkFB.dll
 0001:000354c9       ?setPrimaryColorSpace@FrameBuffer@TwkFB@@QEAAXAEBV?$basic_string@DU?$char_traits@D@std@@V?$allocator@D@2@@std@@@Z 00000001800364c9 f   TwkFB:TwkFB.dll
 0001:000354cf       ?setTransferFunction@FrameBuffer@TwkFB@@QEAAXAEBV?$basic_string@DU?$char_traits@D@std@@V?$allocator@D@2@@std@@@Z 00000001800364cf f   TwkFB:TwkFB.dll
 0001:000354d5       ?setPrimaries@FrameBuffer@TwkFB@@QEAAXMMMMMMMM@Z 00000001800364d5 f   TwkFB:TwkFB.dll
 0001:000354db       ?setConversion@FrameBuffer@TwkFB@@QEAAXAEBV?$basic_string@DU?$char_traits@D@std@@V?$allocator@D@2@@std@@@Z 00000001800364db f   TwkFB:TwkFB.dll
 0001:000354e1       ?setRange@FrameBuffer@TwkFB@@QEAAXAEBV?$basic_string@DU?$char_traits@D@std@@V?$allocator@D@2@@std@@@Z 00000001800364e1 f   TwkFB:TwkFB.dll
 0001:000354e7       ?setICCprofile@FrameBuffer@TwkFB@@QEAAXPEBX_K@Z 00000001800364e7 f   TwkFB:TwkFB.dll
 0001:000354ed       ?idstream@FrameBuffer@TwkFB@@QEAAAEAV?$basic_stringstream@DU?$char_traits@D@std@@V?$allocator@D@2@@std@@XZ 00000001800364ed f   TwkFB:TwkFB.dll
 0001:000354f3       ?setIdentifier@FrameBuffer@TwkFB@@QEAAXAEBV?$basic_string@DU?$char_traits@D@std@@V?$allocator@D@2@@std@@@Z 00000001800364f3 f   TwkFB:TwkFB.dll
 0001:000354f9       ?flip@TwkFB@@YAXPEAVFrameBuffer@1@@Z 00000001800364f9 f   TwkFB:TwkFB.dll
 0001:000354ff       ?flop@TwkFB@@YAXPEAVFrameBuffer@1@@Z 00000001800364ff f   TwkFB:TwkFB.dll
 0001:00035505       ?identical@ChannelsVector@TwkAudio@@AEBA_NAEBV12@0@Z 0000000180036505 f   TwkAudio:TwkAudio.dll
 0001:0003550b       ?channelLayouts@TwkAudio@@YA?AV?$vector@W4Layout@TwkAudio@@V?$allocator@W4Layout@TwkAudio@@@std@@@std@@H@Z 000000018003650b f   TwkAudio:TwkAudio.dll
 0001:00035511       ?channelLayout@TwkAudio@@YA?AW4Layout@1@AEBVChannelsVector@1@@Z 0000000180036511 f   TwkAudio:TwkAudio.dll
 0001:00035517       ?layoutChannels@TwkAudio@@YA?AVChannelsVector@1@W4Layout@1@@Z 0000000180036517 f   TwkAudio:TwkAudio.dll
 0001:0003551d       ?channelString@TwkAudio@@YA?AV?$basic_string@DU?$char_traits@D@std@@V?$allocator@D@2@@std@@W4Channels@1@@Z 000000018003651d f   TwkAudio:TwkAudio.dll
 0001:00035523       ?initChannelsMap@TwkAudio@@YAXAEBVChannelsVector@1@0AEAV?$map@W4Channels@TwkAudio@@UChannelMixState@2@U?$less@W4Channels@TwkAudio@@@std@@V?$allocator@U?$pair@$$CBW4Channels@TwkAudio@@UChannelMixState@2@@std@@@5@@std@@@Z 0000000180036523 f   TwkAudio:TwkAudio.dll
 0001:00035529       ??0AudioBuffer@TwkAudio@@QEAA@_KVChannelsVector@1@NN0@Z 0000000180036529 f   TwkAudio:TwkAudio.dll
 0001:0003552f       ?reconfigure@AudioBuffer@TwkAudio@@QEAAX_KVChannelsVector@2@NN0@Z 000000018003652f f   TwkAudio:TwkAudio.dll
 0001:00035535       ?zero@AudioBuffer@TwkAudio@@QEAAXXZ 0000000180036535 f   TwkAudio:TwkAudio.dll
 0001:0003553b       ?interlace@TwkAudio@@YAXAEBV?$vector@V?$vector@MV?$replacement_allocator@M@stl_ext@@@std@@V?$allocator@V?$vector@MV?$replacement_allocator@M@stl_ext@@@std@@@2@@std@@PEAM_K2@Z 000000018003653b f   TwkAudio:TwkAudio.dll
 0001:00035541       ??0validation_error@program_options@boost@@QEAA@AEBV012@@Z 0000000180036541 f   boost_program_options-vc141-mt-x64-1_66:boost_program_options-vc141-mt-x64-1_66.dll
 0001:00035547       ??0invalid_option_value@program_options@boost@@QEAA@AEBV012@@Z 0000000180036547 f   boost_program_options-vc141-mt-x64-1_66:boost_program_options-vc141-mt-x64-1_66.dll
 0001:0003554d       ??0error@program_options@boost@@QEAA@AEBV012@@Z 000000018003654d f   boost_program_options-vc141-mt-x64-1_66:boost_program_options-vc141-mt-x64-1_66.dll
 0001:00035553       ??0error_with_option_name@program_options@boost@@QEAA@AEBV012@@Z 0000000180036553 f   boost_program_options-vc141-mt-x64-1_66:boost_program_options-vc141-mt-x64-1_66.dll
 0001:00035559       ?parse@?$value_semantic_codecvt_helper@D@program_options@boost@@EEBAXAEAVany@3@AEBV?$vector@V?$basic_string@DU?$char_traits@D@std@@V?$allocator@D@2@@std@@V?$allocator@V?$basic_string@DU?$char_traits@D@std@@V?$allocator@D@2@@std@@@2@@std@@_N@Z 0000000180036559 f   boost_program_options-vc141-mt-x64-1_66:boost_program_options-vc141-mt-x64-1_66.dll
 0001:0003555f       ?set_option_name@error_with_option_name@program_options@boost@@UEAAXAEBV?$basic_string@DU?$char_traits@D@std@@V?$allocator@D@2@@std@@@Z 000000018003655f f   boost_program_options-vc141-mt-x64-1_66:boost_program_options-vc141-mt-x64-1_66.dll
 0001:00035565       ?substitute_placeholders@error_with_option_name@program_options@boost@@MEBAXAEBV?$basic_string@DU?$char_traits@D@std@@V?$allocator@D@2@@std@@@Z 0000000180036565 f   boost_program_options-vc141-mt-x64-1_66:boost_program_options-vc141-mt-x64-1_66.dll
 0001:0003556b       ?what@error_with_option_name@program_options@boost@@UEBAPEBDXZ 000000018003656b f   boost_program_options-vc141-mt-x64-1_66:boost_program_options-vc141-mt-x64-1_66.dll
 0001:00035571       av_codec_next              0000000180036571 f   libavcodec:libavcodec.dll
 0001:00035577       avcodec_register           0000000180036577 f   libavcodec:libavcodec.dll
 0001:0003557d       avcodec_get_class          000000018003657d f   libavcodec:libavcodec.dll
 0001:00035583       avcodec_open2              0000000180036583 f   libavcodec:libavcodec.dll
 0001:00035589       avcodec_close              0000000180036589 f   libavcodec:libavcodec.dll
 0001:0003558f       av_init_packet             000000018003658f f   libavcodec:libavcodec.dll
 0001:00035595       av_free_packet             0000000180036595 f   libavcodec:libavcodec.dll
 0001:0003559b       avcodec_find_decoder       000000018003659b f   libavcodec:libavcodec.dll
 0001:000355a1       avcodec_find_decoder_by_name 00000001800365a1 f   libavcodec:libavcodec.dll
 0001:000355a7       avcodec_decode_audio4      00000001800365a7 f   libavcodec:libavcodec.dll
 0001:000355ad       avcodec_decode_video2      00000001800365ad f   libavcodec:libavcodec.dll
 0001:000355b3       avcodec_send_packet        00000001800365b3 f   libavcodec:libavcodec.dll
 0001:000355b9       avcodec_receive_frame      00000001800365b9 f   libavcodec:libavcodec.dll
 0001:000355bf       avcodec_find_encoder_by_name 00000001800365bf f   libavcodec:libavcodec.dll
 0001:000355c5       avcodec_encode_audio2      00000001800365c5 f   libavcodec:libavcodec.dll
 0001:000355cb       avcodec_encode_video2      00000001800365cb f   libavcodec:libavcodec.dll
 0001:000355d1       avpicture_alloc            00000001800365d1 f   libavcodec:libavcodec.dll
 0001:000355d7       avpicture_free             00000001800365d7 f   libavcodec:libavcodec.dll
 0001:000355dd       avpicture_fill             00000001800365dd f   libavcodec:libavcodec.dll
 0001:000355e3       av_picture_copy            00000001800365e3 f   libavcodec:libavcodec.dll
 0001:000355e9       avcodec_fill_audio_frame   00000001800365e9 f   libavcodec:libavcodec.dll
 0001:000355ef       avcodec_flush_buffers      00000001800365ef f   libavcodec:libavcodec.dll
 0001:000355f5       avcodec_get_name           00000001800365f5 f   libavcodec:libavcodec.dll
 0001:000355fb       avcodec_is_open            00000001800365fb f   libavcodec:libavcodec.dll
 0001:00035601       av_codec_is_encoder        0000000180036601 f   libavcodec:libavcodec.dll
 0001:00035607       avio_open                  0000000180036607 f   libavformat:libavformat.dll
 0001:0003560d       avformat_network_init      000000018003660d f   libavformat:libavformat.dll
 0001:00035613       avformat_free_context      0000000180036613 f   libavformat:libavformat.dll
 0001:00035619       avformat_get_class         0000000180036619 f   libavformat:libavformat.dll
 0001:0003561f       avformat_new_stream        000000018003661f f   libavformat:libavformat.dll
 0001:00035625       avformat_alloc_output_context2 0000000180036625 f   libavformat:libavformat.dll
 0001:0003562b       avformat_open_input        000000018003662b f   libavformat:libavformat.dll
 0001:00035631       avformat_find_stream_info  0000000180036631 f   libavformat:libavformat.dll
 0001:00035637       av_read_frame              0000000180036637 f   libavformat:libavformat.dll
 0001:0003563d       av_seek_frame              000000018003663d f   libavformat:libavformat.dll
 0001:00035643       avformat_close_input       0000000180036643 f   libavformat:libavformat.dll
 0001:00035649       avformat_write_header      0000000180036649 f   libavformat:libavformat.dll
 0001:0003564f       av_interleaved_write_frame 000000018003664f f   libavformat:libavformat.dll
 0001:00035655       av_write_trailer           0000000180036655 f   libavformat:libavformat.dll
 0001:0003565b       av_guess_format            000000018003665b f   libavformat:libavformat.dll
 0001:00035661       avformat_query_codec       0000000180036661 f   libavformat:libavformat.dll
 0001:00035667       av_strerror                0000000180036667 f   libavutil:libavutil.dll
 0001:0003566d       av_malloc                  000000018003666d f   libavutil:libavutil.dll
 0001:00035673       av_mallocz                 0000000180036673 f   libavutil:libavutil.dll
 0001:00035679       av_realloc_f               0000000180036679 f   libavutil:libavutil.dll
 0001:0003567f       av_freep                   000000018003667f f   libavutil:libavutil.dll
 0001:00035685       av_d2q                     0000000180036685 f   libavutil:libavutil.dll
 0001:0003568b       av_rescale_q               000000018003668b f   libavutil:libavutil.dll
 0001:00035691       av_log                     0000000180036691 f   libavutil:libavutil.dll
 0001:00035697       av_log_get_level           0000000180036697 f   libavutil:libavutil.dll
 0001:0003569d       av_log_set_level           000000018003669d f   libavutil:libavutil.dll
 0001:000356a3       av_log_set_callback        00000001800366a3 f   libavutil:libavutil.dll
 0001:000356a9       av_get_sample_fmt_name     00000001800366a9 f   libavutil:libavutil.dll
 0001:000356af       av_get_sample_fmt          00000001800366af f   libavutil:libavutil.dll
 0001:000356b5       av_get_bytes_per_sample    00000001800366b5 f   libavutil:libavutil.dll
 0001:000356bb       av_sample_fmt_is_planar    00000001800366bb f   libavutil:libavutil.dll
 0001:000356c1       av_get_default_channel_layout 00000001800366c1 f   libavutil:libavutil.dll
 0001:000356c7       av_get_channel_name        00000001800366c7 f   libavutil:libavutil.dll
 0001:000356cd       av_get_channel_description 00000001800366cd f   libavutil:libavutil.dll
 0001:000356d3       av_dict_get                00000001800366d3 f   libavutil:libavutil.dll
 0001:000356d9       av_dict_set                00000001800366d9 f   libavutil:libavutil.dll
 0001:000356df       av_dict_set_int            00000001800366df f   libavutil:libavutil.dll
 0001:000356e5       av_frame_alloc             00000001800366e5 f   libavutil:libavutil.dll
 0001:000356eb       av_frame_free              00000001800366eb f   libavutil:libavutil.dll
 0001:000356f1       av_pix_fmt_desc_get        00000001800366f1 f   libavutil:libavutil.dll
 0001:000356f7       av_pix_fmt_get_chroma_sub_sample 00000001800366f7 f   libavutil:libavutil.dll
 0001:000356fd       av_pix_fmt_count_planes    00000001800366fd f   libavutil:libavutil.dll
 0001:00035703       av_get_pix_fmt             0000000180036703 f   libavutil:libavutil.dll
 0001:00035709       av_get_pix_fmt_name        0000000180036709 f   libavutil:libavutil.dll
 0001:0003570f       av_opt_find                000000018003670f f   libavutil:libavutil.dll
 0001:00035715       av_opt_next                0000000180036715 f   libavutil:libavutil.dll
 0001:0003571b       av_opt_set                 000000018003671b f   libavutil:libavutil.dll
 0001:00035721       av_opt_set_int             0000000180036721 f   libavutil:libavutil.dll
 0001:00035727       av_opt_set_double          0000000180036727 f   libavutil:libavutil.dll
 0001:0003572d       av_opt_set_q               000000018003672d f   libavutil:libavutil.dll
 0001:00035733       av_opt_get_int             0000000180036733 f   libavutil:libavutil.dll
 0001:00035739       av_timecode_make_string    0000000180036739 f   libavutil:libavutil.dll
 0001:0003573f       av_timecode_init           000000018003673f f   libavutil:libavutil.dll
 0001:00035745       av_timecode_init_from_string 0000000180036745 f   libavutil:libavutil.dll
 0001:0003574b       sws_getCoefficients        000000018003674b f   libswscale:libswscale.dll
 0001:00035751       sws_freeContext            0000000180036751 f   libswscale:libswscale.dll
 0001:00035757       sws_scale                  0000000180036757 f   libswscale:libswscale.dll
 0001:0003575d       sws_setColorspaceDetails   000000018003675d f   libswscale:libswscale.dll
 0001:00035763       sws_getColorspaceDetails   0000000180036763 f   libswscale:libswscale.dll
 0001:00035769       sws_getCachedContext       0000000180036769 f   libswscale:libswscale.dll
 0001:0003576f       ?uncaught_exception@std@@YA_NXZ 000000018003676f f   msvcprt:MSVCP140.dll
 0001:00035775       ?_Xbad_alloc@std@@YAXXZ    0000000180036775 f   msvcprt:MSVCP140.dll
 0001:0003577b       ?_Xlength_error@std@@YAXPEBD@Z 000000018003677b f   msvcprt:MSVCP140.dll
 0001:00035781       ?_Xout_of_range@std@@YAXPEBD@Z 0000000180036781 f   msvcprt:MSVCP140.dll
 0001:00035788       ??1_Fac_tidy_reg_t@std@@QEAA@XZ 0000000180036788 f i msvcprt:locale0_implib.obj
 0001:000357f0       ?_Facet_Register@std@@YAXPEAV_Facet_base@1@@Z 00000001800367f0 f   msvcprt:locale0_implib.obj
 0001:00035828       ?classic@locale@std@@SAAEBV12@XZ 0000000180036828 f   msvcprt:MSVCP140.dll
 0001:0003582e       ?_Init@locale@std@@CAPEAV_Locimp@12@_N@Z 000000018003682e f   msvcprt:MSVCP140.dll
 0001:00035834       ?_Getgloballocale@locale@std@@CAPEAV_Locimp@12@XZ 0000000180036834 f   msvcprt:MSVCP140.dll
 0001:0003583a       ?_Decref@facet@locale@std@@UEAAPEAV_Facet_base@3@XZ 000000018003683a f   msvcprt:MSVCP140.dll
 0001:00035840       ?_Incref@facet@locale@std@@UEAAXXZ 0000000180036840 f   msvcprt:MSVCP140.dll
 0001:00035846       ?_Lock@?$basic_streambuf@DU?$char_traits@D@std@@@std@@UEAAXXZ 0000000180036846 f   msvcprt:MSVCP140.dll
 0001:0003584c       ?_Unlock@?$basic_streambuf@DU?$char_traits@D@std@@@std@@UEAAXXZ 000000018003684c f   msvcprt:MSVCP140.dll
 0001:00035852       ?imbue@?$basic_streambuf@DU?$char_traits@D@std@@@std@@MEAAXAEBVlocale@2@@Z 0000000180036852 f   msvcprt:MSVCP140.dll
 0001:00035858       ?overflow@?$basic_streambuf@DU?$char_traits@D@std@@@std@@MEAAHH@Z 0000000180036858 f   msvcprt:MSVCP140.dll
 0001:0003585e       ?pbackfail@?$basic_streambuf@DU?$char_traits@D@std@@@std@@MEAAHH@Z 000000018003685e f   msvcprt:MSVCP140.dll
 0001:00035864       ?setbuf@?$basic_streambuf@DU?$char_traits@D@std@@@std@@MEAAPEAV12@PEAD_J@Z 0000000180036864 f   msvcprt:MSVCP140.dll
 0001:0003586a       ?showmanyc@?$basic_streambuf@DU?$char_traits@D@std@@@std@@MEAA_JXZ 000000018003686a f   msvcprt:MSVCP140.dll
 0001:00035870       ?sync@?$basic_streambuf@DU?$char_traits@D@std@@@std@@MEAAHXZ 0000000180036870 f   msvcprt:MSVCP140.dll
 0001:00035876       ?uflow@?$basic_streambuf@DU?$char_traits@D@std@@@std@@MEAAHXZ 0000000180036876 f   msvcprt:MSVCP140.dll
 0001:0003587c       ?underflow@?$basic_streambuf@DU?$char_traits@D@std@@@std@@MEAAHXZ 000000018003687c f   msvcprt:MSVCP140.dll
 0001:00035882       ?xsgetn@?$basic_streambuf@DU?$char_traits@D@std@@@std@@MEAA_JPEAD_J@Z 0000000180036882 f   msvcprt:MSVCP140.dll
 0001:00035888       ?xsputn@?$basic_streambuf@DU?$char_traits@D@std@@@std@@MEAA_JPEBD_J@Z 0000000180036888 f   msvcprt:MSVCP140.dll
 0001:00035890       ??2@YAPEAX_K@Z             0000000180036890 f   MSVCRT:new_scalar.obj
 0001:000358cc       ??_V@YAXPEAX@Z             00000001800368cc f   MSVCRT:delete_array.obj
 0001:000358cc       ??3@YAXPEAX_K@Z            00000001800368cc f   MSVCRT:delete_scalar_size.obj
 0001:000358d4       ??_U@YAPEAX_K@Z            00000001800368d4 f   MSVCRT:new_array.obj
 0001:000358dc       __scrt_acquire_startup_lock 00000001800368dc f   MSVCRT:utility.obj
 0001:00035918       __scrt_dllmain_after_initialize_c 0000000180036918 f   MSVCRT:utility.obj
 0001:0003594c       __scrt_dllmain_before_initialize_c 000000018003694c f   MSVCRT:utility.obj
 0001:00035964       __scrt_dllmain_crt_thread_attach 0000000180036964 f   MSVCRT:utility.obj
 0001:0003598c       __scrt_dllmain_crt_thread_detach 000000018003698c f   MSVCRT:utility.obj
 0001:000359a4       __scrt_dllmain_exception_filter 00000001800369a4 f   MSVCRT:utility.obj
 0001:00035a04       __scrt_dllmain_uninitialize_c 0000000180036a04 f   MSVCRT:utility.obj
 0001:00035a34       __scrt_dllmain_uninitialize_critical 0000000180036a34 f   MSVCRT:utility.obj
 0001:00035a48       __scrt_initialize_crt      0000000180036a48 f   MSVCRT:utility.obj
 0001:00035a94       __scrt_initialize_onexit_tables 0000000180036a94 f   MSVCRT:utility.obj
 0001:00035b6c       __scrt_is_nonwritable_in_current_image 0000000180036b6c f   MSVCRT:utility.obj
 0001:00035c08       __scrt_release_startup_lock 0000000180036c08 f   MSVCRT:utility.obj
 0001:00035c2c       __scrt_uninitialize_crt    0000000180036c2c f   MSVCRT:utility.obj
 0001:00035c58       _onexit                    0000000180036c58 f   MSVCRT:utility.obj
 0001:00035ca8       atexit                     0000000180036ca8 f   MSVCRT:utility.obj
 0001:00035e48       _Init_thread_footer        0000000180036e48 f   MSVCRT:thread_safe_statics.obj
 0001:00035ea8       _Init_thread_header        0000000180036ea8 f   MSVCRT:thread_safe_statics.obj
 0001:00035f10       _Init_thread_notify        0000000180036f10 f   MSVCRT:thread_safe_statics.obj
 0001:00035f60       _Init_thread_wait          0000000180036f60 f   MSVCRT:thread_safe_statics.obj
 0001:00035fd8       __GSHandlerCheck           0000000180036fd8 f   MSVCRT:gshandler.obj
 0001:00035ff8       __GSHandlerCheckCommon     0000000180036ff8 f   MSVCRT:gshandler.obj
 0001:00036054       __GSHandlerCheck_EH        0000000180037054 f   MSVCRT:gshandlereh.obj
 0001:000360f0       __security_check_cookie    00000001800370f0 f   MSVCRT:amdsecgs.obj
 0001:00036114       ??_Etype_info@@UEAAPEAXI@Z 0000000180037114 f i MSVCRT:std_type_info_static.obj
 0001:00036114       ??_Gtype_info@@UEAAPEAXI@Z 0000000180037114 f i MSVCRT:std_type_info_static.obj
 0001:00036470       _DllMainCRTStartup         0000000180037470 f   MSVCRT:dll_dllmain.obj
 0001:000364b0       ??3@YAXPEAX@Z              00000001800374b0 f   MSVCRT:delete_scalar.obj
 0001:000364b8       __isa_available_init       00000001800374b8 f   MSVCRT:cpu_disp.obj
 0001:00036634       ??0bad_alloc@std@@QEAA@AEBV01@@Z 0000000180037634 f i MSVCRT:throw_bad_alloc.obj
 0001:00036674       ??0bad_alloc@std@@QEAA@XZ  0000000180037674 f i MSVCRT:throw_bad_alloc.obj
 0001:00036694       ??0bad_array_new_length@std@@QEAA@AEBV01@@Z 0000000180037694 f i MSVCRT:throw_bad_alloc.obj
 0001:000366d4       ??0bad_array_new_length@std@@QEAA@XZ 00000001800376d4 f i MSVCRT:throw_bad_alloc.obj
 0001:000366f4       ?__scrt_throw_std_bad_alloc@@YAXXZ 00000001800376f4 f   MSVCRT:throw_bad_alloc.obj
 0001:00036714       ?__scrt_throw_std_bad_array_new_length@@YAXXZ 0000000180037714 f   MSVCRT:throw_bad_alloc.obj
 0001:00036734       _get_startup_argv_mode     0000000180037734 f   MSVCRT:argv_mode.obj
 0001:0003673c       __scrt_is_ucrt_dll_in_use  000000018003773c f   MSVCRT:ucrt_detection.obj
 0001:00036748       __crt_debugger_hook        0000000180037748 f   MSVCRT:utility_desktop.obj
 0001:00036750       __scrt_fastfail            0000000180037750 f   MSVCRT:utility_desktop.obj
 0001:0003689c       __raise_securityfailure    000000018003789c f   MSVCRT:gs_report.obj
 0001:000368d0       __report_gsfailure         00000001800378d0 f   MSVCRT:gs_report.obj
 0001:00036a18       __security_init_cookie     0000000180037a18 f   MSVCRT:gs_support.obj
 0001:00036ac4       DllMain                    0000000180037ac4 f   MSVCRT:dll_dllmain_stub.obj
 0001:00036ae8       ?__scrt_initialize_type_info@@YAXXZ 0000000180037ae8 f   MSVCRT:tncleanup.obj
 0001:00036af8       ?__scrt_uninitialize_type_info@@YAXXZ 0000000180037af8 f   MSVCRT:tncleanup.obj
 0001:00036b04       __scrt_initialize_default_local_stdio_options 0000000180037b04 f   MSVCRT:default_local_stdio_options.obj
 0001:00036b20       __scrt_get_dyn_tls_init_callback 0000000180037b20 f   MSVCRT:dyn_tls_init.obj
 0001:00036b28       _RTC_Initialize            0000000180037b28 f   MSVCRT:initsect.obj
 0001:00036b64       _RTC_Terminate             0000000180037b64 f   MSVCRT:initsect.obj
 0001:00036ba0       _purecall                  0000000180037ba0 f   vcruntime:VCRUNTIME140.dll
 0001:00036ba6       __std_terminate            0000000180037ba6 f   vcruntime:VCRUNTIME140.dll
 0001:00036bac       __std_exception_copy       0000000180037bac f   vcruntime:VCRUNTIME140.dll
 0001:00036bb2       __std_exception_destroy    0000000180037bb2 f   vcruntime:VCRUNTIME140.dll
 0001:00036bb8       __std_type_info_compare    0000000180037bb8 f   vcruntime:VCRUNTIME140.dll
 0001:00036bbe       _CxxThrowException         0000000180037bbe f   vcruntime:VCRUNTIME140.dll
 0001:00036bc4       __CxxFrameHandler3         0000000180037bc4 f   vcruntime:VCRUNTIME140.dll
 0001:00036bca       memcmp                     0000000180037bca f   vcruntime:VCRUNTIME140.dll
 0001:00036bd0       memcpy                     0000000180037bd0 f   vcruntime:VCRUNTIME140.dll
 0001:00036bd6       memmove                    0000000180037bd6 f   vcruntime:VCRUNTIME140.dll
 0001:00036bdc       memset                     0000000180037bdc f   vcruntime:VCRUNTIME140.dll
 0001:00036be2       __RTDynamicCast            0000000180037be2 f   vcruntime:VCRUNTIME140.dll
 0001:00036be8       memchr                     0000000180037be8 f   vcruntime:VCRUNTIME140.dll
 0001:00036bee       __C_specific_handler       0000000180037bee f   vcruntime:VCRUNTIME140.dll
 0001:00036bf4       __std_type_info_destroy_list 0000000180037bf4 f   vcruntime:VCRUNTIME140.dll
 0001:00036bfa       free                       0000000180037bfa f   ucrt:api-ms-win-crt-heap-l1-1-0.dll
 0001:00036c00       pow                        0000000180037c00 f   ucrt:api-ms-win-crt-math-l1-1-0.dll
 0001:00036c06       powf                       0000000180037c06 f   ucrt:api-ms-win-crt-math-l1-1-0.dll
 0001:00036c0c       _callnewh                  0000000180037c0c f   ucrt:api-ms-win-crt-heap-l1-1-0.dll
 0001:00036c12       malloc                     0000000180037c12 f   ucrt:api-ms-win-crt-heap-l1-1-0.dll
 0001:00036c18       _seh_filter_dll            0000000180037c18 f   ucrt:api-ms-win-crt-runtime-l1-1-0.dll
 0001:00036c1e       _configure_narrow_argv     0000000180037c1e f   ucrt:api-ms-win-crt-runtime-l1-1-0.dll
 0001:00036c24       _initialize_narrow_environment 0000000180037c24 f   ucrt:api-ms-win-crt-runtime-l1-1-0.dll
 0001:00036c2a       _initialize_onexit_table   0000000180037c2a f   ucrt:api-ms-win-crt-runtime-l1-1-0.dll
 0001:00036c30       _register_onexit_function  0000000180037c30 f   ucrt:api-ms-win-crt-runtime-l1-1-0.dll
 0001:00036c36       _execute_onexit_table      0000000180037c36 f   ucrt:api-ms-win-crt-runtime-l1-1-0.dll
 0001:00036c3c       _crt_atexit                0000000180037c3c f   ucrt:api-ms-win-crt-runtime-l1-1-0.dll
 0001:00036c42       _cexit                     0000000180037c42 f   ucrt:api-ms-win-crt-runtime-l1-1-0.dll
 0001:00036c48       _initterm                  0000000180037c48 f   ucrt:api-ms-win-crt-runtime-l1-1-0.dll
 0001:00036c4e       _initterm_e                0000000180037c4e f   ucrt:api-ms-win-crt-runtime-l1-1-0.dll
 0001:00036c54       __initialize_lconv_for_unsigned_char 0000000180037c54 f   ucrt:api-ms-win-crt-locale-l1-1-0.dll
 0001:00036c5a       IsProcessorFeaturePresent  0000000180037c5a f   kernel32:KERNEL32.dll
 0001:00036c60       __scrt_stub_for_acrt_thread_detach 0000000180037c60 f   MSVCRT:ucrt_stubs.obj
 0001:00036c60       __vcrt_initialize          0000000180037c60 f   MSVCRT:ucrt_stubs.obj
 0001:00036c60       __acrt_uninitialize        0000000180037c60 f   MSVCRT:ucrt_stubs.obj
 0001:00036c60       __scrt_stub_for_acrt_initialize 0000000180037c60 f   MSVCRT:ucrt_stubs.obj
 0001:00036c60       __acrt_initialize          0000000180037c60 f   MSVCRT:ucrt_stubs.obj
 0001:00036c60       __scrt_stub_for_acrt_thread_attach 0000000180037c60 f   MSVCRT:ucrt_stubs.obj
 0001:00036c60       __vcrt_thread_detach       0000000180037c60 f   MSVCRT:ucrt_stubs.obj
 0001:00036c60       __acrt_thread_attach       0000000180037c60 f   MSVCRT:ucrt_stubs.obj
 0001:00036c60       __vcrt_thread_attach       0000000180037c60 f   MSVCRT:ucrt_stubs.obj
 0001:00036c60       __acrt_uninitialize_critical 0000000180037c60 f   MSVCRT:ucrt_stubs.obj
 0001:00036c60       __scrt_stub_for_acrt_uninitialize 0000000180037c60 f   MSVCRT:ucrt_stubs.obj
 0001:00036c60       __vcrt_uninitialize_critical 0000000180037c60 f   MSVCRT:ucrt_stubs.obj
 0001:00036c60       __scrt_stub_for_acrt_uninitialize_critical 0000000180037c60 f   MSVCRT:ucrt_stubs.obj
 0001:00036c60       __vcrt_uninitialize        0000000180037c60 f   MSVCRT:ucrt_stubs.obj
 0001:00036c60       __acrt_thread_detach       0000000180037c60 f   MSVCRT:ucrt_stubs.obj
 0001:00036c64       _is_c_termination_complete 0000000180037c64 f   MSVCRT:ucrt_stubs.obj
 0001:00036c64       __scrt_stub_for_is_c_termination_complete 0000000180037c64 f   MSVCRT:ucrt_stubs.obj
 0001:00036c80       _guard_dispatch_icall_nop  0000000180037c80 f   MSVCRT:guard_dispatch.obj
 0002:00000000       __imp_InitializeSListHead  000000018003c000     kernel32:KERNEL32.dll
 0002:00000008       __imp_SetEvent             000000018003c008     kernel32:KERNEL32.dll
 0002:00000010       __imp_WaitForSingleObjectEx 000000018003c010     kernel32:KERNEL32.dll
 0002:00000018       __imp_DisableThreadLibraryCalls 000000018003c018     kernel32:KERNEL32.dll
 0002:00000020       __imp_GetSystemTimeAsFileTime 000000018003c020     kernel32:KERNEL32.dll
 0002:00000028       __imp_GetCurrentThreadId   000000018003c028     kernel32:KERNEL32.dll
 0002:00000030       __imp_GetCurrentProcessId  000000018003c030     kernel32:KERNEL32.dll
 0002:00000038       __imp_QueryPerformanceCounter 000000018003c038     kernel32:KERNEL32.dll
 0002:00000040       __imp_TerminateProcess     000000018003c040     kernel32:KERNEL32.dll
 0002:00000048       __imp_GetCurrentProcess    000000018003c048     kernel32:KERNEL32.dll
 0002:00000050       __imp_IsProcessorFeaturePresent 000000018003c050     kernel32:KERNEL32.dll
 0002:00000058       __imp_SetUnhandledExceptionFilter 000000018003c058     kernel32:KERNEL32.dll
 0002:00000060       __imp_UnhandledExceptionFilter 000000018003c060     kernel32:KERNEL32.dll
 0002:00000068       __imp_IsDebuggerPresent    000000018003c068     kernel32:KERNEL32.dll
 0002:00000070       __imp_RtlVirtualUnwind     000000018003c070     kernel32:KERNEL32.dll
 0002:00000078       __imp_RtlLookupFunctionEntry 000000018003c078     kernel32:KERNEL32.dll
 0002:00000080       __imp_RtlCaptureContext    000000018003c080     kernel32:KERNEL32.dll
 0002:00000088       __imp_GetProcAddress       000000018003c088     kernel32:KERNEL32.dll
 0002:00000090       __imp_GetModuleHandleW     000000018003c090     kernel32:KERNEL32.dll
 0002:00000098       __imp_CreateEventW         000000018003c098     kernel32:KERNEL32.dll
 0002:000000a0       __imp_ResetEvent           000000018003c0a0     kernel32:KERNEL32.dll
 0002:000000a8       __imp_DeleteCriticalSection 000000018003c0a8     kernel32:KERNEL32.dll
 0002:000000b0       __imp_InitializeCriticalSectionAndSpinCount 000000018003c0b0     kernel32:KERNEL32.dll
 0002:000000b8       __imp_LeaveCriticalSection 000000018003c0b8     kernel32:KERNEL32.dll
 0002:000000c0       __imp_EnterCriticalSection 000000018003c0c0     kernel32:KERNEL32.dll
 0002:000000c8       __imp_CreateEventA         000000018003c0c8     kernel32:KERNEL32.dll
 0002:000000d0       __imp_CloseHandle          000000018003c0d0     kernel32:KERNEL32.dll
 0002:000000d8       \177KERNEL32_NULL_THUNK_DATA 000000018003c0d8     kernel32:KERNEL32.dll
 0002:000000e0       __imp_??5?$basic_istream@DU?$char_traits@D@std@@@std@@QEAAAEAV01@AEAH@Z 000000018003c0e0     msvcprt:MSVCP140.dll
 0002:000000e8       __imp_??1?$basic_istream@DU?$char_traits@D@std@@@std@@UEAA@XZ 000000018003c0e8     msvcprt:MSVCP140.dll
 0002:000000f0       __imp_??6?$basic_ostream@DU?$char_traits@D@std@@@std@@QEAAAEAV01@N@Z 000000018003c0f0     msvcprt:MSVCP140.dll
 0002:000000f8       __imp_??6?$basic_ostream@DU?$char_traits@D@std@@@std@@QEAAAEAV01@M@Z 000000018003c0f8     msvcprt:MSVCP140.dll
 0002:00000100       __imp_??6?$basic_ostream@DU?$char_traits@D@std@@@std@@QEAAAEAV01@_K@Z 000000018003c100     msvcprt:MSVCP140.dll
 0002:00000108       __imp_??6?$basic_ostream@DU?$char_traits@D@std@@@std@@QEAAAEAV01@I@Z 000000018003c108     msvcprt:MSVCP140.dll
 0002:00000110       __imp_??6?$basic_ostream@DU?$char_traits@D@std@@@std@@QEAAAEAV01@H@Z 000000018003c110     msvcprt:MSVCP140.dll
 0002:00000118       __imp_??1?$basic_ostream@DU?$char_traits@D@std@@@std@@UEAA@XZ 000000018003c118     msvcprt:MSVCP140.dll
 0002:00000120       __imp_??0?$basic_ios@DU?$char_traits@D@std@@@std@@IEAA@XZ 000000018003c120     msvcprt:MSVCP140.dll
 0002:00000128       __imp_?clear@?$basic_ios@DU?$char_traits@D@std@@@std@@QEAAXH_N@Z 000000018003c128     msvcprt:MSVCP140.dll
 0002:00000130       __imp_??1?$basic_ios@DU?$char_traits@D@std@@@std@@UEAA@XZ 000000018003c130     msvcprt:MSVCP140.dll
 0002:00000138       __imp_?egptr@?$basic_streambuf@DU?$char_traits@D@std@@@std@@IEBAPEADXZ 000000018003c138     msvcprt:MSVCP140.dll
 0002:00000140       __imp_?pptr@?$basic_streambuf@DU?$char_traits@D@std@@@std@@IEBAPEADXZ 000000018003c140     msvcprt:MSVCP140.dll
 0002:00000148       __imp_?pbase@?$basic_streambuf@DU?$char_traits@D@std@@@std@@IEBAPEADXZ 000000018003c148     msvcprt:MSVCP140.dll
 0002:00000150       __imp_?gptr@?$basic_streambuf@DU?$char_traits@D@std@@@std@@IEBAPEADXZ 000000018003c150     msvcprt:MSVCP140.dll
 0002:00000158       __imp_?eback@?$basic_streambuf@DU?$char_traits@D@std@@@std@@IEBAPEADXZ 000000018003c158     msvcprt:MSVCP140.dll
 0002:00000160       __imp_?_Getcat@?$ctype@D@std@@SA_KPEAPEBVfacet@locale@2@PEBV42@@Z 000000018003c160     msvcprt:MSVCP140.dll
 0002:00000168       __imp_?tolower@?$ctype@D@std@@QEBADD@Z 000000018003c168     msvcprt:MSVCP140.dll
 0002:00000170       __imp_?cout@std@@3V?$basic_ostream@DU?$char_traits@D@std@@@1@A 000000018003c170     msvcprt:MSVCP140.dll
 0002:00000178       __imp_?id@?$numpunct@D@std@@2V0locale@2@A 000000018003c178     msvcprt:MSVCP140.dll
 0002:00000180       __imp_?xsputn@?$basic_streambuf@DU?$char_traits@D@std@@@std@@MEAA_JPEBD_J@Z 000000018003c180     msvcprt:MSVCP140.dll
 0002:00000188       __imp_?xsgetn@?$basic_streambuf@DU?$char_traits@D@std@@@std@@MEAA_JPEAD_J@Z 000000018003c188     msvcprt:MSVCP140.dll
 0002:00000190       __imp_?underflow@?$basic_streambuf@DU?$char_traits@D@std@@@std@@MEAAHXZ 000000018003c190     msvcprt:MSVCP140.dll
 0002:00000198       __imp_?uflow@?$basic_streambuf@DU?$char_traits@D@std@@@std@@MEAAHXZ 000000018003c198     msvcprt:MSVCP140.dll
 0002:000001a0       __imp_?cerr@std@@3V?$basic_ostream@DU?$char_traits@D@std@@@1@A 000000018003c1a0     msvcprt:MSVCP140.dll
 0002:000001a8       __imp_?showmanyc@?$basic_streambuf@DU?$char_traits@D@std@@@std@@MEAA_JXZ 000000018003c1a8     msvcprt:MSVCP140.dll
 0002:000001b0       __imp_?setbuf@?$basic_streambuf@DU?$char_traits@D@std@@@std@@MEAAPEAV12@PEAD_J@Z 000000018003c1b0     msvcprt:MSVCP140.dll
 0002:000001b8       __imp_?pbackfail@?$basic_streambuf@DU?$char_traits@D@std@@@std@@MEAAHH@Z 000000018003c1b8     msvcprt:MSVCP140.dll
 0002:000001c0       __imp_?overflow@?$basic_streambuf@DU?$char_traits@D@std@@@std@@MEAAHH@Z 000000018003c1c0     msvcprt:MSVCP140.dll
 0002:000001c8       __imp_?imbue@?$basic_streambuf@DU?$char_traits@D@std@@@std@@MEAAXAEBVlocale@2@@Z 000000018003c1c8     msvcprt:MSVCP140.dll
 0002:000001d0       __imp_?_Unlock@?$basic_streambuf@DU?$char_traits@D@std@@@std@@UEAAXXZ 000000018003c1d0     msvcprt:MSVCP140.dll
 0002:000001d8       __imp_?_Lock@?$basic_streambuf@DU?$char_traits@D@std@@@std@@UEAAXXZ 000000018003c1d8     msvcprt:MSVCP140.dll
 0002:000001e0       __imp_?_Incref@facet@locale@std@@UEAAXXZ 000000018003c1e0     msvcprt:MSVCP140.dll
 0002:000001e8       __imp_?_Decref@facet@locale@std@@UEAAPEAV_Facet_base@3@XZ 000000018003c1e8     msvcprt:MSVCP140.dll
 0002:000001f0       __imp_??_D?$basic_istream@DU?$char_traits@D@std@@@std@@QEAAXXZ 000000018003c1f0     msvcprt:MSVCP140.dll
 0002:000001f8       __imp_?get@?$basic_istream@DU?$char_traits@D@std@@@std@@QEAAHXZ 000000018003c1f8     msvcprt:MSVCP140.dll
 0002:00000200       __imp_??5?$basic_istream@DU?$char_traits@D@std@@@std@@QEAAAEAV01@AEAN@Z 000000018003c200     msvcprt:MSVCP140.dll
 0002:00000208       __imp_??0?$basic_istream@DU?$char_traits@D@std@@@std@@QEAA@PEAV?$basic_streambuf@DU?$char_traits@D@std@@@1@_N@Z 000000018003c208     msvcprt:MSVCP140.dll
 0002:00000210       __imp_??_D?$basic_ostream@DU?$char_traits@D@std@@@std@@QEAAXXZ 000000018003c210     msvcprt:MSVCP140.dll
 0002:00000218       __imp_?flush@?$basic_ostream@DU?$char_traits@D@std@@@std@@QEAAAEAV12@XZ 000000018003c218     msvcprt:MSVCP140.dll
 0002:00000220       __imp_?put@?$basic_ostream@DU?$char_traits@D@std@@@std@@QEAAAEAV12@D@Z 000000018003c220     msvcprt:MSVCP140.dll
 0002:00000228       __imp_??6?$basic_ostream@DU?$char_traits@D@std@@@std@@QEAAAEAV01@P6AAEAV01@AEAV01@@Z@Z 000000018003c228     msvcprt:MSVCP140.dll
 0002:00000230       __imp_?_Osfx@?$basic_ostream@DU?$char_traits@D@std@@@std@@QEAAXXZ 000000018003c230     msvcprt:MSVCP140.dll
 0002:00000238       __imp_??0?$basic_ostream@DU?$char_traits@D@std@@@std@@QEAA@PEAV?$basic_streambuf@DU?$char_traits@D@std@@@1@_N@Z 000000018003c238     msvcprt:MSVCP140.dll
 0002:00000240       __imp_?widen@?$basic_ios@DU?$char_traits@D@std@@@std@@QEBADD@Z 000000018003c240     msvcprt:MSVCP140.dll
 0002:00000248       __imp_?setstate@?$basic_ios@DU?$char_traits@D@std@@@std@@QEAAXH_N@Z 000000018003c248     msvcprt:MSVCP140.dll
 0002:00000250       __imp_?_Pninc@?$basic_streambuf@DU?$char_traits@D@std@@@std@@IEAAPEADXZ 000000018003c250     msvcprt:MSVCP140.dll
 0002:00000258       __imp_?sputn@?$basic_streambuf@DU?$char_traits@D@std@@@std@@QEAA_JPEBD_J@Z 000000018003c258     msvcprt:MSVCP140.dll
 0002:00000260       __imp_?sputc@?$basic_streambuf@DU?$char_traits@D@std@@@std@@QEAAHD@Z 000000018003c260     msvcprt:MSVCP140.dll
 0002:00000268       __imp_??1?$basic_streambuf@DU?$char_traits@D@std@@@std@@UEAA@XZ 000000018003c268     msvcprt:MSVCP140.dll
 0002:00000270       __imp_??0?$basic_streambuf@DU?$char_traits@D@std@@@std@@IEAA@XZ 000000018003c270     msvcprt:MSVCP140.dll
 0002:00000278       __imp_?exceptions@ios_base@std@@QEAAXH@Z 000000018003c278     msvcprt:MSVCP140.dll
 0002:00000280       __imp_?_Getgloballocale@locale@std@@CAPEAV_Locimp@12@XZ 000000018003c280     msvcprt:MSVCP140.dll
 0002:00000288       __imp_?_Init@locale@std@@CAPEAV_Locimp@12@_N@Z 000000018003c288     msvcprt:MSVCP140.dll
 0002:00000290       __imp_?classic@locale@std@@SAAEBV12@XZ 000000018003c290     msvcprt:MSVCP140.dll
 0002:00000298       __imp_??1facet@locale@std@@MEAA@XZ 000000018003c298     msvcprt:MSVCP140.dll
 0002:000002a0       __imp_??0facet@locale@std@@IEAA@_K@Z 000000018003c2a0     msvcprt:MSVCP140.dll
 0002:000002a8       __imp_??Bid@locale@std@@QEAA_KXZ 000000018003c2a8     msvcprt:MSVCP140.dll
 0002:000002b0       __imp_?_Gettrue@_Locinfo@std@@QEBAPEBDXZ 000000018003c2b0     msvcprt:MSVCP140.dll
 0002:000002b8       __imp_?_Getfalse@_Locinfo@std@@QEBAPEBDXZ 000000018003c2b8     msvcprt:MSVCP140.dll
 0002:000002c0       __imp_?_Getcvt@_Locinfo@std@@QEBA?AU_Cvtvec@@XZ 000000018003c2c0     msvcprt:MSVCP140.dll
 0002:000002c8       __imp_??1_Locinfo@std@@QEAA@XZ 000000018003c2c8     msvcprt:MSVCP140.dll
 0002:000002d0       __imp_??0_Locinfo@std@@QEAA@PEBD@Z 000000018003c2d0     msvcprt:MSVCP140.dll
 0002:000002d8       __imp_?_Xout_of_range@std@@YAXPEBD@Z 000000018003c2d8     msvcprt:MSVCP140.dll
 0002:000002e0       __imp_?_Xlength_error@std@@YAXPEBD@Z 000000018003c2e0     msvcprt:MSVCP140.dll
 0002:000002e8       __imp_?_Xbad_alloc@std@@YAXXZ 000000018003c2e8     msvcprt:MSVCP140.dll
 0002:000002f0       __imp_?uncaught_exception@std@@YA_NXZ 000000018003c2f0     msvcprt:MSVCP140.dll
 0002:000002f8       __imp_??1_Lockit@std@@QEAA@XZ 000000018003c2f8     msvcprt:MSVCP140.dll
 0002:00000300       __imp_??0_Lockit@std@@QEAA@H@Z 000000018003c300     msvcprt:MSVCP140.dll
 0002:00000308       __imp_?id@?$ctype@D@std@@2V0locale@2@A 000000018003c308     msvcprt:MSVCP140.dll
 0002:00000310       __imp_?sync@?$basic_streambuf@DU?$char_traits@D@std@@@std@@MEAAHXZ 000000018003c310     msvcprt:MSVCP140.dll
 0002:00000318       \177MSVCP140_NULL_THUNK_DATA 000000018003c318     msvcprt:MSVCP140.dll
 0002:00000320       __imp_?decode_close@@YAHPEAUAVCodecContext@@@Z 000000018003c320     MovieAPR:MovieAPR.dll
 0002:00000328       __imp_?decode_init@@YAHPEAUAVCodecContext@@@Z 000000018003c328     MovieAPR:MovieAPR.dll
 0002:00000330       __imp_?decode_frame@@YAHPEAUAVCodecContext@@PEAXPEAHPEAUAVPacket@@@Z 000000018003c330     MovieAPR:MovieAPR.dll
 0002:00000338       \177MovieAPR_NULL_THUNK_DATA 000000018003c338     MovieAPR:MovieAPR.dll
 0002:00000340       __imp_?zero@AudioBuffer@TwkAudio@@QEAAXXZ 000000018003c340     TwkAudio:TwkAudio.dll
 0002:00000348       __imp_?interlace@TwkAudio@@YAXAEBV?$vector@V?$vector@MV?$replacement_allocator@M@stl_ext@@@std@@V?$allocator@V?$vector@MV?$replacement_allocator@M@stl_ext@@@std@@@2@@std@@PEAM_K2@Z 000000018003c348     TwkAudio:TwkAudio.dll
 0002:00000350       __imp_?channelString@TwkAudio@@YA?AV?$basic_string@DU?$char_traits@D@std@@V?$allocator@D@2@@std@@W4Channels@1@@Z 000000018003c350     TwkAudio:TwkAudio.dll
 0002:00000358       __imp_?reconfigure@AudioBuffer@TwkAudio@@QEAAX_KVChannelsVector@2@NN0@Z 000000018003c358     TwkAudio:TwkAudio.dll
 0002:00000360       __imp_??0AudioBuffer@TwkAudio@@QEAA@_KVChannelsVector@1@NN0@Z 000000018003c360     TwkAudio:TwkAudio.dll
 0002:00000368       __imp_?layoutChannels@TwkAudio@@YA?AVChannelsVector@1@W4Layout@1@@Z 000000018003c368     TwkAudio:TwkAudio.dll
 0002:00000370       __imp_?channelLayout@TwkAudio@@YA?AW4Layout@1@AEBVChannelsVector@1@@Z 000000018003c370     TwkAudio:TwkAudio.dll
 0002:00000378       __imp_?channelLayouts@TwkAudio@@YA?AV?$vector@W4Layout@TwkAudio@@V?$allocator@W4Layout@TwkAudio@@@std@@@std@@H@Z 000000018003c378     TwkAudio:TwkAudio.dll
 0002:00000380       __imp_?identical@ChannelsVector@TwkAudio@@AEBA_NAEBV12@0@Z 000000018003c380     TwkAudio:TwkAudio.dll
 0002:00000388       __imp_?initChannelsMap@TwkAudio@@YAXAEBVChannelsVector@1@0AEAV?$map@W4Channels@TwkAudio@@UChannelMixState@2@U?$less@W4Channels@TwkAudio@@@std@@V?$allocator@U?$pair@$$CBW4Channels@TwkAudio@@UChannelMixState@2@@std@@@5@@std@@@Z 000000018003c388     TwkAudio:TwkAudio.dll
 0002:00000390       \177TwkAudio_NULL_THUNK_DATA 000000018003c390     TwkAudio:TwkAudio.dll
 0002:00000398       __imp_??1Exception@TwkExc@@UEAA@XZ 000000018003c398     TwkExc:TwkExc.dll
 0002:000003a0       __imp_??0Exception@TwkExc@@QEAA@AEBV01@@Z 000000018003c3a0     TwkExc:TwkExc.dll
 0002:000003a8       __imp_??0Exception@TwkExc@@QEAA@XZ 000000018003c3a8     TwkExc:TwkExc.dll
 0002:000003b0       __imp_?stream@Exception@TwkExc@@QEAAAEAV?$basic_ostringstream@DU?$char_traits@D@std@@V?$allocator@D@2@@std@@XZ 000000018003c3b0     TwkExc:TwkExc.dll
 0002:000003b8       \177TwkExc_NULL_THUNK_DATA 000000018003c3b8     TwkExc:TwkExc.dll
 0002:000003c0       __imp_?setIdentifier@FrameBuffer@TwkFB@@QEAAXAEBV?$basic_string@DU?$char_traits@D@std@@V?$allocator@D@2@@std@@@Z 000000018003c3c0     TwkFB:TwkFB.dll
 0002:000003c8       __imp_?idstream@FrameBuffer@TwkFB@@QEAAAEAV?$basic_stringstream@DU?$char_traits@D@std@@V?$allocator@D@2@@std@@XZ 000000018003c3c8     TwkFB:TwkFB.dll
 0002:000003d0       __imp_?setICCprofile@FrameBuffer@TwkFB@@QEAAXPEBX_K@Z 000000018003c3d0     TwkFB:TwkFB.dll
 0002:000003d8       __imp_?setRange@FrameBuffer@TwkFB@@QEAAXAEBV?$basic_string@DU?$char_traits@D@std@@V?$allocator@D@2@@std@@@Z 000000018003c3d8     TwkFB:TwkFB.dll
 0002:000003e0       __imp_?setConversion@FrameBuffer@TwkFB@@QEAAXAEBV?$basic_string@DU?$char_traits@D@std@@V?$allocator@D@2@@std@@@Z 000000018003c3e0     TwkFB:TwkFB.dll
 0002:000003e8       __imp_?setPrimaries@FrameBuffer@TwkFB@@QEAAXMMMMMMMM@Z 000000018003c3e8     TwkFB:TwkFB.dll
 0002:000003f0       __imp_?setTransferFunction@FrameBuffer@TwkFB@@QEAAXAEBV?$basic_string@DU?$char_traits@D@std@@V?$allocator@D@2@@std@@@Z 000000018003c3f0     TwkFB:TwkFB.dll
 0002:000003f8       __imp_?setPrimaryColorSpace@FrameBuffer@TwkFB@@QEAAXAEBV?$basic_string@DU?$char_traits@D@std@@V?$allocator@D@2@@std@@@Z 000000018003c3f8     TwkFB:TwkFB.dll
 0002:00000400       __imp_?deleteAttribute@FrameBuffer@TwkFB@@QEAAXPEBVFBAttribute@2@@Z 000000018003c400     TwkFB:TwkFB.dll
 0002:00000408       __imp_?appendAttributesAndPrefixTo@FrameBuffer@TwkFB@@QEBAXPEAV12@AEBV?$basic_string@DU?$char_traits@D@std@@V?$allocator@D@2@@std@@@Z 000000018003c408     TwkFB:TwkFB.dll
 0002:00000410       __imp_?flip@TwkFB@@YAXPEAVFrameBuffer@1@@Z 000000018003c410     TwkFB:TwkFB.dll
 0002:00000418       __imp_?findAttribute@FrameBuffer@TwkFB@@QEAAPEAVFBAttribute@2@AEBV?$basic_string@DU?$char_traits@D@std@@V?$allocator@D@2@@std@@@Z 000000018003c418     TwkFB:TwkFB.dll
 0002:00000420       __imp_?appendPlane@FrameBuffer@TwkFB@@QEAAXPEAV12@@Z 000000018003c420     TwkFB:TwkFB.dll
 0002:00000428       __imp_?copyFrom@FrameBuffer@TwkFB@@QEAAXPEBV12@@Z 000000018003c428     TwkFB:TwkFB.dll
 0002:00000430       __imp_??0FrameBuffer@TwkFB@@QEAA@W4CoordinateTypes@01@HHHHW4DataType@01@PEAEPEBV?$vector@V?$basic_string@DU?$char_traits@D@std@@V?$allocator@D@2@@std@@V?$allocator@V?$basic_string@DU?$char_traits@D@std@@V?$allocator@D@2@@std@@@2@@std@@W4Orientation@01@_NHH@Z 000000018003c430     TwkFB:TwkFB.dll
 0002:00000438       __imp_??0FrameBuffer@TwkFB@@QEAA@HHHW4DataType@01@PEAEPEBV?$vector@V?$basic_string@DU?$char_traits@D@std@@V?$allocator@D@2@@std@@V?$allocator@V?$basic_string@DU?$char_traits@D@std@@V?$allocator@D@2@@std@@@2@@std@@W4Orientation@01@HH@Z 000000018003c438     TwkFB:TwkFB.dll
 0002:00000440       __imp_??1FrameBuffer@TwkFB@@QEAA@XZ 000000018003c440     TwkFB:TwkFB.dll
 0002:00000448       __imp_??0FrameBuffer@TwkFB@@QEAA@XZ 000000018003c448     TwkFB:TwkFB.dll
 0002:00000450       __imp_??3FrameBuffer@TwkFB@@SAXPEAX_K@Z 000000018003c450     TwkFB:TwkFB.dll
 0002:00000458       __imp_??2FrameBuffer@TwkFB@@SAPEAX_K@Z 000000018003c458     TwkFB:TwkFB.dll
 0002:00000460       __imp_?Gamma@ColorSpace@TwkFB@@YA?AV?$basic_string@DU?$char_traits@D@std@@V?$allocator@D@2@@std@@XZ 000000018003c460     TwkFB:TwkFB.dll
 0002:00000468       __imp_?Bottom@ColorSpace@TwkFB@@YA?AV?$basic_string@DU?$char_traits@D@std@@V?$allocator@D@2@@std@@XZ 000000018003c468     TwkFB:TwkFB.dll
 0002:00000470       __imp_?flop@TwkFB@@YAXPEAVFrameBuffer@1@@Z 000000018003c470     TwkFB:TwkFB.dll
 0002:00000478       __imp_?copyAttributesTo@FrameBuffer@TwkFB@@QEBAXPEAV12@@Z 000000018003c478     TwkFB:TwkFB.dll
 0002:00000480       __imp_?VideoRange@ColorSpace@TwkFB@@YA?AV?$basic_string@DU?$char_traits@D@std@@V?$allocator@D@2@@std@@XZ 000000018003c480     TwkFB:TwkFB.dll
 0002:00000488       __imp_??2FBAttribute@TwkFB@@SAPEAX_K@Z 000000018003c488     TwkFB:TwkFB.dll
 0002:00000490       __imp_??3FBAttribute@TwkFB@@SAXPEAX_K@Z 000000018003c490     TwkFB:TwkFB.dll
 0002:00000498       __imp_?ChromaPlacement@ColorSpace@TwkFB@@YA?AV?$basic_string@DU?$char_traits@D@std@@V?$allocator@D@2@@std@@XZ 000000018003c498     TwkFB:TwkFB.dll
 0002:000004a0       __imp_?BottomLeft@ColorSpace@TwkFB@@YA?AV?$basic_string@DU?$char_traits@D@std@@V?$allocator@D@2@@std@@XZ 000000018003c4a0     TwkFB:TwkFB.dll
 0002:000004a8       __imp_?Rec709@ColorSpace@TwkFB@@YA?AV?$basic_string@DU?$char_traits@D@std@@V?$allocator@D@2@@std@@XZ 000000018003c4a8     TwkFB:TwkFB.dll
 0002:000004b0       __imp_?Rec601@ColorSpace@TwkFB@@YA?AV?$basic_string@DU?$char_traits@D@std@@V?$allocator@D@2@@std@@XZ 000000018003c4b0     TwkFB:TwkFB.dll
 0002:000004b8       __imp_?SMPTE_C@ColorSpace@TwkFB@@YA?AV?$basic_string@DU?$char_traits@D@std@@V?$allocator@D@2@@std@@XZ 000000018003c4b8     TwkFB:TwkFB.dll
 0002:000004c0       __imp_?SMPTE240M@ColorSpace@TwkFB@@YA?AV?$basic_string@DU?$char_traits@D@std@@V?$allocator@D@2@@std@@XZ 000000018003c4c0     TwkFB:TwkFB.dll
 0002:000004c8       __imp_?ICCProfile@ColorSpace@TwkFB@@YA?AV?$basic_string@DU?$char_traits@D@std@@V?$allocator@D@2@@std@@XZ 000000018003c4c8     TwkFB:TwkFB.dll
 0002:000004d0       __imp_?Range@ColorSpace@TwkFB@@YA?AV?$basic_string@DU?$char_traits@D@std@@V?$allocator@D@2@@std@@XZ 000000018003c4d0     TwkFB:TwkFB.dll
 0002:000004d8       __imp_?FullRange@ColorSpace@TwkFB@@YA?AV?$basic_string@DU?$char_traits@D@std@@V?$allocator@D@2@@std@@XZ 000000018003c4d8     TwkFB:TwkFB.dll
 0002:000004e0       __imp_?Left@ColorSpace@TwkFB@@YA?AV?$basic_string@DU?$char_traits@D@std@@V?$allocator@D@2@@std@@XZ 000000018003c4e0     TwkFB:TwkFB.dll
 0002:000004e8       __imp_?Center@ColorSpace@TwkFB@@YA?AV?$basic_string@DU?$char_traits@D@std@@V?$allocator@D@2@@std@@XZ 000000018003c4e8     TwkFB:TwkFB.dll
 0002:000004f0       __imp_?TopLeft@ColorSpace@TwkFB@@YA?AV?$basic_string@DU?$char_traits@D@std@@V?$allocator@D@2@@std@@XZ 000000018003c4f0     TwkFB:TwkFB.dll
 0002:000004f8       __imp_?Top@ColorSpace@TwkFB@@YA?AV?$basic_string@DU?$char_traits@D@std@@V?$allocator@D@2@@std@@XZ 000000018003c4f8     TwkFB:TwkFB.dll
 0002:00000500       \177TwkFB_NULL_THUNK_DATA  000000018003c500     TwkFB:TwkFB.dll
 0002:00000508       __imp_?setBoolAttribute@Movie@TwkMovie@@UEAAXAEBV?$basic_string@DU?$char_traits@D@std@@V?$allocator@D@2@@std@@_N@Z 000000018003c508     TwkMovie:TwkMovie.dll
 0002:00000510       __imp_?setOutputResolution@ReformattingMovie@TwkMovie@@QEAAXHH@Z 000000018003c510     TwkMovie:TwkMovie.dll
 0002:00000518       __imp_?setAudio@ReformattingMovie@TwkMovie@@QEAAXM_KVChannelsVector@TwkAudio@@@Z 000000018003c518     TwkMovie:TwkMovie.dll
 0002:00000520       __imp_?setFPS@ReformattingMovie@TwkMovie@@QEAAXM@Z 000000018003c520     TwkMovie:TwkMovie.dll
 0002:00000528       __imp_??0ReformattingMovie@TwkMovie@@QEAA@PEAVMovie@1@@Z 000000018003c528     TwkMovie:TwkMovie.dll
 0002:00000530       __imp_?addType@MovieIO@TwkMovie@@IEAAXAEBV?$basic_string@DU?$char_traits@D@std@@V?$allocator@D@2@@std@@0IAEBV?$vector@U?$pair@V?$basic_string@DU?$char_traits@D@std@@V?$allocator@D@2@@std@@V12@@std@@V?$allocator@U?$pair@V?$basic_string@DU?$char_traits@D@std@@V?$allocator@D@2@@std@@V12@@std@@@2@@4@1AEBV?$vector@UParameter@MovieIO@TwkMovie@@V?$allocator@UParameter@MovieIO@TwkMovie@@@std@@@4@2@Z 000000018003c530     TwkMovie:TwkMovie.dll
 0002:00000538       __imp_?setDoubleAttribute@MovieIO@TwkMovie@@QEBAXAEBV?$basic_string@DU?$char_traits@D@std@@V?$allocator@D@2@@std@@N@Z 000000018003c538     TwkMovie:TwkMovie.dll
 0002:00000540       __imp_?getDoubleAttribute@MovieIO@TwkMovie@@QEBANAEBV?$basic_string@DU?$char_traits@D@std@@V?$allocator@D@2@@std@@@Z 000000018003c540     TwkMovie:TwkMovie.dll
 0002:00000548       __imp_?setStringAttribute@MovieIO@TwkMovie@@QEAAXAEBV?$basic_string@DU?$char_traits@D@std@@V?$allocator@D@2@@std@@0@Z 000000018003c548     TwkMovie:TwkMovie.dll
 0002:00000550       __imp_?getStringAttribute@MovieIO@TwkMovie@@QEBA?AV?$basic_string@DU?$char_traits@D@std@@V?$allocator@D@2@@std@@AEBV34@@Z 000000018003c550     TwkMovie:TwkMovie.dll
 0002:00000558       __imp_?setIntAttribute@MovieIO@TwkMovie@@QEAAXAEBV?$basic_string@DU?$char_traits@D@std@@V?$allocator@D@2@@std@@H@Z 000000018003c558     TwkMovie:TwkMovie.dll
 0002:00000560       __imp_?getIntAttribute@MovieIO@TwkMovie@@QEBAHAEBV?$basic_string@DU?$char_traits@D@std@@V?$allocator@D@2@@std@@@Z 000000018003c560     TwkMovie:TwkMovie.dll
 0002:00000568       __imp_??1MovieIO@TwkMovie@@UEAA@XZ 000000018003c568     TwkMovie:TwkMovie.dll
 0002:00000570       __imp_??0MovieIO@TwkMovie@@QEAA@AEBV?$basic_string@DU?$char_traits@D@std@@V?$allocator@D@2@@std@@0@Z 000000018003c570     TwkMovie:TwkMovie.dll
 0002:00000578       __imp_?reallyVerbose@MovieWriter@TwkMovie@@SA_NXZ 000000018003c578     TwkMovie:TwkMovie.dll
 0002:00000580       __imp_?open@MovieWriter@TwkMovie@@UEAA?AUMovieInfo@2@AEBU32@AEBV?$basic_string@DU?$char_traits@D@std@@V?$allocator@D@2@@std@@AEBUWriteRequest@Movie@2@@Z 000000018003c580     TwkMovie:TwkMovie.dll
 0002:00000588       __imp_??1MovieWriter@TwkMovie@@UEAA@XZ 000000018003c588     TwkMovie:TwkMovie.dll
 0002:00000590       __imp_??0MovieWriter@TwkMovie@@QEAA@XZ 000000018003c590     TwkMovie:TwkMovie.dll
 0002:00000598       __imp_??1MovieReader@TwkMovie@@UEAA@XZ 000000018003c598     TwkMovie:TwkMovie.dll
 0002:000005a0       __imp_??0MovieReader@TwkMovie@@QEAA@XZ 000000018003c5a0     TwkMovie:TwkMovie.dll
 0002:000005a8       __imp_?setDoubleAttribute@Movie@TwkMovie@@UEBAXAEBV?$basic_string@DU?$char_traits@D@std@@V?$allocator@D@2@@std@@N@Z 000000018003c5a8     TwkMovie:TwkMovie.dll
 0002:000005b0       __imp_?getDoubleAttribute@Movie@TwkMovie@@UEBANAEBV?$basic_string@DU?$char_traits@D@std@@V?$allocator@D@2@@std@@@Z 000000018003c5b0     TwkMovie:TwkMovie.dll
 0002:000005b8       __imp_?setStringAttribute@Movie@TwkMovie@@UEAAXAEBV?$basic_string@DU?$char_traits@D@std@@V?$allocator@D@2@@std@@0@Z 000000018003c5b8     TwkMovie:TwkMovie.dll
 0002:000005c0       __imp_?getStringAttribute@Movie@TwkMovie@@UEBA?AV?$basic_string@DU?$char_traits@D@std@@V?$allocator@D@2@@std@@AEBV34@@Z 000000018003c5c0     TwkMovie:TwkMovie.dll
 0002:000005c8       __imp_?setIntAttribute@Movie@TwkMovie@@UEAAXAEBV?$basic_string@DU?$char_traits@D@std@@V?$allocator@D@2@@std@@H@Z 000000018003c5c8     TwkMovie:TwkMovie.dll
 0002:000005d0       __imp_?getIntAttribute@Movie@TwkMovie@@UEBAHAEBV?$basic_string@DU?$char_traits@D@std@@V?$allocator@D@2@@std@@@Z 000000018003c5d0     TwkMovie:TwkMovie.dll
 0002:000005d8       __imp_?flush@Movie@TwkMovie@@UEAAXXZ 000000018003c5d8     TwkMovie:TwkMovie.dll
 0002:000005e0       __imp_?hasAudio@Movie@TwkMovie@@UEBA_NXZ 000000018003c5e0     TwkMovie:TwkMovie.dll
 0002:000005e8       __imp_?hasVideo@Movie@TwkMovie@@UEBA_NXZ 000000018003c5e8     TwkMovie:TwkMovie.dll
 0002:000005f0       __imp_?attributesAtFrame@Movie@TwkMovie@@UEAAXAEBUReadRequest@12@AEAV?$vector@PEAVFrameBuffer@TwkFB@@V?$allocator@PEAVFrameBuffer@TwkFB@@@std@@@std@@@Z 000000018003c5f0     TwkMovie:TwkMovie.dll
 0002:000005f8       __imp_?canConvertAudioRate@Movie@TwkMovie@@UEBA_NXZ 000000018003c5f8     TwkMovie:TwkMovie.dll
 0002:00000600       __imp_?getBoolAttribute@Movie@TwkMovie@@UEBA_NAEBV?$basic_string@DU?$char_traits@D@std@@V?$allocator@D@2@@std@@@Z 000000018003c600     TwkMovie:TwkMovie.dll
 0002:00000608       \177TwkMovie_NULL_THUNK_DATA 000000018003c608     TwkMovie:TwkMovie.dll
 0002:00000610       __imp_?pathIsURL@TwkUtil@@YA_NAEBV?$basic_string@DU?$char_traits@D@std@@V?$allocator@D@2@@std@@@Z 000000018003c610     TwkUtil:TwkUtil.dll
 0002:00000618       __imp_?to_wstring@TwkUtil@@YA?AV?$basic_string@_WU?$char_traits@_W@std@@V?$allocator@_W@2@@std@@PEBD@Z 000000018003c618     TwkUtil:TwkUtil.dll
 0002:00000620       \177TwkUtil_NULL_THUNK_DATA 000000018003c620     TwkUtil:TwkUtil.dll
 0002:00000628       __imp_memchr               000000018003c628     vcruntime:VCRUNTIME140.dll
 0002:00000630       __imp___RTDynamicCast      000000018003c630     vcruntime:VCRUNTIME140.dll
 0002:00000638       __imp_memset               000000018003c638     vcruntime:VCRUNTIME140.dll
 0002:00000640       __imp___std_type_info_destroy_list 000000018003c640     vcruntime:VCRUNTIME140.dll
 0002:00000648       __imp__purecall            000000018003c648     vcruntime:VCRUNTIME140.dll
 0002:00000650       __imp___std_terminate      000000018003c650     vcruntime:VCRUNTIME140.dll
 0002:00000658       __imp___std_exception_copy 000000018003c658     vcruntime:VCRUNTIME140.dll
 0002:00000660       __imp___std_exception_destroy 000000018003c660     vcruntime:VCRUNTIME140.dll
 0002:00000668       __imp___std_type_info_compare 000000018003c668     vcruntime:VCRUNTIME140.dll
 0002:00000670       __imp___C_specific_handler 000000018003c670     vcruntime:VCRUNTIME140.dll
 0002:00000678       __imp__CxxThrowException   000000018003c678     vcruntime:VCRUNTIME140.dll
 0002:00000680       __imp___CxxFrameHandler3   000000018003c680     vcruntime:VCRUNTIME140.dll
 0002:00000688       __imp_memcmp               000000018003c688     vcruntime:VCRUNTIME140.dll
 0002:00000690       __imp_memcpy               000000018003c690     vcruntime:VCRUNTIME140.dll
 0002:00000698       __imp_memmove              000000018003c698     vcruntime:VCRUNTIME140.dll
 0002:000006a0       \177VCRUNTIME140_NULL_THUNK_DATA 000000018003c6a0     vcruntime:VCRUNTIME140.dll
 0002:000006a8       __imp_atoi                 000000018003c6a8     ucrt:api-ms-win-crt-convert-l1-1-0.dll
 0002:000006b0       \177api-ms-win-crt-convert-l1-1-0_NULL_THUNK_DATA 000000018003c6b0     ucrt:api-ms-win-crt-convert-l1-1-0.dll
 0002:000006b8       __imp_getenv               000000018003c6b8     ucrt:api-ms-win-crt-environment-l1-1-0.dll
 0002:000006c0       \177api-ms-win-crt-environment-l1-1-0_NULL_THUNK_DATA 000000018003c6c0     ucrt:api-ms-win-crt-environment-l1-1-0.dll
 0002:000006c8       __imp__callnewh            000000018003c6c8     ucrt:api-ms-win-crt-heap-l1-1-0.dll
 0002:000006d0       __imp_calloc               000000018003c6d0     ucrt:api-ms-win-crt-heap-l1-1-0.dll
 0002:000006d8       __imp_free                 000000018003c6d8     ucrt:api-ms-win-crt-heap-l1-1-0.dll
 0002:000006e0       __imp_malloc               000000018003c6e0     ucrt:api-ms-win-crt-heap-l1-1-0.dll
 0002:000006e8       \177api-ms-win-crt-heap-l1-1-0_NULL_THUNK_DATA 000000018003c6e8     ucrt:api-ms-win-crt-heap-l1-1-0.dll
 0002:000006f0       __imp_localeconv           000000018003c6f0     ucrt:api-ms-win-crt-locale-l1-1-0.dll
 0002:000006f8       __imp___initialize_lconv_for_unsigned_char 000000018003c6f8     ucrt:api-ms-win-crt-locale-l1-1-0.dll
 0002:00000700       \177api-ms-win-crt-locale-l1-1-0_NULL_THUNK_DATA 000000018003c700     ucrt:api-ms-win-crt-locale-l1-1-0.dll
 0002:00000708       __imp_powf                 000000018003c708     ucrt:api-ms-win-crt-math-l1-1-0.dll
 0002:00000710       __imp_pow                  000000018003c710     ucrt:api-ms-win-crt-math-l1-1-0.dll
 0002:00000718       \177api-ms-win-crt-math-l1-1-0_NULL_THUNK_DATA 000000018003c718     ucrt:api-ms-win-crt-math-l1-1-0.dll
 0002:00000720       __imp__seh_filter_dll      000000018003c720     ucrt:api-ms-win-crt-runtime-l1-1-0.dll
 0002:00000728       __imp__configure_narrow_argv 000000018003c728     ucrt:api-ms-win-crt-runtime-l1-1-0.dll
 0002:00000730       __imp__initialize_narrow_environment 000000018003c730     ucrt:api-ms-win-crt-runtime-l1-1-0.dll
 0002:00000738       __imp__initialize_onexit_table 000000018003c738     ucrt:api-ms-win-crt-runtime-l1-1-0.dll
 0002:00000740       __imp__register_onexit_function 000000018003c740     ucrt:api-ms-win-crt-runtime-l1-1-0.dll
 0002:00000748       __imp__execute_onexit_table 000000018003c748     ucrt:api-ms-win-crt-runtime-l1-1-0.dll
 0002:00000750       __imp__initterm_e          000000018003c750     ucrt:api-ms-win-crt-runtime-l1-1-0.dll
 0002:00000758       __imp__initterm            000000018003c758     ucrt:api-ms-win-crt-runtime-l1-1-0.dll
 0002:00000760       __imp__cexit               000000018003c760     ucrt:api-ms-win-crt-runtime-l1-1-0.dll
 0002:00000768       __imp__invalid_parameter_noinfo_noreturn 000000018003c768     ucrt:api-ms-win-crt-runtime-l1-1-0.dll
 0002:00000770       __imp__crt_atexit          000000018003c770     ucrt:api-ms-win-crt-runtime-l1-1-0.dll
 0002:00000778       \177api-ms-win-crt-runtime-l1-1-0_NULL_THUNK_DATA 000000018003c778     ucrt:api-ms-win-crt-runtime-l1-1-0.dll
 0002:00000780       __imp___stdio_common_vsprintf 000000018003c780     ucrt:api-ms-win-crt-stdio-l1-1-0.dll
 0002:00000788       __imp___stdio_common_vsscanf 000000018003c788     ucrt:api-ms-win-crt-stdio-l1-1-0.dll
 0002:00000790       __imp___acrt_iob_func      000000018003c790     ucrt:api-ms-win-crt-stdio-l1-1-0.dll
 0002:00000798       __imp___stdio_common_vfprintf 000000018003c798     ucrt:api-ms-win-crt-stdio-l1-1-0.dll
 0002:000007a0       __imp___stdio_common_vsprintf_s 000000018003c7a0     ucrt:api-ms-win-crt-stdio-l1-1-0.dll
 0002:000007a8       \177api-ms-win-crt-stdio-l1-1-0_NULL_THUNK_DATA 000000018003c7a8     ucrt:api-ms-win-crt-stdio-l1-1-0.dll
 0002:000007b0       __imp_toupper              000000018003c7b0     ucrt:api-ms-win-crt-string-l1-1-0.dll
 0002:000007b8       __imp_isdigit              000000018003c7b8     ucrt:api-ms-win-crt-string-l1-1-0.dll
 0002:000007c0       \177api-ms-win-crt-string-l1-1-0_NULL_THUNK_DATA 000000018003c7c0     ucrt:api-ms-win-crt-string-l1-1-0.dll
 0002:000007c8       __imp_?status@detail@filesystem@boost@@YA?AVfile_status@23@AEBVpath@23@PEAVerror_code@system@3@@Z 000000018003c7c8     boost_filesystem-vc141-mt-x64-1_66:boost_filesystem-vc141-mt-x64-1_66.dll
 0002:000007d0       __imp_?codecvt@path@filesystem@boost@@SAAEBV?$codecvt@_WDU_Mbstatet@@@std@@XZ 000000018003c7d0     boost_filesystem-vc141-mt-x64-1_66:boost_filesystem-vc141-mt-x64-1_66.dll
 0002:000007d8       __imp_?type@file_status@filesystem@boost@@QEBA?AW4file_type@23@XZ 000000018003c7d8     boost_filesystem-vc141-mt-x64-1_66:boost_filesystem-vc141-mt-x64-1_66.dll
 0002:000007e0       __imp_??1path@filesystem@boost@@QEAA@XZ 000000018003c7e0     boost_filesystem-vc141-mt-x64-1_66:boost_filesystem-vc141-mt-x64-1_66.dll
 0002:000007e8       __imp_?extension@path@filesystem@boost@@QEBA?AV123@XZ 000000018003c7e8     boost_filesystem-vc141-mt-x64-1_66:boost_filesystem-vc141-mt-x64-1_66.dll
 0002:000007f0       __imp_?string@path@filesystem@boost@@QEBA?BV?$basic_string@DU?$char_traits@D@std@@V?$allocator@D@2@@std@@XZ 000000018003c7f0     boost_filesystem-vc141-mt-x64-1_66:boost_filesystem-vc141-mt-x64-1_66.dll
 0002:000007f8       __imp_??0path@filesystem@boost@@QEAA@AEBV?$basic_string@_WU?$char_traits@_W@std@@V?$allocator@_W@2@@std@@@Z 000000018003c7f8     boost_filesystem-vc141-mt-x64-1_66:boost_filesystem-vc141-mt-x64-1_66.dll
 0002:00000800       __imp_?convert@path_traits@filesystem@boost@@YAXPEBD0AEAV?$basic_string@_WU?$char_traits@_W@std@@V?$allocator@_W@2@@std@@AEBV?$codecvt@_WDU_Mbstatet@@@5@@Z 000000018003c800     boost_filesystem-vc141-mt-x64-1_66:boost_filesystem-vc141-mt-x64-1_66.dll
 0002:00000808       \177boost_filesystem-vc141-mt-x64-1_66_NULL_THUNK_DATA 000000018003c808     boost_filesystem-vc141-mt-x64-1_66:boost_filesystem-vc141-mt-x64-1_66.dll
 0002:00000810       __imp_?add_options@options_description@program_options@boost@@QEAA?AVoptions_description_easy_init@23@XZ 000000018003c810     boost_program_options-vc141-mt-x64-1_66:boost_program_options-vc141-mt-x64-1_66.dll
 0002:00000818       __imp_??1options_description@program_options@boost@@QEAA@XZ 000000018003c818     boost_program_options-vc141-mt-x64-1_66:boost_program_options-vc141-mt-x64-1_66.dll
 0002:00000820       __imp_??0cmdline@detail@program_options@boost@@QEAA@AEBV?$vector@V?$basic_string@DU?$char_traits@D@std@@V?$allocator@D@2@@std@@V?$allocator@V?$basic_string@DU?$char_traits@D@std@@V?$allocator@D@2@@std@@@2@@std@@@Z 000000018003c820     boost_program_options-vc141-mt-x64-1_66:boost_program_options-vc141-mt-x64-1_66.dll
 0002:00000828       __imp_?style@cmdline@detail@program_options@boost@@QEAAXH@Z 000000018003c828     boost_program_options-vc141-mt-x64-1_66:boost_program_options-vc141-mt-x64-1_66.dll
 0002:00000830       __imp_?get_canonical_option_prefix@cmdline@detail@program_options@boost@@QEAAHXZ 000000018003c830     boost_program_options-vc141-mt-x64-1_66:boost_program_options-vc141-mt-x64-1_66.dll
 0002:00000838       __imp_?set_options_description@cmdline@detail@program_options@boost@@QEAAXAEBVoptions_description@34@@Z 000000018003c838     boost_program_options-vc141-mt-x64-1_66:boost_program_options-vc141-mt-x64-1_66.dll
 0002:00000840       __imp_?run@cmdline@detail@program_options@boost@@QEAA?AV?$vector@V?$basic_option@D@program_options@boost@@V?$allocator@V?$basic_option@D@program_options@boost@@@std@@@std@@XZ 000000018003c840     boost_program_options-vc141-mt-x64-1_66:boost_program_options-vc141-mt-x64-1_66.dll
 0002:00000848       __imp_?m_default_line_length@options_description@program_options@boost@@2IB 000000018003c848     boost_program_options-vc141-mt-x64-1_66:boost_program_options-vc141-mt-x64-1_66.dll
 0002:00000850       __imp_?set_additional_parser@cmdline@detail@program_options@boost@@QEAAXV?$function1@U?$pair@V?$basic_string@DU?$char_traits@D@std@@V?$allocator@D@2@@std@@V12@@std@@AEBV?$basic_string@DU?$char_traits@D@std@@V?$allocator@D@2@@2@@4@@Z 000000018003c850     boost_program_options-vc141-mt-x64-1_66:boost_program_options-vc141-mt-x64-1_66.dll
 0002:00000858       __imp_??1cmdline@detail@program_options@boost@@QEAA@XZ 000000018003c858     boost_program_options-vc141-mt-x64-1_66:boost_program_options-vc141-mt-x64-1_66.dll
 0002:00000860       __imp_?to_internal@program_options@boost@@YA?AV?$basic_string@DU?$char_traits@D@std@@V?$allocator@D@2@@std@@AEBV34@@Z 000000018003c860     boost_program_options-vc141-mt-x64-1_66:boost_program_options-vc141-mt-x64-1_66.dll
 0002:00000868       __imp_?store@program_options@boost@@YAXAEBV?$basic_parsed_options@D@12@AEAVvariables_map@12@_N@Z 000000018003c868     boost_program_options-vc141-mt-x64-1_66:boost_program_options-vc141-mt-x64-1_66.dll
 0002:00000870       __imp_?notify@program_options@boost@@YAXAEAVvariables_map@12@@Z 000000018003c870     boost_program_options-vc141-mt-x64-1_66:boost_program_options-vc141-mt-x64-1_66.dll
 0002:00000878       __imp_??0variables_map@program_options@boost@@QEAA@XZ 000000018003c878     boost_program_options-vc141-mt-x64-1_66:boost_program_options-vc141-mt-x64-1_66.dll
 0002:00000880       __imp_??1variables_map@program_options@boost@@UEAA@XZ 000000018003c880     boost_program_options-vc141-mt-x64-1_66:boost_program_options-vc141-mt-x64-1_66.dll
 0002:00000888       __imp_??0error@program_options@boost@@QEAA@AEBV012@@Z 000000018003c888     boost_program_options-vc141-mt-x64-1_66:boost_program_options-vc141-mt-x64-1_66.dll
 0002:00000890       __imp_??0error_with_option_name@program_options@boost@@QEAA@AEBV012@@Z 000000018003c890     boost_program_options-vc141-mt-x64-1_66:boost_program_options-vc141-mt-x64-1_66.dll
 0002:00000898       __imp_?parse@?$value_semantic_codecvt_helper@D@program_options@boost@@EEBAXAEAVany@3@AEBV?$vector@V?$basic_string@DU?$char_traits@D@std@@V?$allocator@D@2@@std@@V?$allocator@V?$basic_string@DU?$char_traits@D@std@@V?$allocator@D@2@@std@@@2@@std@@_N@Z 000000018003c898     boost_program_options-vc141-mt-x64-1_66:boost_program_options-vc141-mt-x64-1_66.dll
 0002:000008a0       __imp_?set_option_name@error_with_option_name@program_options@boost@@UEAAXAEBV?$basic_string@DU?$char_traits@D@std@@V?$allocator@D@2@@std@@@Z 000000018003c8a0     boost_program_options-vc141-mt-x64-1_66:boost_program_options-vc141-mt-x64-1_66.dll
 0002:000008a8       __imp_?substitute_placeholders@error_with_option_name@program_options@boost@@MEBAXAEBV?$basic_string@DU?$char_traits@D@std@@V?$allocator@D@2@@std@@@Z 000000018003c8a8     boost_program_options-vc141-mt-x64-1_66:boost_program_options-vc141-mt-x64-1_66.dll
 0002:000008b0       __imp_?what@error_with_option_name@program_options@boost@@UEBAPEBDXZ 000000018003c8b0     boost_program_options-vc141-mt-x64-1_66:boost_program_options-vc141-mt-x64-1_66.dll
 0002:000008b8       __imp_?arg@program_options@boost@@3V?$basic_string@DU?$char_traits@D@std@@V?$allocator@D@2@@std@@A 000000018003c8b8     boost_program_options-vc141-mt-x64-1_66:boost_program_options-vc141-mt-x64-1_66.dll
 0002:000008c0       __imp_??Roptions_description_easy_init@program_options@boost@@QEAAAEAV012@PEBDPEBVvalue_semantic@12@0@Z 000000018003c8c0     boost_program_options-vc141-mt-x64-1_66:boost_program_options-vc141-mt-x64-1_66.dll
 0002:000008c8       __imp_?validate@program_options@boost@@YAXAEAVany@2@AEBV?$vector@V?$basic_string@DU?$char_traits@D@std@@V?$allocator@D@2@@std@@V?$allocator@V?$basic_string@DU?$char_traits@D@std@@V?$allocator@D@2@@std@@@2@@std@@PEAV?$basic_string@DU?$char_traits@D@std@@V?$allocator@D@2@@5@H@Z 000000018003c8c8     boost_program_options-vc141-mt-x64-1_66:boost_program_options-vc141-mt-x64-1_66.dll
 0002:000008d0       __imp_?check_first_occurrence@validators@program_options@boost@@YAXAEBVany@3@@Z 000000018003c8d0     boost_program_options-vc141-mt-x64-1_66:boost_program_options-vc141-mt-x64-1_66.dll
 0002:000008d8       __imp_??1validation_error@program_options@boost@@UEAA@XZ 000000018003c8d8     boost_program_options-vc141-mt-x64-1_66:boost_program_options-vc141-mt-x64-1_66.dll
 0002:000008e0       __imp_??0validation_error@program_options@boost@@QEAA@AEBV012@@Z 000000018003c8e0     boost_program_options-vc141-mt-x64-1_66:boost_program_options-vc141-mt-x64-1_66.dll
 0002:000008e8       __imp_??1invalid_option_value@program_options@boost@@UEAA@XZ 000000018003c8e8     boost_program_options-vc141-mt-x64-1_66:boost_program_options-vc141-mt-x64-1_66.dll
 0002:000008f0       __imp_??0validation_error@program_options@boost@@QEAA@W4kind_t@012@AEBV?$basic_string@DU?$char_traits@D@std@@V?$allocator@D@2@@std@@1H@Z 000000018003c8f0     boost_program_options-vc141-mt-x64-1_66:boost_program_options-vc141-mt-x64-1_66.dll
 0002:000008f8       __imp_??0options_description@program_options@boost@@QEAA@AEBV?$basic_string@DU?$char_traits@D@std@@V?$allocator@D@2@@std@@II@Z 000000018003c8f8     boost_program_options-vc141-mt-x64-1_66:boost_program_options-vc141-mt-x64-1_66.dll
 0002:00000900       __imp_??0invalid_option_value@program_options@boost@@QEAA@AEBV012@@Z 000000018003c900     boost_program_options-vc141-mt-x64-1_66:boost_program_options-vc141-mt-x64-1_66.dll
 0002:00000908       __imp_??0?$value_semantic_codecvt_helper@D@program_options@boost@@QEAA@XZ 000000018003c908     boost_program_options-vc141-mt-x64-1_66:boost_program_options-vc141-mt-x64-1_66.dll
 0002:00000910       __imp_??1?$value_semantic_codecvt_helper@D@program_options@boost@@UEAA@XZ 000000018003c910     boost_program_options-vc141-mt-x64-1_66:boost_program_options-vc141-mt-x64-1_66.dll
 0002:00000918       __imp_??0invalid_option_value@program_options@boost@@QEAA@AEBV?$basic_string@DU?$char_traits@D@std@@V?$allocator@D@2@@std@@@Z 000000018003c918     boost_program_options-vc141-mt-x64-1_66:boost_program_options-vc141-mt-x64-1_66.dll
 0002:00000920       \177boost_program_options-vc141-mt-x64-1_66_NULL_THUNK_DATA 000000018003c920     boost_program_options-vc141-mt-x64-1_66:boost_program_options-vc141-mt-x64-1_66.dll
 0002:00000928       __imp_?generic_category@system@boost@@YAAEBVerror_category@12@XZ 000000018003c928     boost_system-vc141-mt-x64-1_66:boost_system-vc141-mt-x64-1_66.dll
 0002:00000930       \177boost_system-vc141-mt-x64-1_66_NULL_THUNK_DATA 000000018003c930     boost_system-vc141-mt-x64-1_66:boost_system-vc141-mt-x64-1_66.dll
 0002:00000938       __imp_avcodec_open2        000000018003c938     libavcodec:libavcodec.dll
 0002:00000940       __imp_avcodec_get_class    000000018003c940     libavcodec:libavcodec.dll
 0002:00000948       __imp_avcodec_register     000000018003c948     libavcodec:libavcodec.dll
 0002:00000950       __imp_avcodec_close        000000018003c950     libavcodec:libavcodec.dll
 0002:00000958       __imp_av_init_packet       000000018003c958     libavcodec:libavcodec.dll
 0002:00000960       __imp_av_free_packet       000000018003c960     libavcodec:libavcodec.dll
 0002:00000968       __imp_avcodec_find_decoder 000000018003c968     libavcodec:libavcodec.dll
 0002:00000970       __imp_avcodec_find_decoder_by_name 000000018003c970     libavcodec:libavcodec.dll
 0002:00000978       __imp_avcodec_decode_audio4 000000018003c978     libavcodec:libavcodec.dll
 0002:00000980       __imp_avcodec_decode_video2 000000018003c980     libavcodec:libavcodec.dll
 0002:00000988       __imp_avcodec_send_packet  000000018003c988     libavcodec:libavcodec.dll
 0002:00000990       __imp_avcodec_receive_frame 000000018003c990     libavcodec:libavcodec.dll
 0002:00000998       __imp_avcodec_find_encoder_by_name 000000018003c998     libavcodec:libavcodec.dll
 0002:000009a0       __imp_avcodec_encode_audio2 000000018003c9a0     libavcodec:libavcodec.dll
 0002:000009a8       __imp_avcodec_encode_video2 000000018003c9a8     libavcodec:libavcodec.dll
 0002:000009b0       __imp_avpicture_alloc      000000018003c9b0     libavcodec:libavcodec.dll
 0002:000009b8       __imp_avpicture_free       000000018003c9b8     libavcodec:libavcodec.dll
 0002:000009c0       __imp_av_picture_copy      000000018003c9c0     libavcodec:libavcodec.dll
 0002:000009c8       __imp_avcodec_fill_audio_frame 000000018003c9c8     libavcodec:libavcodec.dll
 0002:000009d0       __imp_avcodec_flush_buffers 000000018003c9d0     libavcodec:libavcodec.dll
 0002:000009d8       __imp_avcodec_get_name     000000018003c9d8     libavcodec:libavcodec.dll
 0002:000009e0       __imp_avcodec_is_open      000000018003c9e0     libavcodec:libavcodec.dll
 0002:000009e8       __imp_av_codec_is_encoder  000000018003c9e8     libavcodec:libavcodec.dll
 0002:000009f0       __imp_av_codec_next        000000018003c9f0     libavcodec:libavcodec.dll
 0002:000009f8       __imp_avpicture_fill       000000018003c9f8     libavcodec:libavcodec.dll
 0002:00000a00       \177libavcodec_NULL_THUNK_DATA 000000018003ca00     libavcodec:libavcodec.dll
 0002:00000a08       __imp_avformat_free_context 000000018003ca08     libavformat:libavformat.dll
 0002:00000a10       __imp_avformat_get_class   000000018003ca10     libavformat:libavformat.dll
 0002:00000a18       __imp_avformat_new_stream  000000018003ca18     libavformat:libavformat.dll
 0002:00000a20       __imp_avformat_alloc_output_context2 000000018003ca20     libavformat:libavformat.dll
 0002:00000a28       __imp_avformat_open_input  000000018003ca28     libavformat:libavformat.dll
 0002:00000a30       __imp_avformat_network_init 000000018003ca30     libavformat:libavformat.dll
 0002:00000a38       __imp_av_read_frame        000000018003ca38     libavformat:libavformat.dll
 0002:00000a40       __imp_av_seek_frame        000000018003ca40     libavformat:libavformat.dll
 0002:00000a48       __imp_avformat_close_input 000000018003ca48     libavformat:libavformat.dll
 0002:00000a50       __imp_avformat_write_header 000000018003ca50     libavformat:libavformat.dll
 0002:00000a58       __imp_av_interleaved_write_frame 000000018003ca58     libavformat:libavformat.dll
 0002:00000a60       __imp_av_write_trailer     000000018003ca60     libavformat:libavformat.dll
 0002:00000a68       __imp_avformat_find_stream_info 000000018003ca68     libavformat:libavformat.dll
 0002:00000a70       __imp_av_guess_format      000000018003ca70     libavformat:libavformat.dll
 0002:00000a78       __imp_avformat_query_codec 000000018003ca78     libavformat:libavformat.dll
 0002:00000a80       __imp_avio_open            000000018003ca80     libavformat:libavformat.dll
 0002:00000a88       \177libavformat_NULL_THUNK_DATA 000000018003ca88     libavformat:libavformat.dll
 0002:00000a90       __imp_av_get_channel_description 000000018003ca90     libavutil:libavutil.dll
 0002:00000a98       __imp_av_malloc            000000018003ca98     libavutil:libavutil.dll
 0002:00000aa0       __imp_av_mallocz           000000018003caa0     libavutil:libavutil.dll
 0002:00000aa8       __imp_av_realloc_f         000000018003caa8     libavutil:libavutil.dll
 0002:00000ab0       __imp_av_freep             000000018003cab0     libavutil:libavutil.dll
 0002:00000ab8       __imp_av_d2q               000000018003cab8     libavutil:libavutil.dll
 0002:00000ac0       __imp_av_rescale_q         000000018003cac0     libavutil:libavutil.dll
 0002:00000ac8       __imp_av_log               000000018003cac8     libavutil:libavutil.dll
 0002:00000ad0       __imp_av_log_get_level     000000018003cad0     libavutil:libavutil.dll
 0002:00000ad8       __imp_av_log_set_level     000000018003cad8     libavutil:libavutil.dll
 0002:00000ae0       __imp_av_timecode_init_from_string 000000018003cae0     libavutil:libavutil.dll
 0002:00000ae8       __imp_av_timecode_init     000000018003cae8     libavutil:libavutil.dll
 0002:00000af0       __imp_av_timecode_make_string 000000018003caf0     libavutil:libavutil.dll
 0002:00000af8       __imp_av_opt_get_int       000000018003caf8     libavutil:libavutil.dll
 0002:00000b00       __imp_av_opt_set_q         000000018003cb00     libavutil:libavutil.dll
 0002:00000b08       __imp_av_opt_set_double    000000018003cb08     libavutil:libavutil.dll
 0002:00000b10       __imp_av_opt_set_int       000000018003cb10     libavutil:libavutil.dll
 0002:00000b18       __imp_av_opt_set           000000018003cb18     libavutil:libavutil.dll
 0002:00000b20       __imp_av_opt_next          000000018003cb20     libavutil:libavutil.dll
 0002:00000b28       __imp_av_opt_find          000000018003cb28     libavutil:libavutil.dll
 0002:00000b30       __imp_av_get_pix_fmt_name  000000018003cb30     libavutil:libavutil.dll
 0002:00000b38       __imp_av_get_pix_fmt       000000018003cb38     libavutil:libavutil.dll
 0002:00000b40       __imp_av_pix_fmt_count_planes 000000018003cb40     libavutil:libavutil.dll
 0002:00000b48       __imp_av_pix_fmt_get_chroma_sub_sample 000000018003cb48     libavutil:libavutil.dll
 0002:00000b50       __imp_av_pix_fmt_desc_get  000000018003cb50     libavutil:libavutil.dll
 0002:00000b58       __imp_av_frame_free        000000018003cb58     libavutil:libavutil.dll
 0002:00000b60       __imp_av_frame_alloc       000000018003cb60     libavutil:libavutil.dll
 0002:00000b68       __imp_av_dict_set_int      000000018003cb68     libavutil:libavutil.dll
 0002:00000b70       __imp_av_dict_set          000000018003cb70     libavutil:libavutil.dll
 0002:00000b78       __imp_av_dict_get          000000018003cb78     libavutil:libavutil.dll
 0002:00000b80       __imp_av_strerror          000000018003cb80     libavutil:libavutil.dll
 0002:00000b88       __imp_av_get_channel_name  000000018003cb88     libavutil:libavutil.dll
 0002:00000b90       __imp_av_get_default_channel_layout 000000018003cb90     libavutil:libavutil.dll
 0002:00000b98       __imp_av_sample_fmt_is_planar 000000018003cb98     libavutil:libavutil.dll
 0002:00000ba0       __imp_av_get_bytes_per_sample 000000018003cba0     libavutil:libavutil.dll
 0002:00000ba8       __imp_av_get_sample_fmt    000000018003cba8     libavutil:libavutil.dll
 0002:00000bb0       __imp_av_get_sample_fmt_name 000000018003cbb0     libavutil:libavutil.dll
 0002:00000bb8       __imp_av_log_set_callback  000000018003cbb8     libavutil:libavutil.dll
 0002:00000bc0       \177libavutil_NULL_THUNK_DATA 000000018003cbc0     libavutil:libavutil.dll
 0002:00000bc8       __imp_sws_freeContext      000000018003cbc8     libswscale:libswscale.dll
 0002:00000bd0       __imp_sws_scale            000000018003cbd0     libswscale:libswscale.dll
 0002:00000bd8       __imp_sws_setColorspaceDetails 000000018003cbd8     libswscale:libswscale.dll
 0002:00000be0       __imp_sws_getColorspaceDetails 000000018003cbe0     libswscale:libswscale.dll
 0002:00000be8       __imp_sws_getCachedContext 000000018003cbe8     libswscale:libswscale.dll
 0002:00000bf0       __imp_sws_getCoefficients  000000018003cbf0     libswscale:libswscale.dll
 0002:00000bf8       \177libswscale_NULL_THUNK_DATA 000000018003cbf8     libswscale:libswscale.dll
 0002:00000c00       __imp_MP4LogSetLevel       000000018003cc00     mp4v2:mp4v2.dll
 0002:00000c08       __imp_MP4Close             000000018003cc08     mp4v2:mp4v2.dll
 0002:00000c10       __imp_MP4GetTrackMediaDataName 000000018003cc10     mp4v2:mp4v2.dll
 0002:00000c18       __imp_MP4FindTrackId       000000018003cc18     mp4v2:mp4v2.dll
 0002:00000c20       __imp_MP4GetBytesProperty  000000018003cc20     mp4v2:mp4v2.dll
 0002:00000c28       __imp_MP4GetStringProperty 000000018003cc28     mp4v2:mp4v2.dll
 0002:00000c30       __imp_MP4GetIntegerProperty 000000018003cc30     mp4v2:mp4v2.dll
 0002:00000c38       __imp_MP4HaveAtom          000000018003cc38     mp4v2:mp4v2.dll
 0002:00000c40       __imp_MP4Read              000000018003cc40     mp4v2:mp4v2.dll
 0002:00000c48       \177mp4v2_NULL_THUNK_DATA  000000018003cc48     mp4v2:mp4v2.dll
 0002:00000c50       __imp_nedfree              000000018003cc50     nedmalloc:nedmalloc.dll
 0002:00000c58       __imp_nedmalloc            000000018003cc58     nedmalloc:nedmalloc.dll
 0002:00000c60       \177nedmalloc_NULL_THUNK_DATA 000000018003cc60     nedmalloc:nedmalloc.dll
 0002:00000c68       __guard_check_icall_fptr   000000018003cc68     MSVCRT:guard_support.obj
 0002:00000c70       __guard_dispatch_icall_fptr 000000018003cc70     MSVCRT:guard_support.obj
 0002:00000c78       __xc_a                     000000018003cc78     MSVCRT:initializers.obj
 0002:00000c90       __xc_z                     000000018003cc90     MSVCRT:initializers.obj
 0002:00000c98       __xi_a                     000000018003cc98     MSVCRT:initializers.obj
 0002:00000cb0       __xi_z                     000000018003ccb0     MSVCRT:initializers.obj
 0002:00000cb8       __xl_a                     000000018003ccb8     MSVCRT:tlssup.obj
 0002:00000cc0       __xl_z                     000000018003ccc0     MSVCRT:tlssup.obj
 0002:00000cc8       __xp_a                     000000018003ccc8     MSVCRT:initializers.obj
 0002:00000cd0       __xp_z                     000000018003ccd0     MSVCRT:initializers.obj
 0002:00000cd8       __xt_a                     000000018003ccd8     MSVCRT:initializers.obj
 0002:00000ce0       __xt_z                     000000018003cce0     MSVCRT:initializers.obj
 0002:00000d10       ??_C@_0N@JCHHHPEK@apple_prores@ 000000018003cd10     init.obj
 0002:00000d20       ??_C@_0N@DLPGCBCB@Apple?5ProRes@ 000000018003cd20     init.obj
 0002:00000d30       ??_C@_03ODNLKAMM@ac3@      000000018003cd30     init.obj
 0002:00000d38       ??_C@_0L@FLDDCMJB@mpeg2video@ 000000018003cd38     init.obj
 0002:00000d44       ??_C@_04FKJFGIGI@svq1@     000000018003cd44     init.obj
 0002:00000d4c       ??_C@_04GIKDAKOK@svq3@     000000018003cd4c     init.obj
 0002:00001788       ??_7exception@std@@6B@     000000018003d788     init.obj
 0002:00001798       ??_C@_0BC@EOODALEL@Unknown?5exception@ 000000018003d798     init.obj
 0002:000017b8       ??_7logic_error@std@@6B@   000000018003d7b8     init.obj
 0002:000017d0       ??_7runtime_error@std@@6B@ 000000018003d7d0     init.obj
 0002:000017e8       ??_7bad_cast@std@@6B@      000000018003d7e8     init.obj
 0002:000017f8       ??_C@_08EPJLHIJG@bad?5cast@ 000000018003d7f8     init.obj
 0002:00001804       ??_C@_01NBENCBCI@?$CK@     000000018003d804     init.obj
 0002:00001806       ??_C@_00CNPNBAHC@@         000000018003d806     init.obj
 0002:00001810       ??_7?$numpunct@D@std@@6B@  000000018003d810     init.obj
 0002:00001858       ??_7?$basic_stringbuf@DU?$char_traits@D@std@@V?$allocator@D@2@@std@@6B@ 000000018003d858     init.obj
 0002:000018d0       ??_C@_01PKGAHCOL@?$CJ@     000000018003d8d0     init.obj
 0002:000018e0       ??_7exception@boost@@6B@   000000018003d8e0     init.obj
 0002:000018f0       ??_7clone_base@exception_detail@boost@@6B@ 000000018003d8f0     init.obj
 0002:00001910       ??_7placeholder@any@boost@@6B@ 000000018003d910     init.obj
 0002:00001930       ??_7bad_lexical_cast@boost@@6B@ 000000018003d930     init.obj
 0002:00001940       ??_C@_0EH@FFMEKAOB@bad?5lexical?5cast?3?5source?5type?5v@ 000000018003d940     init.obj
 0002:00001990       ??_7typed_value_base@program_options@boost@@6B@ 000000018003d990     init.obj
 0002:000019a8       ??_7?$typed_value@HD@program_options@boost@@6B?$value_semantic_codecvt_helper@D@12@@ 000000018003d9a8     init.obj
 0002:00001a00       ??_7?$typed_value@HD@program_options@boost@@6Btyped_value_base@12@@ 000000018003da00     init.obj
 0002:00001a18       ??_7?$typed_value@V?$basic_string@DU?$char_traits@D@std@@V?$allocator@D@2@@std@@D@program_options@boost@@6B?$value_semantic_codecvt_helper@D@12@@ 000000018003da18     init.obj
 0002:00001a70       ??_7?$typed_value@V?$basic_string@DU?$char_traits@D@std@@V?$allocator@D@2@@std@@D@program_options@boost@@6Btyped_value_base@12@@ 000000018003da70     init.obj
 0002:00001a88       ??_7?$typed_value@ND@program_options@boost@@6B?$value_semantic_codecvt_helper@D@12@@ 000000018003da88     init.obj
 0002:00001ae0       ??_7?$typed_value@ND@program_options@boost@@6Btyped_value_base@12@@ 000000018003dae0     init.obj
 0002:00001af0       ??_C@_03LKLGDMJI@eng@      000000018003daf0     init.obj
 0002:00001af8       ??_C@_0BB@DPDKFBCJ@MOVIEFFMPEG_ARGS@ 000000018003daf8     init.obj
 0002:00001b0c       ??_C@_01CLKCMJKC@?5@       000000018003db0c     init.obj
 0002:00001b10       ??_C@_0CD@HDCMCPCP@Attempt?5to?5load?5any?5file?5extens@ 000000018003db10     init.obj
 0002:00001b38       ??_C@_0L@HEJCMFJM@bruteForce@ 000000018003db38     init.obj
 0002:00001b48       ??_C@_0CN@PAHLKKBI@Thread?5count?5to?5pass?5to?5ffmpeg?5@ 000000018003db48     init.obj
 0002:00001b78       ??_C@_0N@BNACBJJN@codecThreads@ 000000018003db78     init.obj
 0002:00001b88       ??_C@_0DA@LKLAJEBA@Language?5for?5audio?5and?5subtitle@ 000000018003db88     init.obj
 0002:00001bb8       ??_C@_08JGCCIMAA@language@ 000000018003dbb8     init.obj
 0002:00001bc8       ??_C@_0DB@MDOJDBCF@For?5cases?5where?5there?5is?5no?5way@ 000000018003dbc8     init.obj
 0002:00001c00       ??_C@_0L@POOCGNPC@defaultFPS@ 000000018003dc00     init.obj
 0002:00001c10       ??_C@_0BK@FCPAHLKH@ERROR?3?5MOVIEFFMPEG_ARGS?3?5@ 000000018003dc10     init.obj
 0002:00001c2c       ??_C@_01BJJEKLCA@?$CC@     000000018003dc2c     init.obj
 0002:00001c30       ??_C@_0BM@DBENNAML@ERROR?3?5MOVIEFFMPEG_ARGS?5?$DN?5?$CC@ 000000018003dc30     init.obj
 0002:00001c50       ??_C@_0CA@FOLOIDKK@ERROR?3?5bad?5MOVIEFFMPEG_ARGS?5?$DN?5?$CC@ 000000018003dc50     init.obj
 0002:00001c70       ??_C@_0BD@OLBABOEK@vector?$DMT?$DO?5too?5long@ 000000018003dc70     init.obj
 0002:00001c88       ??_C@_0BI@CFPLBAOH@invalid?5string?5position@ 000000018003dc88     init.obj
 0002:00001ca0       ??_C@_02DIDHHIJL@?$CJ?$FN@ 000000018003dca0     init.obj
 0002:00001ca4       ??_C@_02FMAIHJAL@?$CI?$DN@ 000000018003dca4     init.obj
 0002:00001ca8       ??_C@_02KLPKPAC@?$FL?$DN@  000000018003dca8     init.obj
 0002:00001cac       ??_C@_03CCDPNADL@?5?$CI?$DN@ 000000018003dcac     init.obj
 0002:00001cb8       ??_7?$holder@N@any@boost@@6B@ 000000018003dcb8     init.obj
 0002:00001cd8       ??_7?$holder@V?$basic_string@DU?$char_traits@D@std@@V?$allocator@D@2@@std@@@any@boost@@6B@ 000000018003dcd8     init.obj
 0002:00001cf8       ??_7?$holder@H@any@boost@@6B@ 000000018003dcf8     init.obj
 0002:00001d10       ??_C@_0BA@JFNIOLAK@string?5too?5long@ 000000018003dd10     init.obj
 0002:00001d28       ??_7?$basic_unlockedbuf@V?$basic_stringbuf@DU?$char_traits@D@std@@V?$allocator@D@2@@std@@D@detail@boost@@6B@ 000000018003dd28     init.obj
 0002:00001da8       ??_7?$error_info_injector@Vinvalid_option_value@program_options@boost@@@exception_detail@boost@@6Binvalid_option_value@program_options@2@@ 000000018003dda8     init.obj
 0002:00001dd0       ??_7?$error_info_injector@Vinvalid_option_value@program_options@boost@@@exception_detail@boost@@6Bexception@2@@ 000000018003ddd0     init.obj
 0002:00001de0       ??_7?$clone_impl@U?$error_info_injector@Vinvalid_option_value@program_options@boost@@@exception_detail@boost@@@exception_detail@boost@@6Binvalid_option_value@program_options@2@@ 000000018003dde0     init.obj
 0002:00001e08       ??_7?$clone_impl@U?$error_info_injector@Vinvalid_option_value@program_options@boost@@@exception_detail@boost@@@exception_detail@boost@@6Bexception@2@@ 000000018003de08     init.obj
 0002:00001e18       ??_7?$clone_impl@U?$error_info_injector@Vinvalid_option_value@program_options@boost@@@exception_detail@boost@@@exception_detail@boost@@6B@ 000000018003de18     init.obj
 0002:00001e30       ??_8?$clone_impl@U?$error_info_injector@Vinvalid_option_value@program_options@boost@@@exception_detail@boost@@@exception_detail@boost@@7B@ 000000018003de30     init.obj
 0002:00001e40       ??_7?$error_info_injector@Vbad_lexical_cast@boost@@@exception_detail@boost@@6Bbad_lexical_cast@2@@ 000000018003de40     init.obj
 0002:00001e58       ??_7?$error_info_injector@Vbad_lexical_cast@boost@@@exception_detail@boost@@6Bexception@2@@ 000000018003de58     init.obj
 0002:00001e68       ??_7?$clone_impl@U?$error_info_injector@Vbad_lexical_cast@boost@@@exception_detail@boost@@@exception_detail@boost@@6Bbad_lexical_cast@2@@ 000000018003de68     init.obj
 0002:00001e80       ??_7?$clone_impl@U?$error_info_injector@Vbad_lexical_cast@boost@@@exception_detail@boost@@@exception_detail@boost@@6Bexception@2@@ 000000018003de80     init.obj
 0002:00001e90       ??_7?$clone_impl@U?$error_info_injector@Vbad_lexical_cast@boost@@@exception_detail@boost@@@exception_detail@boost@@6B@ 000000018003de90     init.obj
 0002:00001ea8       ??_8?$clone_impl@U?$error_info_injector@Vbad_lexical_cast@boost@@@exception_detail@boost@@@exception_detail@boost@@7B@ 000000018003dea8     init.obj
 0002:00001eb0       ??_C@_04GPHHEOMN@?$CF?4?$CKg@ 000000018003deb0     init.obj
 0002:00001ec0       ??_7?$error_info_injector@Vvalidation_error@program_options@boost@@@exception_detail@boost@@6Bvalidation_error@program_options@2@@ 000000018003dec0     init.obj
 0002:00001ee8       ??_7?$error_info_injector@Vvalidation_error@program_options@boost@@@exception_detail@boost@@6Bexception@2@@ 000000018003dee8     init.obj
 0002:00001ef8       ??_7?$clone_impl@U?$error_info_injector@Vvalidation_error@program_options@boost@@@exception_detail@boost@@@exception_detail@boost@@6Bvalidation_error@program_options@2@@ 000000018003def8     init.obj
 0002:00001f20       ??_7?$clone_impl@U?$error_info_injector@Vvalidation_error@program_options@boost@@@exception_detail@boost@@@exception_detail@boost@@6Bexception@2@@ 000000018003df20     init.obj
 0002:00001f30       ??_7?$clone_impl@U?$error_info_injector@Vvalidation_error@program_options@boost@@@exception_detail@boost@@@exception_detail@boost@@6B@ 000000018003df30     init.obj
 0002:00001f48       ??_8?$clone_impl@U?$error_info_injector@Vvalidation_error@program_options@boost@@@exception_detail@boost@@@exception_detail@boost@@7B@ 000000018003df48     init.obj
 0002:00001f50       ??_C@_08CGODDKPM@infinity@ 000000018003df50     init.obj
 0002:00001f5c       ??_C@_03LHCJEHON@nan@      000000018003df5c     init.obj
 0002:00001f60       ?stored_vtable@?1???$assign_to@U?$token_finderF@U?$is_any_ofF@D@detail@algorithm@boost@@@detail@algorithm@boost@@@?$function2@V?$iterator_range@PEBD@boost@@PEBDPEBD@boost@@AEAAXU?$token_finderF@U?$is_any_ofF@D@detail@algorithm@boost@@@detail@algorithm@2@@Z@4U?$basic_vtable2@V?$iterator_range@PEBD@boost@@PEBDPEBD@function@42@B 000000018003df60     init.obj
 0002:00001f70       ??_C@_08FJEPAENL@INFINITY@ 000000018003df70     init.obj
 0002:00001f7c       ??_C@_03LKNCIKJB@NAN@      000000018003df7c     init.obj
 0002:00001f88       ??_7?$basic_unlockedbuf@V?$basic_streambuf@DU?$char_traits@D@std@@@std@@D@detail@boost@@6B@ 000000018003df88     init.obj
 0002:00002000       __real@4038000000000000    000000018003e000     init.obj
 0002:00002010       __xmm@000000000000000f0000000000000000 000000018003e010     init.obj
 0002:00002020       ??_C@_04CEHODCKO@3iv2@     000000018003e020     MovieFFMpeg:MovieFFMpeg.obj
 0002:00002028       ??_C@_04MIJPMIHM@3ivd@     000000018003e028     MovieFFMpeg:MovieFFMpeg.obj
 0002:00002030       ??_C@_04BDIPLMHN@ap41@     000000018003e030     MovieFFMpeg:MovieFFMpeg.obj
 0002:00002038       ??_C@_04FPBHNLJE@avc1@     000000018003e038     MovieFFMpeg:MovieFFMpeg.obj
 0002:00002040       ??_C@_04IFGAHCLG@div1@     000000018003e040     MovieFFMpeg:MovieFFMpeg.obj
 0002:00002048       ??_C@_04KOENCBHF@div2@     000000018003e048     MovieFFMpeg:MovieFFMpeg.obj
 0002:00002050       ??_C@_04LHFGBADE@div3@     000000018003e050     MovieFFMpeg:MovieFFMpeg.obj
 0002:00002058       ??_C@_04PIBHIGPD@div4@     000000018003e058     MovieFFMpeg:MovieFFMpeg.obj
 0002:00002060       ??_C@_04OBAMLHLC@div5@     000000018003e060     MovieFFMpeg:MovieFFMpeg.obj
 0002:00002068       ??_C@_04MKCBOEHB@div6@     000000018003e068     MovieFFMpeg:MovieFFMpeg.obj
 0002:00002070       ??_C@_04KENLIGPK@divx@     000000018003e070     MovieFFMpeg:MovieFFMpeg.obj
 0002:00002078       ??_C@_05BCIEGGHE@dnxhd@    000000018003e078     MovieFFMpeg:MovieFFMpeg.obj
 0002:00002080       ??_C@_04GACEAJE@dx50@      000000018003e080     MovieFFMpeg:MovieFFMpeg.obj
 0002:00002088       ??_C@_04BODAPIFG@h263@     000000018003e088     MovieFFMpeg:MovieFFMpeg.obj
 0002:00002090       ??_C@_04FBHBGOJB@h264@     000000018003e090     MovieFFMpeg:MovieFFMpeg.obj
 0002:00002098       ??_C@_04CDFANBOG@i263@     000000018003e098     MovieFFMpeg:MovieFFMpeg.obj
 0002:000020a0       ??_C@_04DNLLOOF@iv31@      000000018003e0a0     MovieFFMpeg:MovieFFMpeg.obj
 0002:000020a8       ??_C@_04CIPGONCG@iv32@     000000018003e0a8     MovieFFMpeg:MovieFFMpeg.obj
 0002:000020b0       ??_C@_04JMPBFGJA@m4s2@     000000018003e0b0     MovieFFMpeg:MovieFFMpeg.obj
 0002:000020b8       ??_C@_04PNFCACLP@mp42@     000000018003e0b8     MovieFFMpeg:MovieFFMpeg.obj
 0002:000020c0       ??_C@_04OEEJDDPO@mp43@     000000018003e0c0     MovieFFMpeg:MovieFFMpeg.obj
 0002:000020c8       ??_C@_04BEDAHMPL@mp4s@     000000018003e0c8     MovieFFMpeg:MovieFFMpeg.obj
 0002:000020d0       ??_C@_04GJEHIILO@mp4v@     000000018003e0d0     MovieFFMpeg:MovieFFMpeg.obj
 0002:000020d8       ??_C@_05PJMPILHE@mpeg4@    000000018003e0d8     MovieFFMpeg:MovieFFMpeg.obj
 0002:000020e0       ??_C@_04LIIFMBJF@mpg1@     000000018003e0e0     MovieFFMpeg:MovieFFMpeg.obj
 0002:000020e8       ??_C@_04IKLDKDBH@mpg3@     000000018003e0e8     MovieFFMpeg:MovieFFMpeg.obj
 0002:000020f0       ??_C@_04MFPCDFNA@mpg4@     000000018003e0f0     MovieFFMpeg:MovieFFMpeg.obj
 0002:000020f8       ??_C@_04HDAPGF@pim1@       000000018003e0f8     MovieFFMpeg:MovieFFMpeg.obj
 0002:00002100       ??_C@_04JAAFOMF@s263@      000000018003e100     MovieFFMpeg:MovieFFMpeg.obj
 0002:00002108       ??_C@_04IGEAKLGF@u263@     000000018003e108     MovieFFMpeg:MovieFFMpeg.obj
 0002:00002110       ??_C@_03BMCDKNGI@vc1@      000000018003e110     MovieFFMpeg:MovieFFMpeg.obj
 0002:00002118       ??_C@_09NPJNKGOD@vc1_vdpau@ 000000018003e118     MovieFFMpeg:MovieFFMpeg.obj
 0002:00002128       ??_C@_08FCOOGHPP@vc1image@ 000000018003e128     MovieFFMpeg:MovieFFMpeg.obj
 0002:00002134       ??_C@_04JPEALGFE@viv1@     000000018003e134     MovieFFMpeg:MovieFFMpeg.obj
 0002:0000213c       ??_C@_04BPHEGKDB@wmv3@     000000018003e13c     MovieFFMpeg:MovieFFMpeg.obj
 0002:00002148       ??_C@_0L@PLLFECFF@wmv3_vdpau@ 000000018003e148     MovieFFMpeg:MovieFFMpeg.obj
 0002:00002158       ??_C@_09MOKJHHAM@wmv3image@ 000000018003e158     MovieFFMpeg:MovieFFMpeg.obj
 0002:00002164       ??_C@_04EIINDKEG@xith@     000000018003e164     MovieFFMpeg:MovieFFMpeg.obj
 0002:0000216c       ??_C@_04PILMACKA@xvid@     000000018003e16c     MovieFFMpeg:MovieFFMpeg.obj
 0002:00002178       ??_C@_07BAKAIONB@dvvideo@  000000018003e178     MovieFFMpeg:MovieFFMpeg.obj
 0002:00002180       ??_C@_07EOMHMDPE@libx264@  000000018003e180     MovieFFMpeg:MovieFFMpeg.obj
 0002:00002188       ??_C@_05CGEKHJAD@mjpeg@    000000018003e188     MovieFFMpeg:MovieFFMpeg.obj
 0002:00002190       ??_C@_09IGMPEKMM@pcm_s16be@ 000000018003e190     MovieFFMpeg:MovieFFMpeg.obj
 0002:000021a0       ??_C@_08KDEJKLJF@rawvideo@ 000000018003e1a0     MovieFFMpeg:MovieFFMpeg.obj
 0002:000021ac       ??_C@_05MCBBJIDG@album@    000000018003e1ac     MovieFFMpeg:MovieFFMpeg.obj
 0002:000021b8       ??_C@_0N@LPHACHF@album_artist@ 000000018003e1b8     MovieFFMpeg:MovieFFMpeg.obj
 0002:000021c8       ??_C@_06FOCAFPGH@artist@   000000018003e1c8     MovieFFMpeg:MovieFFMpeg.obj
 0002:000021d0       ??_C@_06LIPPPFCI@author@   000000018003e1d0     MovieFFMpeg:MovieFFMpeg.obj
 0002:000021d8       ??_C@_07GJGNEJFD@comment@  000000018003e1d8     MovieFFMpeg:MovieFFMpeg.obj
 0002:000021e0       ??_C@_08KFGNDJJC@composer@ 000000018003e1e0     MovieFFMpeg:MovieFFMpeg.obj
 0002:000021f0       ??_C@_09JHBDCMB@copyright@ 000000018003e1f0     MovieFFMpeg:MovieFFMpeg.obj
 0002:00002200       ??_C@_0M@PPJNHBMP@description@ 000000018003e200     MovieFFMpeg:MovieFFMpeg.obj
 0002:00002210       ??_C@_07KLAMFGHC@encoder@  000000018003e210     MovieFFMpeg:MovieFFMpeg.obj
 0002:00002218       ??_C@_0L@PLBNJIPI@episode_id@ 000000018003e218     MovieFFMpeg:MovieFFMpeg.obj
 0002:00002224       ??_C@_05JOBIDKGP@genre@    000000018003e224     MovieFFMpeg:MovieFFMpeg.obj
 0002:00002230       ??_C@_08DOJJHCKD@grouping@ 000000018003e230     MovieFFMpeg:MovieFFMpeg.obj
 0002:0000223c       ??_C@_06IJBHAOHD@lyrics@   000000018003e23c     MovieFFMpeg:MovieFFMpeg.obj
 0002:00002248       ??_C@_07OPEKGLFC@network@  000000018003e248     MovieFFMpeg:MovieFFMpeg.obj
 0002:00002250       ??_C@_06CEHMNFAL@rotate@   000000018003e250     MovieFFMpeg:MovieFFMpeg.obj
 0002:00002258       ??_C@_04FKMICODN@show@     000000018003e258     MovieFFMpeg:MovieFFMpeg.obj
 0002:00002260       ??_C@_08ICKACBOK@synopsis@ 000000018003e260     MovieFFMpeg:MovieFFMpeg.obj
 0002:0000226c       ??_C@_05PHLGJONK@title@    000000018003e26c     MovieFFMpeg:MovieFFMpeg.obj
 0002:00002274       ??_C@_05BCJOPFFH@track@    000000018003e274     MovieFFMpeg:MovieFFMpeg.obj
 0002:0000227c       ??_C@_04JFPLDHAO@year@     000000018003e27c     MovieFFMpeg:MovieFFMpeg.obj
 0002:00004330       ??_C@_02LMMGGCAJ@?3?5@     0000000180040330     MovieFFMpeg:MovieFFMpeg.obj
 0002:00004340       ??_7?$basic_ostringstream@DU?$char_traits@D@std@@V?$allocator@D@2@@std@@6B@ 0000000180040340     MovieFFMpeg:MovieFFMpeg.obj
 0002:00004348       ??_8?$basic_ostringstream@DU?$char_traits@D@std@@V?$allocator@D@2@@std@@7B@ 0000000180040348     MovieFFMpeg:MovieFFMpeg.obj
 0002:00004350       ??_C@_02KEGNLNML@?0?5@     0000000180040350     MovieFFMpeg:MovieFFMpeg.obj
 0002:00004360       ??_7FBAttribute@TwkFB@@6B@ 0000000180040360     MovieFFMpeg:MovieFFMpeg.obj
 0002:00004388       ??_C@_0BB@DANHPCL@PixelAspectRatio@ 0000000180040388     MovieFFMpeg:MovieFFMpeg.obj
 0002:000043a8       ??_7MovieFFMpegIO@TwkMovie@@6B@ 00000001800403a8     MovieFFMpeg:MovieFFMpeg.obj
 0002:000043e0       ??_7MovieFFMpegReader@TwkMovie@@6B@ 00000001800403e0     MovieFFMpeg:MovieFFMpeg.obj
 0002:000044b0       ??_7MovieFFMpegWriter@TwkMovie@@6B@ 00000001800404b0     MovieFFMpeg:MovieFFMpeg.obj
 0002:000044d8       ??_7system_error@system@boost@@6B@ 00000001800404d8     MovieFFMpeg:MovieFFMpeg.obj
 0002:000044f0       ??_7thread_exception@boost@@6B@ 00000001800404f0     MovieFFMpeg:MovieFFMpeg.obj
 0002:00004508       ??_7thread_resource_error@boost@@6B@ 0000000180040508     MovieFFMpeg:MovieFFMpeg.obj
 0002:00004518       ??_C@_0BN@BEPNICCK@boost?3?3thread_resource_error@ 0000000180040518     MovieFFMpeg:MovieFFMpeg.obj
 0002:00004538       ??_C@_0CO@HNGKCDGJ@ERROR?3?5Attempted?5to?5reuse?5reser@ 0000000180040538     MovieFFMpeg:MovieFFMpeg.obj
 0002:00004568       ??_C@_0DE@EJGDLECN@Encoder?5did?5not?5produce?5proper?5@ 0000000180040568     MovieFFMpeg:MovieFFMpeg.obj
 0002:000045a0       ??_C@_0DA@FGKMNPCO@No?5accelerated?5colorspace?5conve@ 00000001800405a0     MovieFFMpeg:MovieFFMpeg.obj
 0002:000045d0       ??_C@_0BN@EMGHPFLD@Increasing?5reorder?5buffer?5to@ 00000001800405d0     MovieFFMpeg:MovieFFMpeg.obj
 0002:000045f0       ??_C@_0CD@IGJBLBCD@sample?5aspect?5ratio?5already?5set@ 00000001800405f0     MovieFFMpeg:MovieFFMpeg.obj
 0002:00004620       ??_C@_0EE@NDIFKMKH@deprecated?5pixel?5format?5used?0?5m@ 0000000180040620     MovieFFMpeg:MovieFFMpeg.obj
 0002:00004668       ??_C@_0BF@LALOJGIK@overread?5end?5of?5atom@ 0000000180040668     MovieFFMpeg:MovieFFMpeg.obj
 0002:00004680       ??_C@_0BE@KENABMM@Timecode?5frame?5rate@ 0000000180040680     MovieFFMpeg:MovieFFMpeg.obj
 0002:00004698       ??_C@_0CB@MHCNGCOI@unsupported?5color_parameter_typ@ 0000000180040698     MovieFFMpeg:MovieFFMpeg.obj
 0002:000046bc       ??_C@_04BEADLPGM@INFO@     00000001800406bc     MovieFFMpeg:MovieFFMpeg.obj
 0002:000046c8       ??_C@_07KCOHIFOP@WARNING@  00000001800406c8     MovieFFMpeg:MovieFFMpeg.obj
 0002:000046d0       ??_C@_05MBDEGLCK@ERROR@    00000001800406d0     MovieFFMpeg:MovieFFMpeg.obj
 0002:000046d8       ??_C@_09PIEMHOIP@WARNING?3?5@ 00000001800406d8     MovieFFMpeg:MovieFFMpeg.obj
 0002:000046e4       ??_C@_06COOONKFB@INFO?3?5@ 00000001800406e4     MovieFFMpeg:MovieFFMpeg.obj
 0002:000046f0       ??_C@_0O@BHLJGJI@MovieFFMpeg?3?5@ 00000001800406f0     MovieFFMpeg:MovieFFMpeg.obj
 0002:00004700       ??_C@_0CE@KCEGDHFA@SGC_PREF_USE_NEW_VIDEO_DECODING@ 0000000180040700     MovieFFMpeg:MovieFFMpeg.obj
 0002:00004728       ??_C@_0L@MMMMGIBI@?8?5on?5disk?4@ 0000000180040728     MovieFFMpeg:MovieFFMpeg.obj
 0002:00004738       ??_C@_0BD@FGHPOMGM@Could?5not?5locate?5?8@ 0000000180040738     MovieFFMpeg:MovieFFMpeg.obj
 0002:0000474c       ??_C@_05BOPHDICO@file?3@   000000018004074c     MovieFFMpeg:MovieFFMpeg.obj
 0002:00004758       ??_C@_07KCCHNLGG@cookies@  0000000180040758     MovieFFMpeg:MovieFFMpeg.obj
 0002:00004760       ??_C@_08JPFEOKJG@seekable@ 0000000180040760     MovieFFMpeg:MovieFFMpeg.obj
 0002:00004770       ??_C@_09MCGBPECP@reconnect@ 0000000180040770     MovieFFMpeg:MovieFFMpeg.obj
 0002:00004780       ??_C@_0BC@PKHKCBDK@multiple_requests@ 0000000180040780     MovieFFMpeg:MovieFFMpeg.obj
 0002:00004798       ??_C@_0BN@NLKEKPMA@Failed?5to?5open?5for?5reading?3?5@ 0000000180040798     MovieFFMpeg:MovieFFMpeg.obj
 0002:000047b8       ??_C@_05ELGDONH@?8?5in?5@  00000001800407b8     MovieFFMpeg:MovieFFMpeg.obj
 0002:000047c0       ??_C@_0CL@GDJIPBEI@ERROR?3?5MovieFFMpeg?3?5Unsupported@ 00000001800407c0     MovieFFMpeg:MovieFFMpeg.obj
 0002:000047ec       ??_C@_06NIODNPIB@?8?5for?5@ 00000001800407ec     MovieFFMpeg:MovieFFMpeg.obj
 0002:000047f8       ??_C@_0CL@KNMJPPPF@ERROR?3?5MovieFFMpeg?3?5Failed?5to?5o@ 00000001800407f8     MovieFFMpeg:MovieFFMpeg.obj
 0002:00004828       ??_C@_0CL@FNCFKCDF@ERROR?3?5MovieFFMpeg?3?5Invalid?5pix@ 0000000180040828     MovieFFMpeg:MovieFFMpeg.obj
 0002:00004858       ??_C@_0CG@LCAMAOLI@ERROR?3?5MovieFFMpeg?3?5Unallowed?5c@ 0000000180040858     MovieFFMpeg:MovieFFMpeg.obj
 0002:00004880       ??_C@_09CMOFKKHA@reel_name@ 0000000180040880     MovieFFMpeg:MovieFFMpeg.obj
 0002:00004890       ??_C@_0BC@GHPGGGPD@Timecode?1ReelName@ 0000000180040890     MovieFFMpeg:MovieFFMpeg.obj
 0002:000048a8       ??_C@_08CDMGGHAC@timecode@ 00000001800408a8     MovieFFMpeg:MovieFFMpeg.obj
 0002:000048b4       ??_C@_02GFKOMOKH@?5?$CI@   00000001800408b4     MovieFFMpeg:MovieFFMpeg.obj
 0002:000048b8       ??_C@_0P@KHDDJICC@Timecode?1Start@ 00000001800408b8     MovieFFMpeg:MovieFFMpeg.obj
 0002:000048c8       ??_C@_0BD@CEFIIABK@Timecode?1FrameRate@ 00000001800408c8     MovieFFMpeg:MovieFFMpeg.obj
 0002:000048dc       ??_C@_05PLNGAOCO@Drop?5@   00000001800408dc     MovieFFMpeg:MovieFFMpeg.obj
 0002:000048e8       ??_C@_0BF@BPJKJJDJ@24?9Hour?5Max?5Counter?5@ 00000001800408e8     MovieFFMpeg:MovieFFMpeg.obj
 0002:00004900       ??_C@_0P@KKKHDLKN@Allow?5Negative@ 0000000180040900     MovieFFMpeg:MovieFFMpeg.obj
 0002:00004910       ??_C@_0P@PBBECABF@Timecode?1Flags@ 0000000180040910     MovieFFMpeg:MovieFFMpeg.obj
 0002:00004920       ??_C@_01KMDKNFGN@?1@       0000000180040920     MovieFFMpeg:MovieFFMpeg.obj
 0002:00004924       ??_C@_04DJFBJDAD@nclc@     0000000180040924     MovieFFMpeg:MovieFFMpeg.obj
 0002:0000492c       ??_C@_04JAGHFIJJ@nclx@     000000018004092c     MovieFFMpeg:MovieFFMpeg.obj
 0002:00004934       ??_C@_04HBBFMAAG@prof@     0000000180040934     MovieFFMpeg:MovieFFMpeg.obj
 0002:00004940       ??_C@_0CB@OIHKPHHP@TWK_MIOFFMPEG_IGNORE_ICC_PROFIL@ 0000000180040940     MovieFFMpeg:MovieFFMpeg.obj
 0002:00004968       ??_C@_0DE@HBNAGOAC@Rotation?5only?5supported?5in?5YUV?5@ 0000000180040968     MovieFFMpeg:MovieFFMpeg.obj
 0002:000049a0       ??_C@_0BA@JBMFNOMN@ITU?9R?5BT709?5?$CI1?$CJ@ 00000001800409a0     MovieFFMpeg:MovieFFMpeg.obj
 0002:000049b0       ??_C@_0BA@IPKHDPKM@UNSPECIFIED?5?$CI2?$CJ@ 00000001800409b0     MovieFFMpeg:MovieFFMpeg.obj
 0002:000049c0       ??_C@_0BC@LMNJIKN@ITU?9R?5BTM470M?5?$CI4?$CJ@ 00000001800409c0     MovieFFMpeg:MovieFFMpeg.obj
 0002:000049d8       ??_C@_0BD@DABADLNP@ITU?9R?5BTM470BG?5?$CI5?$CJ@ 00000001800409d8     MovieFFMpeg:MovieFFMpeg.obj
 0002:000049f0       ??_C@_0P@HMAACDP@SMPTE?9170M?5?$CI6?$CJ@ 00000001800409f0     MovieFFMpeg:MovieFFMpeg.obj
 0002:00004a00       ??_C@_0P@LBAAFDCO@SMPTE?9240M?5?$CI7?$CJ@ 0000000180040a00     MovieFFMpeg:MovieFFMpeg.obj
 0002:00004a10       ??_C@_08HILIMNLD@FILM?5?$CI8?$CJ@ 0000000180040a10     MovieFFMpeg:MovieFFMpeg.obj
 0002:00004a20       ??_C@_09FPDNLOKJ@UNKNOWN?5?$CI@ 0000000180040a20     MovieFFMpeg:MovieFFMpeg.obj
 0002:00004a30       ??_C@_0O@PIAJFFPJ@GAMMA?52?42?5?$CI4?$CJ@ 0000000180040a30     MovieFFMpeg:MovieFFMpeg.obj
 0002:00004a40       ??_C@_09NGMHKLC@Gamma?52?42@ 0000000180040a40     MovieFFMpeg:MovieFFMpeg.obj
 0002:00004a50       ??_C@_0O@FIFABMKI@GAMMA?52?48?5?$CI5?$CJ@ 0000000180040a50     MovieFFMpeg:MovieFFMpeg.obj
 0002:00004a60       ??_C@_09PHIDJCDI@Gamma?52?48@ 0000000180040a60     MovieFFMpeg:MovieFFMpeg.obj
 0002:00004a70       ??_C@_07IKIIOGBD@RGB?5?$CI0?$CJ@ 0000000180040a70     MovieFFMpeg:MovieFFMpeg.obj
 0002:00004a78       ??_C@_07EKGDIGKI@FCC?5?$CI4?$CJ@ 0000000180040a78     MovieFFMpeg:MovieFFMpeg.obj
 0002:00004a80       ??_C@_0BC@OJHHILHA@ITU?9R?5BT470BG?5?$CI5?$CJ@ 0000000180040a80     MovieFFMpeg:MovieFFMpeg.obj
 0002:00004a98       ??_C@_09BNMLGEMO@YCoCg?5?$CI8?$CJ@ 0000000180040a98     MovieFFMpeg:MovieFFMpeg.obj
 0002:00004aa4       ??_C@_06NGBFGJEC@Codec?1@  0000000180040aa4     MovieFFMpeg:MovieFFMpeg.obj
 0002:00004aac       ??_C@_05LBLEMMDA@COLR?1@   0000000180040aac     MovieFFMpeg:MovieFFMpeg.obj
 0002:00004ab4       ??_C@_06OJGDMFIO@Matrix@   0000000180040ab4     MovieFFMpeg:MovieFFMpeg.obj
 0002:00004ac0       ??_C@_08DECIGEMC@Transfer@ 0000000180040ac0     MovieFFMpeg:MovieFFMpeg.obj
 0002:00004ad0       ??_C@_09BCGLJIAA@Primaries@ 0000000180040ad0     MovieFFMpeg:MovieFFMpeg.obj
 0002:00004ae0       ??_C@_0BA@KHHHPIGI@ColorSpace?1Note@ 0000000180040ae0     MovieFFMpeg:MovieFFMpeg.obj
 0002:00004af0       ??_C@_0CI@HAMILOHL@FFMPEG?5provides?5Rec601?0?5expecte@ 0000000180040af0     MovieFFMpeg:MovieFFMpeg.obj
 0002:00004b18       ??_C@_06PEILBBBN@jpegls@   0000000180040b18     MovieFFMpeg:MovieFFMpeg.obj
 0002:00004b20       ??_C@_05ONBGKKKG@ljpeg@    0000000180040b20     MovieFFMpeg:MovieFFMpeg.obj
 0002:00004b28       ??_C@_06MOOEBCOG@mjpegb@   0000000180040b28     MovieFFMpeg:MovieFFMpeg.obj
 0002:00004b30       ??_C@_0BL@JOHGAFEO@RV_DEFAULT_QTCOLR_TRANSFER@ 0000000180040b30     MovieFFMpeg:MovieFFMpeg.obj
 0002:00004b50       ??_C@_0BD@GDLIGBAL@COLR?1ParameterType@ 0000000180040b50     MovieFFMpeg:MovieFFMpeg.obj
 0002:00004b64       ??_C@_04OHJIHAFH@None@     0000000180040b64     MovieFFMpeg:MovieFFMpeg.obj
 0002:00004b70       ??_C@_07OCLOMNOF@I?5Frame@ 0000000180040b70     MovieFFMpeg:MovieFFMpeg.obj
 0002:00004b78       ??_C@_07IBEKOHOF@P?5Frame@ 0000000180040b78     MovieFFMpeg:MovieFFMpeg.obj
 0002:00004b80       ??_C@_07LPNENBLD@B?5Frame@ 0000000180040b80     MovieFFMpeg:MovieFFMpeg.obj
 0002:00004b88       ??_C@_07PMFOAAG@S?5Frame@  0000000180040b88     MovieFFMpeg:MovieFFMpeg.obj
 0002:00004b90       ??_C@_08CKEKHLJB@SI?5Frame@ 0000000180040b90     MovieFFMpeg:MovieFFMpeg.obj
 0002:00004ba0       ??_C@_08EJLOFBJB@SP?5Frame@ 0000000180040ba0     MovieFFMpeg:MovieFFMpeg.obj
 0002:00004bb0       ??_C@_08JBPBCNKD@BI?5Frame@ 0000000180040bb0     MovieFFMpeg:MovieFFMpeg.obj
 0002:00004bc0       ??_C@_07NBCGADJA@Unknown@  0000000180040bc0     MovieFFMpeg:MovieFFMpeg.obj
 0002:00004bc8       ??_C@_09GIECGJHL@FrameType@ 0000000180040bc8     MovieFFMpeg:MovieFFMpeg.obj
 0002:00004bd4       ??_C@_03MBICDIME@und@      0000000180040bd4     MovieFFMpeg:MovieFFMpeg.obj
 0002:00004bd8       ??_C@_0CE@IADDBAAA@Failed?5to?5open?5stream?5for?5readi@ 0000000180040bd8     MovieFFMpeg:MovieFFMpeg.obj
 0002:00004bfc       ??_C@_06GAJJHOAA@track?5@  0000000180040bfc     MovieFFMpeg:MovieFFMpeg.obj
 0002:00004c04       ??_C@_05BFDCPAGB@Track@    0000000180040c04     MovieFFMpeg:MovieFFMpeg.obj
 0002:00004c10       ??_C@_0BO@BHGGBAOG@Unable?5to?5find?5a?5media?5track?4@ 0000000180040c10     MovieFFMpeg:MovieFFMpeg.obj
 0002:00004c30       ??_C@_05PHEBDHHP@Movie@    0000000180040c30     MovieFFMpeg:MovieFFMpeg.obj
 0002:00004c38       ??_C@_07IKEPOFO@Chapter@   0000000180040c38     MovieFFMpeg:MovieFFMpeg.obj
 0002:00004c40       ??_C@_03CCLAEDDF@Yes@      0000000180040c40     MovieFFMpeg:MovieFFMpeg.obj
 0002:00004c44       ??_C@_02JINPPBEP@No@       0000000180040c44     MovieFFMpeg:MovieFFMpeg.obj
 0002:00004c48       ??_C@_05KKCMAPLJ@Audio@    0000000180040c48     MovieFFMpeg:MovieFFMpeg.obj
 0002:00004c50       ??_C@_0DE@LADMNJJI@Streams?1Tracks?5with?5mixed?5rotat@ 0000000180040c50     MovieFFMpeg:MovieFFMpeg.obj
 0002:00004c84       ??_C@_04PGCJFGPB@Note@     0000000180040c84     MovieFFMpeg:MovieFFMpeg.obj
 0002:00004c90       ??_C@_0BN@EIMLANIN@Movie?5Has?5Slow?5Random?5Access@ 0000000180040c90     MovieFFMpeg:MovieFFMpeg.obj
 0002:00004cb0       ??_C@_0BO@COENBLKO@?4?5Updating?5to?5new?5dimensions?4@ 0000000180040cb0     MovieFFMpeg:MovieFFMpeg.obj
 0002:00004cd0       ??_C@_01FJMABOPO@x@        0000000180040cd0     MovieFFMpeg:MovieFFMpeg.obj
 0002:00004cd8       ??_C@_0M@PBKPBPED@?5but?5found?5@ 0000000180040cd8     MovieFFMpeg:MovieFFMpeg.obj
 0002:00004ce8       ??_C@_0BF@GMBKFGKB@Expected?5resolution?5@ 0000000180040ce8     MovieFFMpeg:MovieFFMpeg.obj
 0002:00004d00       ??_C@_0CN@CGCOIKPI@Audio?5sample?5rate?5must?5match?5fo@ 0000000180040d00     MovieFFMpeg:MovieFFMpeg.obj
 0002:00004d30       ??_C@_0CP@LMMFHNEP@Audio?5channel?5count?5must?5match?5@ 0000000180040d30     MovieFFMpeg:MovieFFMpeg.obj
 0002:00004d60       ??_C@_06GMFIBLFK@?$CFg?5kHz@ 0000000180040d60     MovieFFMpeg:MovieFFMpeg.obj
 0002:00004d68       ??_C@_0BC@FFKMLDJ@AudioSamplingRate@ 0000000180040d68     MovieFFMpeg:MovieFFMpeg.obj
 0002:00004d7c       ??_C@_04BFAHMMK@?$CFlld@   0000000180040d7c     MovieFFMpeg:MovieFFMpeg.obj
 0002:00004d88       ??_C@_0N@OCHCKHLI@AudioSamples@ 0000000180040d88     MovieFFMpeg:MovieFFMpeg.obj
 0002:00004d98       ??_C@_02DPKJAMEF@?$CFd@    0000000180040d98     MovieFFMpeg:MovieFFMpeg.obj
 0002:00004da0       ??_C@_0BD@MKAJPCGH@AudioBitsPerSample@ 0000000180040da0     MovieFFMpeg:MovieFFMpeg.obj
 0002:00004db8       ??_C@_0BC@IANHPJNH@AudioSampleFormat@ 0000000180040db8     MovieFFMpeg:MovieFFMpeg.obj
 0002:00004dd0       ??_C@_0L@GCNFIHB@AudioCodec@ 0000000180040dd0     MovieFFMpeg:MovieFFMpeg.obj
 0002:00004de0       ??_C@_0O@HICNBKON@AudioLanguage@ 0000000180040de0     MovieFFMpeg:MovieFFMpeg.obj
 0002:00004df0       ??_C@_08CLAGNPBI@?5tracks?$CJ@ 0000000180040df0     MovieFFMpeg:MovieFFMpeg.obj
 0002:00004e00       ??_C@_08OOOCHLEP@?5total?5?$CI@ 0000000180040e00     MovieFFMpeg:MovieFFMpeg.obj
 0002:00004e0c       ??_C@_01EEMJAFIK@?6@       0000000180040e0c     MovieFFMpeg:MovieFFMpeg.obj
 0002:00004e10       ??_C@_0O@OBADIEME@AudioChannels@ 0000000180040e10     MovieFFMpeg:MovieFFMpeg.obj
 0002:00004e20       ??_C@_0BB@CDBLDCKP@VideoPixelFormat@ 0000000180040e20     MovieFFMpeg:MovieFFMpeg.obj
 0002:00004e38       ??_C@_0L@OLNNPNBA@VideoCodec@ 0000000180040e38     MovieFFMpeg:MovieFFMpeg.obj
 0002:00004e48       ??_C@_0M@OHOHNFLN@VideoTracks@ 0000000180040e48     MovieFFMpeg:MovieFFMpeg.obj
 0002:00004e54       ??_C@_03JNOOAHCF@FPS@      0000000180040e54     MovieFFMpeg:MovieFFMpeg.obj
 0002:00004e58       ??_C@_04IBFKBJDL@?5sec@    0000000180040e58     MovieFFMpeg:MovieFFMpeg.obj
 0002:00004e60       ??_C@_09IHAEMNCG@?5frames?0?5@ 0000000180040e60     MovieFFMpeg:MovieFFMpeg.obj
 0002:00004e70       ??_C@_08DEOOAPOB@Duration@ 0000000180040e70     MovieFFMpeg:MovieFFMpeg.obj
 0002:00004e7c       ??_C@_04OGMCGMPK@View@     0000000180040e7c     MovieFFMpeg:MovieFFMpeg.obj
 0002:00004e84       ??_C@_04PBAHLACE@File@     0000000180040e84     MovieFFMpeg:MovieFFMpeg.obj
 0002:00004e90       ??_C@_08DOCONEG@Sequence@  0000000180040e90     MovieFFMpeg:MovieFFMpeg.obj
 0002:00004ea0       ??_C@_0CG@EKEDIENI@Could?5not?5determine?5playback?5ti@ 0000000180040ea0     MovieFFMpeg:MovieFFMpeg.obj
 0002:00004ec8       ??_C@_0BK@NPDKPNND@Unable?5to?5locate?5frames?3?5@ 0000000180040ec8     MovieFFMpeg:MovieFFMpeg.obj
 0002:00004ee8       ??_C@_0CK@KDAHEHFD@ERROR?3?5Unable?5to?5read?5from?5audi@ 0000000180040ee8     MovieFFMpeg:MovieFFMpeg.obj
 0002:00004f18       ??_C@_0CG@MPDPICME@av_seek_frame?5failed?5in?5audio?5s@ 0000000180040f18     MovieFFMpeg:MovieFFMpeg.obj
 0002:00004f40       ??_C@_04IAFLKNP@http@      0000000180040f40     MovieFFMpeg:MovieFFMpeg.obj
 0002:00004f48       ??_C@_0BM@EOOPCFHC@attempting?5restart?5in?5audio@ 0000000180040f48     MovieFFMpeg:MovieFFMpeg.obj
 0002:00004f68       ??_C@_0BI@BBNNFDIJ@Could?5not?5decode?5audio?4@ 0000000180040f68     MovieFFMpeg:MovieFFMpeg.obj
 0002:00004f80       ??_C@_0BK@OCHGJMCH@Unsupported?5audio?5format?4@ 0000000180040f80     MovieFFMpeg:MovieFFMpeg.obj
 0002:00004f9c       ??_C@_01NFFPALBN@Y@        0000000180040f9c     MovieFFMpeg:MovieFFMpeg.obj
 0002:00004fa0       ??_C@_01HJOKEEBB@U@        0000000180040fa0     MovieFFMpeg:MovieFFMpeg.obj
 0002:00004fa4       ??_C@_01FCMHBHNC@V@        0000000180040fa4     MovieFFMpeg:MovieFFMpeg.obj
 0002:00004fa8       ??_C@_01FHEEJDEE@A@        0000000180040fa8     MovieFFMpeg:MovieFFMpeg.obj
 0002:00004fb0       ??_C@_0CG@OIOHJJIO@av_seek_frame?5failed?5in?5video?5s@ 0000000180040fb0     MovieFFMpeg:MovieFFMpeg.obj
 0002:00004fd8       ??_C@_0CG@KHDCOLEL@av_read_frame?5failed?5in?5video?5s@ 0000000180040fd8     MovieFFMpeg:MovieFFMpeg.obj
 0002:00005000       ??_C@_0DM@HCIOKEB@avcodec_send_packet?5failed?5in?5v@ 0000000180041000     MovieFFMpeg:MovieFFMpeg.obj
 0002:00005040       ??_C@_0CL@NNNOKLCF@avcodec_send_packet?5failed?5in?5v@ 0000000180041040     MovieFFMpeg:MovieFFMpeg.obj
 0002:00005070       ??_C@_0CC@KOIAPAKB@Could?5not?5decode?5video?3?5rcv?5err@ 0000000180041070     MovieFFMpeg:MovieFFMpeg.obj
 0002:00005098       ??_C@_0BM@PMDGJELG@attempting?5restart?5in?5video@ 0000000180041098     MovieFFMpeg:MovieFFMpeg.obj
 0002:000050b8       ??_C@_0BI@INGGIMJB@Could?5not?5decode?5video?4@ 00000001800410b8     MovieFFMpeg:MovieFFMpeg.obj
 0002:000050d0       ??_C@_01DGKLNCNG@R@        00000001800410d0     MovieFFMpeg:MovieFFMpeg.obj
 0002:000050d4       ??_C@_01BBODEMC@G@         00000001800410d4     MovieFFMpeg:MovieFFMpeg.obj
 0002:000050d8       ??_C@_01HMGJMAIH@B@        00000001800410d8     MovieFFMpeg:MovieFFMpeg.obj
 0002:000050e0       ??_C@_0BJ@CMCIBBHD@Unable?5to?5get?5frame?5at?3?5@ 00000001800410e0     MovieFFMpeg:MovieFFMpeg.obj
 0002:00005100       ??_C@_0CF@HMMGCJFH@Can?8t?5initialize?5conversion?5con@ 0000000180041100     MovieFFMpeg:MovieFFMpeg.obj
 0002:00005128       ??_C@_08KBDHOFKB@Timecode@ 0000000180041128     MovieFFMpeg:MovieFFMpeg.obj
 0002:00005134       ??_C@_01JLIPDDHJ@?3@       0000000180041134     MovieFFMpeg:MovieFFMpeg.obj
 0002:00005138       ??_C@_01GEODFPGF@?8@       0000000180041138     MovieFFMpeg:MovieFFMpeg.obj
 0002:00005140       ??_C@_0CN@OFPEEGIN@Unsupported?5or?5unable?5to?5find?5c@ 0000000180041140     MovieFFMpeg:MovieFFMpeg.obj
 0002:00005170       ??_C@_0CA@DHNOHJGJ@Could?5not?5allocate?5video?5stream@ 0000000180041170     MovieFFMpeg:MovieFFMpeg.obj
 0002:00005190       ??_C@_07GAIACDNI@pix_fmt@  0000000180041190     MovieFFMpeg:MovieFFMpeg.obj
 0002:00005198       ??_C@_0BO@IGHMPBIP@No?5pix_fmt?5specified?4?5Using?3?5@ 0000000180041198     MovieFFMpeg:MovieFFMpeg.obj
 0002:000051b8       ??_C@_04OPICJEPD@v210@     00000001800411b8     MovieFFMpeg:MovieFFMpeg.obj
 0002:000051c0       ??_C@_0L@HHJMEOPA@sample_fmt@ 00000001800411c0     MovieFFMpeg:MovieFFMpeg.obj
 0002:000051cc       ??_C@_03FKOECJPG@aac@      00000001800411cc     MovieFFMpeg:MovieFFMpeg.obj
 0002:000051d0       ??_C@_0BH@DHDIPPJB@Could?5not?5open?5codec?3?5@ 00000001800411d0     MovieFFMpeg:MovieFFMpeg.obj
 0002:000051e8       ??_C@_03JIBANDAO@cc?3@     00000001800411e8     MovieFFMpeg:MovieFFMpeg.obj
 0002:000051ec       ??_C@_02GPIGINON@c?3@      00000001800411ec     MovieFFMpeg:MovieFFMpeg.obj
 0002:000051f0       ??_C@_07FJCCGKFK@output?1@ 00000001800411f0     MovieFFMpeg:MovieFFMpeg.obj
 0002:000051f8       ??_C@_08LGBPINEC@duration@ 00000001800411f8     MovieFFMpeg:MovieFFMpeg.obj
 0002:00005208       ??_C@_09IIOBMIO@timescale@ 0000000180041208     MovieFFMpeg:MovieFFMpeg.obj
 0002:00005218       ??_C@_0BC@EDHKHLJH@libx264autoresize@ 0000000180041218     MovieFFMpeg:MovieFFMpeg.obj
 0002:00005230       ??_C@_0BP@MHBLNFGI@Unable?5to?5set?5timecode?5from?3?5?8@ 0000000180041230     MovieFFMpeg:MovieFFMpeg.obj
 0002:00005250       ??_C@_08EANJMGF@reelname@  0000000180041250     MovieFFMpeg:MovieFFMpeg.obj
 0002:00005260       ??_C@_08BDGKODPP@?5from?3?5?8@ 0000000180041260     MovieFFMpeg:MovieFFMpeg.obj
 0002:00005270       ??_C@_0P@MDHBLHM@Unable?5to?5set?5@ 0000000180041270     MovieFFMpeg:MovieFFMpeg.obj
 0002:00005280       ??_C@_02GJENEPAG@f?3@      0000000180041280     MovieFFMpeg:MovieFFMpeg.obj
 0002:00005284       ??_C@_03NEANKOFN@of?3@     0000000180041284     MovieFFMpeg:MovieFFMpeg.obj
 0002:00005288       ??_C@_0BO@CGIJKDAM@Unable?5to?5set?5comment?5from?3?5?8@ 0000000180041288     MovieFFMpeg:MovieFFMpeg.obj
 0002:000052a8       ??_C@_0CA@OGOFPLDM@Unable?5to?5set?5copyright?5from?3?5?8@ 00000001800412a8     MovieFFMpeg:MovieFFMpeg.obj
 0002:000052c8       ??_C@_0CM@HDDJIPDL@Ignoring?5frames?5that?5are?5out?5of@ 00000001800412c8     MovieFFMpeg:MovieFFMpeg.obj
 0002:000052f8       ??_C@_0M@HKHMKEGL@of?3movflags@ 00000001800412f8     MovieFFMpeg:MovieFFMpeg.obj
 0002:00005308       ??_C@_0L@KMECOOML@write_colr@ 0000000180041308     MovieFFMpeg:MovieFFMpeg.obj
 0002:00005318       ??_C@_0M@JNFAFFDN@?$HMwrite_colr@ 0000000180041318     MovieFFMpeg:MovieFFMpeg.obj
 0002:00005328       ??_C@_0P@MNGIAHPG@?5audio?5samples@ 0000000180041328     MovieFFMpeg:MovieFFMpeg.obj
 0002:00005338       ??_C@_08PIOKHLOJ@Writing?5@ 0000000180041338     MovieFFMpeg:MovieFFMpeg.obj
 0002:00005348       ??_C@_0BN@EFJPCGED@Error?5encoding?5audio?5frame?3?5@ 0000000180041348     MovieFFMpeg:MovieFFMpeg.obj
 0002:00005368       ??_C@_0CC@IPJOGNK@Error?5while?5writing?5audio?5frame@ 0000000180041368     MovieFFMpeg:MovieFFMpeg.obj
 0002:00005390       ??_C@_0BN@GCEHDNAJ@Error?5encoding?5video?5frame?3?5@ 0000000180041390     MovieFFMpeg:MovieFFMpeg.obj
 0002:000053b0       ??_C@_0CC@CPCBPNJA@Error?5while?5writing?5video?5frame@ 00000001800413b0     MovieFFMpeg:MovieFFMpeg.obj
 0002:000053d8       ??_C@_0CK@KKJPALAH@Cannot?5initialize?5the?5conversio@ 00000001800413d8     MovieFFMpeg:MovieFFMpeg.obj
 0002:00005408       ??_C@_0BN@GEIOCIIN@Could?5not?5allocate?5picture?3?5@ 0000000180041408     MovieFFMpeg:MovieFFMpeg.obj
 0002:00005428       ??_C@_0CH@DENELIEG@Could?5not?5allocate?5temporary?5pi@ 0000000180041428     MovieFFMpeg:MovieFFMpeg.obj
 0002:00005458       ??_7?$basic_istringstream@DU?$char_traits@D@std@@V?$allocator@D@2@@std@@6B@ 0000000180041458     MovieFFMpeg:MovieFFMpeg.obj
 0002:00005460       ??_8?$basic_istringstream@DU?$char_traits@D@std@@V?$allocator@D@2@@std@@7B@ 0000000180041460     MovieFFMpeg:MovieFFMpeg.obj
 0002:00005468       ??_C@_02MDDDDAID@0x@       0000000180041468     MovieFFMpeg:MovieFFMpeg.obj
 0002:0000546c       ??_C@_06PDHLCDAK@0x?$CFllx@ 000000018004146c     MovieFFMpeg:MovieFFMpeg.obj
 0002:00005474       ??_C@_01DNKMNLPK@?$HM@     0000000180041474     MovieFFMpeg:MovieFFMpeg.obj
 0002:00005478       ??_C@_02DGLLHPKE@?8?4@     0000000180041478     MovieFFMpeg:MovieFFMpeg.obj
 0002:0000547c       ??_C@_06OCLKHHHK@?8?5to?5?8@ 000000018004147c     MovieFFMpeg:MovieFFMpeg.obj
 0002:00005488       ??_C@_0BA@IDHKLIGJ@Unable?5to?5set?5?8@ 0000000180041488     MovieFFMpeg:MovieFFMpeg.obj
 0002:00005498       ??_C@_05BPFJLLEL@video@    0000000180041498     MovieFFMpeg:MovieFFMpeg.obj
 0002:000054a0       ??_C@_05KNIAAKIP@audio@    00000001800414a0     MovieFFMpeg:MovieFFMpeg.obj
 0002:000054a8       ??_C@_0BE@LDLEFHPA@Unsupported?5codec?3?5@ 00000001800414a8     MovieFFMpeg:MovieFFMpeg.obj
 0002:000054c0       ??_C@_08OPMBFLNO@?5codec?3?5@ 00000001800414c0     MovieFFMpeg:MovieFFMpeg.obj
 0002:000054d0       ??_C@_08CCAALAPB@Invalid?5@ 00000001800414d0     MovieFFMpeg:MovieFFMpeg.obj
 0002:000054e0       ??_C@_0CA@DEIEBIFP@Format?5does?5not?5support?5codec?3?5@ 00000001800414e0     MovieFFMpeg:MovieFFMpeg.obj
 0002:00005500       ??_C@_0BP@NFNHBEPN@Failed?5to?5determine?5codec?5for?5@ 0000000180041500     MovieFFMpeg:MovieFFMpeg.obj
 0002:00005520       ??_C@_0BK@MBCCACHC@Unable?5to?5create?5chapter?4@ 0000000180041520     MovieFFMpeg:MovieFFMpeg.obj
 0002:00005540       ??_C@_0DN@KMKCIKFE@Could?5not?5deduce?5output?5format?5@ 0000000180041540     MovieFFMpeg:MovieFFMpeg.obj
 0002:00005580       ??_C@_03CNBJFNFA@mov@      0000000180041580     MovieFFMpeg:MovieFFMpeg.obj
 0002:00005588       ??_C@_0BP@IHCAMHC@Unable?5to?5create?5output?5format@ 0000000180041588     MovieFFMpeg:MovieFFMpeg.obj
 0002:000055a8       ??_C@_0BF@JKPKFGPH@Unsupported?5format?3?5@ 00000001800415a8     MovieFFMpeg:MovieFFMpeg.obj
 0002:000055c0       ??_C@_0BH@LAGPJGAA@Unable?5to?5add?5chapters@ 00000001800415c0     MovieFFMpeg:MovieFFMpeg.obj
 0002:000055d8       ??_C@_0BK@NLEJBLPG@Could?5not?5match?5option?3?5?8@ 00000001800415d8     MovieFFMpeg:MovieFFMpeg.obj
 0002:000055f4       ??_C@_03EEAJPICM@?8?4?5@   00000001800415f4     MovieFFMpeg:MovieFFMpeg.obj
 0002:000055f8       ??_C@_0BB@KCOHGEJF@Could?5not?5open?5?8@ 00000001800415f8     MovieFFMpeg:MovieFFMpeg.obj
 0002:00005610       ??_C@_0CK@HMPALOHJ@Error?5occurred?5when?5opening?5out@ 0000000180041610     MovieFFMpeg:MovieFFMpeg.obj
 0002:00005640       ??_C@_07LNFCMOPI@?$CF?5done?$CJ@ 0000000180041640     MovieFFMpeg:MovieFFMpeg.obj
 0002:00005648       ??_C@_0P@KFFGJBPP@Writing?5frame?5@ 0000000180041648     MovieFFMpeg:MovieFFMpeg.obj
 0002:00005658       ??_C@_02LNLCGGHO@v2@       0000000180041658     MovieFFMpeg:MovieFFMpeg.obj
 0002:00005660       ??_C@_0M@CLHAOAHC@MovieFFMpeg@ 0000000180041660     MovieFFMpeg:MovieFFMpeg.obj
 0002:00005670       ??_C@_0DB@JLIKNFCP@ERROR?3?5Could?5not?5register?5Apple@ 0000000180041670     MovieFFMpeg:MovieFFMpeg.obj
 0002:000056a8       ??_C@_0CJ@OKHANPHE@Could?5not?5register?5Apple?5ProRes@ 00000001800416a8     MovieFFMpeg:MovieFFMpeg.obj
 0002:000056d8       ??_C@_0BG@OEFAPLKJ@string?5Metadata?5field@ 00000001800416d8     MovieFFMpeg:MovieFFMpeg.obj
 0002:000056f0       ??_C@_0EC@BOHEOBMJ@string?5?8hh?3mm?3ss?3ff?8?5non?9drop?5a@ 00000001800416f0     MovieFFMpeg:MovieFFMpeg.obj
 0002:00005738       ??_C@_0DK@GKFFEJNG@string?5tape?1reel?5name?5of?5the?5ti@ 0000000180041738     MovieFFMpeg:MovieFFMpeg.obj
 0002:00005778       ??_C@_0CA@NCBLKPGD@integer?5literal?5timescale?5value@ 0000000180041778     MovieFFMpeg:MovieFFMpeg.obj
 0002:00005798       ??_C@_0BP@LCCDIABP@integer?5literal?5duration?5value@ 0000000180041798     MovieFFMpeg:MovieFFMpeg.obj
 0002:000057b8       ??_C@_0CJ@LHDJDDMI@string?5video?5pixel?5format?5?$CIi?4e?4@ 00000001800417b8     MovieFFMpeg:MovieFFMpeg.obj
 0002:000057e8       ??_C@_0CG@OMDGKJEK@string?5audio?5sample?5format?5?$CIi?4e@ 00000001800417e8     MovieFFMpeg:MovieFFMpeg.obj
 0002:00005810       ??_C@_0EK@FLODMHGA@integer?5value?5of?51?5will?5automat@ 0000000180041810     MovieFFMpeg:MovieFFMpeg.obj
 0002:0000585c       ??_C@_04JOEOOGA@vcc?3@     000000018004185c     MovieFFMpeg:MovieFFMpeg.obj
 0002:00005864       ??_C@_04NLCEKFPC@acc?3@    0000000180041864     MovieFFMpeg:MovieFFMpeg.obj
 0002:0000586c       ??_C@_05KOCJCPGE@test?4@   000000018004186c     MovieFFMpeg:MovieFFMpeg.obj
 0002:00005874       ??_C@_03PPNHHEKD@vc?3@     0000000180041874     MovieFFMpeg:MovieFFMpeg.obj
 0002:00005878       ??_C@_03DCBJBLIF@ac?3@     0000000180041878     MovieFFMpeg:MovieFFMpeg.obj
 0002:00005880       ??_C@_0CC@IONAABHL@TWK_MOVIEFFMPEG_CONTEXT_POOL_SI@ 0000000180041880     MovieFFMpeg:MovieFFMpeg.obj
 0002:000058a8       ??_C@_0CK@GHNDNCA@Disabling?5mio_ffmpeg?5context?5th@ 00000001800418a8     MovieFFMpeg:MovieFFMpeg.obj
 0002:000058d4       ??_C@_01LFCBOECM@?4@       00000001800418d4     MovieFFMpeg:MovieFFMpeg.obj
 0002:000058d8       ??_C@_0BD@BBGKKNJL@?0?5swscale?5version?5@ 00000001800418d8     MovieFFMpeg:MovieFFMpeg.obj
 0002:000058f0       ??_C@_0BC@DNMHNBLK@?0?5avutil?5version?5@ 00000001800418f0     MovieFFMpeg:MovieFFMpeg.obj
 0002:00005908       ??_C@_0BD@HKMLHIBD@?0?5avcodec?5version?5@ 0000000180041908     MovieFFMpeg:MovieFFMpeg.obj
 0002:00005920       ??_C@_0BK@KCPHBHOE@ffmpeg?3?5avformat?5version?5@ 0000000180041920     MovieFFMpeg:MovieFFMpeg.obj
 0002:00005940       ??_C@_0BD@JBCGJFDC@hexadecimal?5string@ 0000000180041940     MovieFFMpeg:MovieFFMpeg.obj
 0002:00005954       ??_C@_06ICGJLFIM@string@   0000000180041954     MovieFFMpeg:MovieFFMpeg.obj
 0002:00005960       ??_C@_07LKHFMGFB@integer@  0000000180041960     MovieFFMpeg:MovieFFMpeg.obj
 0002:00005968       ??_C@_05KNFBNCOH@float@    0000000180041968     MovieFFMpeg:MovieFFMpeg.obj
 0002:00005970       ??_C@_0BA@MMHMFENN@rational?5number@ 0000000180041970     MovieFFMpeg:MovieFFMpeg.obj
 0002:00005980       ??_C@_05GECEPKB@flags@     0000000180041980     MovieFFMpeg:MovieFFMpeg.obj
 0002:00005988       ??_C@_05MFEJDJP@value@     0000000180041988     MovieFFMpeg:MovieFFMpeg.obj
 0002:00005990       ??_C@_03LJGCHEIJ@avi@      0000000180041990     MovieFFMpeg:MovieFFMpeg.obj
 0002:00005998       ??_C@_0BH@FBPDPODL@Audio?5Video?5Interleave@ 0000000180041998     MovieFFMpeg:MovieFFMpeg.obj
 0002:000059b0       ??_C@_03PIFOGEAI@flv@      00000001800419b0     MovieFFMpeg:MovieFFMpeg.obj
 0002:000059b8       ??_C@_0M@GMMKNNJC@Flash?5Video@ 00000001800419b8     MovieFFMpeg:MovieFFMpeg.obj
 0002:000059c4       ??_C@_04PPEEPKBB@m3u8@     00000001800419c4     MovieFFMpeg:MovieFFMpeg.obj
 0002:000059d0       ??_C@_0BF@CDGGPBMJ@M3U8?5Stream?5Metadata@ 00000001800419d0     MovieFFMpeg:MovieFFMpeg.obj
 0002:000059e8       ??_C@_03ENPAJMAB@m4v@      00000001800419e8     MovieFFMpeg:MovieFFMpeg.obj
 0002:000059f0       ??_C@_0CC@DDBCEEFC@iTunes?5Video?5Format?5?$CIfrom?5MPEG?9@ 00000001800419f0     MovieFFMpeg:MovieFFMpeg.obj
 0002:00005a14       ??_C@_03CKBAPFIM@mkv@      0000000180041a14     MovieFFMpeg:MovieFFMpeg.obj
 0002:00005a18       ??_C@_0P@DIGHKIML@Matroska?5Video@ 0000000180041a18     MovieFFMpeg:MovieFFMpeg.obj
 0002:00005a28       ??_C@_0BA@KIDDBBNP@Quicktime?5Movie@ 0000000180041a28     MovieFFMpeg:MovieFFMpeg.obj
 0002:00005a38       ??_C@_03PICMJEJK@mp4@      0000000180041a38     MovieFFMpeg:MovieFFMpeg.obj
 0002:00005a40       ??_C@_0BH@PCNGOJLO@MPEG?94?5Movie?5Container@ 0000000180041a40     MovieFFMpeg:MovieFFMpeg.obj
 0002:00005a58       ??_C@_03GJLKJKAN@mpg@      0000000180041a58     MovieFFMpeg:MovieFFMpeg.obj
 0002:00005a60       ??_C@_0M@PPCPOOIO@MPEG?5Format@ 0000000180041a60     MovieFFMpeg:MovieFFMpeg.obj
 0002:00005a6c       ??_C@_03HOLCPKPE@mxf@      0000000180041a6c     MovieFFMpeg:MovieFFMpeg.obj
 0002:00005a70       ??_C@_0BJ@KGNBEKFF@Material?5eXchange?5Format@ 0000000180041a70     MovieFFMpeg:MovieFFMpeg.obj
 0002:00005a8c       ??_C@_03CJIAIMAL@aif@      0000000180041a8c     MovieFFMpeg:MovieFFMpeg.obj
 0002:00005a90       ??_C@_0BG@HHINNJKH@Apple?5AIFF?5audio?5file@ 0000000180041a90     MovieFFMpeg:MovieFFMpeg.obj
 0002:00005aa8       ??_C@_04NJCLGBGA@aifc@     0000000180041aa8     MovieFFMpeg:MovieFFMpeg.obj
 0002:00005ab0       ??_C@_0CB@KPILDDGG@Apple?5AIFC?5compressed?5audio?5fil@ 0000000180041ab0     MovieFFMpeg:MovieFFMpeg.obj
 0002:00005ad4       ??_C@_04KEFMJFCF@aiff@     0000000180041ad4     MovieFFMpeg:MovieFFMpeg.obj
 0002:00005adc       ??_C@_02BLODAKEJ@au@       0000000180041adc     MovieFFMpeg:MovieFFMpeg.obj
 0002:00005ae0       ??_C@_0BL@INOFFCDD@SUN?5Micosystems?5audio?5file@ 0000000180041ae0     MovieFFMpeg:MovieFFMpeg.obj
 0002:00005afc       ??_C@_03LHGNACFN@mp3@      0000000180041afc     MovieFFMpeg:MovieFFMpeg.obj
 0002:00005b00       ??_C@_0BH@PKFMMCOL@MPEG?93?5Audio?5Container@ 0000000180041b00     MovieFFMpeg:MovieFFMpeg.obj
 0002:00005b18       ??_C@_03NKNKOHHD@ogg@      0000000180041b18     MovieFFMpeg:MovieFFMpeg.obj
 0002:00005b20       ??_C@_0P@IKGKEAL@Ogg?5audio?5file@ 0000000180041b20     MovieFFMpeg:MovieFFMpeg.obj
 0002:00005b30       ??_C@_03OEOJGHBI@snd@      0000000180041b30     MovieFFMpeg:MovieFFMpeg.obj
 0002:00005b38       ??_C@_0BA@JFAJNOMD@NeXT?5audio?5file@ 0000000180041b38     MovieFFMpeg:MovieFFMpeg.obj
 0002:00005b48       ??_C@_03BICDMHKB@wav@      0000000180041b48     MovieFFMpeg:MovieFFMpeg.obj
 0002:00005b50       ??_C@_0BK@HMKHBKKD@Microsoft?5WAVE?5audio?5file@ 0000000180041b50     MovieFFMpeg:MovieFFMpeg.obj
 0002:00005b70       ??_C@_0BG@EOMJEIFA@vector?$DMbool?$DO?5too?5long@ 0000000180041b70     MovieFFMpeg:MovieFFMpeg.obj
 0002:00005b90       ??_7?$TypedFBAttribute@M@TwkFB@@6B@ 0000000180041b90     MovieFFMpeg:MovieFFMpeg.obj
 0002:00005bc0       ??_7?$error_info_injector@Vthread_resource_error@boost@@@exception_detail@boost@@6Bthread_resource_error@2@@ 0000000180041bc0     MovieFFMpeg:MovieFFMpeg.obj
 0002:00005bd8       ??_7?$error_info_injector@Vthread_resource_error@boost@@@exception_detail@boost@@6Bexception@2@@ 0000000180041bd8     MovieFFMpeg:MovieFFMpeg.obj
 0002:00005be8       ??_7?$clone_impl@U?$error_info_injector@Vthread_resource_error@boost@@@exception_detail@boost@@@exception_detail@boost@@6Bthread_resource_error@2@@ 0000000180041be8     MovieFFMpeg:MovieFFMpeg.obj
 0002:00005c00       ??_7?$clone_impl@U?$error_info_injector@Vthread_resource_error@boost@@@exception_detail@boost@@@exception_detail@boost@@6Bexception@2@@ 0000000180041c00     MovieFFMpeg:MovieFFMpeg.obj
 0002:00005c10       ??_7?$clone_impl@U?$error_info_injector@Vthread_resource_error@boost@@@exception_detail@boost@@@exception_detail@boost@@6B@ 0000000180041c10     MovieFFMpeg:MovieFFMpeg.obj
 0002:00005c28       ??_8?$clone_impl@U?$error_info_injector@Vthread_resource_error@boost@@@exception_detail@boost@@@exception_detail@boost@@7B@ 0000000180041c28     MovieFFMpeg:MovieFFMpeg.obj
 0002:00005c38       ??_7?$TypedFBAttribute@V?$basic_string@DU?$char_traits@D@std@@V?$allocator@D@2@@std@@@TwkFB@@6B@ 0000000180041c38     MovieFFMpeg:MovieFFMpeg.obj
 0002:00005c60       ??_C@_0BB@MOGOBHAF@list?$DMT?$DO?5too?5long@ 0000000180041c60     MovieFFMpeg:MovieFFMpeg.obj
 0002:00005c78       ??_C@_0BE@JONHPENG@map?1set?$DMT?$DO?5too?5long@ 0000000180041c78     MovieFFMpeg:MovieFFMpeg.obj
 0002:00005c8c       __real@3d75c28f            0000000180041c8c     MovieFFMpeg:MovieFFMpeg.obj
 0002:00005c90       __real@3d8f5c29            0000000180041c90     MovieFFMpeg:MovieFFMpeg.obj
 0002:00005c94       __real@3da3d70a            0000000180041c94     MovieFFMpeg:MovieFFMpeg.obj
 0002:00005c98       __real@3e0f5c29            0000000180041c98     MovieFFMpeg:MovieFFMpeg.obj
 0002:00005c9c       __real@3e19999a            0000000180041c9c     MovieFFMpeg:MovieFFMpeg.obj
 0002:00005ca0       __real@3e1eb852            0000000180041ca0     MovieFFMpeg:MovieFFMpeg.obj
 0002:00005ca4       __real@3e570a3d            0000000180041ca4     MovieFFMpeg:MovieFFMpeg.obj
 0002:00005ca8       __real@3e947ae1            0000000180041ca8     MovieFFMpeg:MovieFFMpeg.obj
 0002:00005cac       __real@3e99999a            0000000180041cac     MovieFFMpeg:MovieFFMpeg.obj
 0002:00005cb0       __real@3e9eb852            0000000180041cb0     MovieFFMpeg:MovieFFMpeg.obj
 0002:00005cb4       __real@3ea01a37            0000000180041cb4     MovieFFMpeg:MovieFFMpeg.obj
 0002:00005cb8       __real@3ea1cac1            0000000180041cb8     MovieFFMpeg:MovieFFMpeg.obj
 0002:00005cbc       __real@3ea872b0            0000000180041cbc     MovieFFMpeg:MovieFFMpeg.obj
 0002:00005cc0       __real@3ea8f5c3            0000000180041cc0     MovieFFMpeg:MovieFFMpeg.obj
 0002:00005cc4       __real@3eae147b            0000000180041cc4     MovieFFMpeg:MovieFFMpeg.obj
 0002:00005cc8       __real@3f1851ec            0000000180041cc8     MovieFFMpeg:MovieFFMpeg.obj
 0002:00005ccc       __real@3f19999a            0000000180041ccc     MovieFFMpeg:MovieFFMpeg.obj
 0002:00005cd0       __real@3f2147ae            0000000180041cd0     MovieFFMpeg:MovieFFMpeg.obj
 0002:00005cd4       __real@3f23d70a            0000000180041cd4     MovieFFMpeg:MovieFFMpeg.obj
 0002:00005cd8       __real@3f2b851f            0000000180041cd8     MovieFFMpeg:MovieFFMpeg.obj
 0002:00005cdc       __real@3f35c28f            0000000180041cdc     MovieFFMpeg:MovieFFMpeg.obj
 0002:00005ce0       __real@3f50624dd2f1a9fc    0000000180041ce0     MovieFFMpeg:MovieFFMpeg.obj
 0002:00005ce8       __real@3f800000            0000000180041ce8     MovieFFMpeg:MovieFFMpeg.obj
 0002:00005cf0       __real@3f847ae147ae147b    0000000180041cf0     MovieFFMpeg:MovieFFMpeg.obj
 0002:00005cf8       __real@3fdf5c28f5c28f5c    0000000180041cf8     MovieFFMpeg:MovieFFMpeg.obj
 0002:00005d00       __real@3fe0000000000000    0000000180041d00     MovieFFMpeg:MovieFFMpeg.obj
 0002:00005d08       __real@3ff0000000000000    0000000180041d08     MovieFFMpeg:MovieFFMpeg.obj
 0002:00005d10       __real@3ff7d70a3d70a3d7    0000000180041d10     MovieFFMpeg:MovieFFMpeg.obj
 0002:00005d18       __real@40000000            0000000180041d18     MovieFFMpeg:MovieFFMpeg.obj
 0002:00005d20       __real@4000000000000000    0000000180041d20     MovieFFMpeg:MovieFFMpeg.obj
 0002:00005d28       __real@4037f9da7b0b3919    0000000180041d28     MovieFFMpeg:MovieFFMpeg.obj
 0002:00005d30       __real@4037fae147ae147b    0000000180041d30     MovieFFMpeg:MovieFFMpeg.obj
 0002:00005d38       __real@4039000000000000    0000000180041d38     MovieFFMpeg:MovieFFMpeg.obj
 0002:00005d40       __real@403df851eb851eb8    0000000180041d40     MovieFFMpeg:MovieFFMpeg.obj
 0002:00005d48       __real@403e000000000000    0000000180041d48     MovieFFMpeg:MovieFFMpeg.obj
 0002:00005d50       __real@4049000000000000    0000000180041d50     MovieFFMpeg:MovieFFMpeg.obj
 0002:00005d58       __real@404df851eb851eb8    0000000180041d58     MovieFFMpeg:MovieFFMpeg.obj
 0002:00005d60       __real@404e000000000000    0000000180041d60     MovieFFMpeg:MovieFFMpeg.obj
 0002:00005d68       __real@406fe00000000000    0000000180041d68     MovieFFMpeg:MovieFFMpeg.obj
 0002:00005d70       __real@40800000            0000000180041d70     MovieFFMpeg:MovieFFMpeg.obj
 0002:00005d78       __real@408f400000000000    0000000180041d78     MovieFFMpeg:MovieFFMpeg.obj
 0002:00005d80       __real@40c3880000000000    0000000180041d80     MovieFFMpeg:MovieFFMpeg.obj
 0002:00005d88       __real@40dfffc000000000    0000000180041d88     MovieFFMpeg:MovieFFMpeg.obj
 0002:00005d90       __real@40f86a0000000000    0000000180041d90     MovieFFMpeg:MovieFFMpeg.obj
 0002:00005d98       __real@412e848000000000    0000000180041d98     MovieFFMpeg:MovieFFMpeg.obj
 0002:00005da0       __real@41dfffffffc00000    0000000180041da0     MovieFFMpeg:MovieFFMpeg.obj
 0002:00005da8       __real@42c80000            0000000180041da8     MovieFFMpeg:MovieFFMpeg.obj
 0002:00005db0       __real@43f0000000000000    0000000180041db0     MovieFFMpeg:MovieFFMpeg.obj
 0002:00005db8       __real@5f800000            0000000180041db8     MovieFFMpeg:MovieFFMpeg.obj
 0002:00005dc0       __xmm@00000000000000070000000000000000 0000000180041dc0     MovieFFMpeg:MovieFFMpeg.obj
 0002:00005dd0       __xmm@7fffffffffffffff7fffffffffffffff 0000000180041dd0     MovieFFMpeg:MovieFFMpeg.obj
 0002:00005de0       __xmm@80000000000000008000000000000000 0000000180041de0     MovieFFMpeg:MovieFFMpeg.obj
 0002:00005e90       ??_C@_0BH@HLANLFLM@?$FN?4mdia?4minf?4stbl?4stsd?4@ 0000000180041e90     mp4v2Utils:mp4v2Utils.obj
 0002:00005ea8       ??_C@_0L@NEEFJCDC@moov?4trak?$FL@ 0000000180041ea8     mp4v2Utils:mp4v2Utils.obj
 0002:00005eb4       ??_C@_04NIMOMLBK@colr@     0000000180041eb4     mp4v2Utils:mp4v2Utils.obj
 0002:00005ec0       ??_C@_0BE@GKMFEFNP@?4colorParameterType@ 0000000180041ec0     mp4v2Utils:mp4v2Utils.obj
 0002:00005ed8       ??_C@_0BA@NDHJGOEK@?4primariesIndex@ 0000000180041ed8     mp4v2Utils:mp4v2Utils.obj
 0002:00005ee8       ??_C@_0BH@GOBGIDFH@?4transferFunctionIndex@ 0000000180041ee8     mp4v2Utils:mp4v2Utils.obj
 0002:00005f00       ??_C@_0N@LMILDJKC@?4matrixIndex@ 0000000180041f00     mp4v2Utils:mp4v2Utils.obj
 0002:00005f10       ??_C@_0M@NPOFIDFA@?4iccProfile@ 0000000180041f10     mp4v2Utils:mp4v2Utils.obj
 0002:00005f70       ??_C@_1EC@JIJBPKFM@?$AAa?$AAp?$AAi?$AA?9?$AAm?$AAs?$AA?9?$AAw?$AAi?$AAn?$AA?9?$AAc?$AAo?$AAr?$AAe@ 0000000180041f70     MSVCRT:thread_safe_statics.obj
 0002:00005fb8       ??_C@_1BK@MGMFAEKH@?$AAk?$AAe?$AAr?$AAn?$AAe?$AAl?$AA3?$AA2?$AA?4?$AAd?$AAl?$AAl@ 0000000180041fb8     MSVCRT:thread_safe_statics.obj
 0002:00005fd8       ??_C@_0BM@HLJJNPAH@InitializeConditionVariable@ 0000000180041fd8     MSVCRT:thread_safe_statics.obj
 0002:00005ff8       ??_C@_0BJ@JEBJOJFJ@SleepConditionVariableCS@ 0000000180041ff8     MSVCRT:thread_safe_statics.obj
 0002:00006018       ??_C@_0BJ@PGPPEPCC@WakeAllConditionVariable@ 0000000180042018     MSVCRT:thread_safe_statics.obj
 0002:00006040       ??_7type_info@@6B@         0000000180042040     MSVCRT:std_type_info_static.obj
 0002:00006048       _pRawDllMain               0000000180042048     MSVCRT:dll_dllmain.obj
 0002:00006048       _pDefaultRawDllMain        0000000180042048     MSVCRT:dll_dllmain.obj
 0002:00006058       ??_7bad_alloc@std@@6B@     0000000180042058     MSVCRT:throw_bad_alloc.obj
 0002:00006068       ??_C@_0P@GHFPNOJB@bad?5allocation@ 0000000180042068     MSVCRT:throw_bad_alloc.obj
 0002:00006080       ??_7bad_array_new_length@std@@6B@ 0000000180042080     MSVCRT:throw_bad_alloc.obj
 0002:00006090       ??_C@_0BF@KINCDENJ@bad?5array?5new?5length@ 0000000180042090     MSVCRT:throw_bad_alloc.obj
 0002:000060e0       _load_config_used          00000001800420e0     MSVCRT:loadcfg.obj
 0002:000061e0       _tls_used                  00000001800421e0     MSVCRT:tlssup.obj
 0002:00006210       ??_R4exception@std@@6B@    0000000180042210     init.obj
 0002:00006238       ??_R3exception@std@@8      0000000180042238     init.obj
 0002:00006250       ??_R2exception@std@@8      0000000180042250     init.obj
 0002:00006260       ??_R1A@?0A@EA@exception@std@@8 0000000180042260     init.obj
 0002:00006288       ??_R4?$basic_stringbuf@DU?$char_traits@D@std@@V?$allocator@D@2@@std@@6B@ 0000000180042288     init.obj
 0002:000062b0       ??_R3?$basic_stringbuf@DU?$char_traits@D@std@@V?$allocator@D@2@@std@@8 00000001800422b0     init.obj
 0002:000062c8       ??_R2?$basic_stringbuf@DU?$char_traits@D@std@@V?$allocator@D@2@@std@@8 00000001800422c8     init.obj
 0002:000062e0       ??_R1A@?0A@EA@?$basic_stringbuf@DU?$char_traits@D@std@@V?$allocator@D@2@@std@@8 00000001800422e0     init.obj
 0002:00006308       ??_R1A@?0A@EA@?$basic_streambuf@DU?$char_traits@D@std@@@std@@8 0000000180042308     init.obj
 0002:00006330       ??_R3?$basic_streambuf@DU?$char_traits@D@std@@@std@@8 0000000180042330     init.obj
 0002:00006348       ??_R2?$basic_streambuf@DU?$char_traits@D@std@@@std@@8 0000000180042348     init.obj
 0002:00006358       ??_R4logic_error@std@@6B@  0000000180042358     init.obj
 0002:00006380       ??_R3logic_error@std@@8    0000000180042380     init.obj
 0002:00006398       ??_R2logic_error@std@@8    0000000180042398     init.obj
 0002:000063b0       ??_R1A@?0A@EA@logic_error@std@@8 00000001800423b0     init.obj
 0002:000063d8       ??_R4runtime_error@std@@6B@ 00000001800423d8     init.obj
 0002:00006400       ??_R3runtime_error@std@@8  0000000180042400     init.obj
 0002:00006418       ??_R2runtime_error@std@@8  0000000180042418     init.obj
 0002:00006430       ??_R1A@?0A@EA@runtime_error@std@@8 0000000180042430     init.obj
 0002:00006458       ??_R4bad_cast@std@@6B@     0000000180042458     init.obj
 0002:00006480       ??_R3bad_cast@std@@8       0000000180042480     init.obj
 0002:00006498       ??_R2bad_cast@std@@8       0000000180042498     init.obj
 0002:000064b0       ??_R1A@?0A@EA@bad_cast@std@@8 00000001800424b0     init.obj
 0002:000064d8       ??_R1A@?0A@EA@facet@locale@std@@8 00000001800424d8     init.obj
 0002:00006500       ??_R3facet@locale@std@@8   0000000180042500     init.obj
 0002:00006518       ??_R2facet@locale@std@@8   0000000180042518     init.obj
 0002:00006538       ??_R1A@?0A@EA@_Facet_base@std@@8 0000000180042538     init.obj
 0002:00006560       ??_R3_Facet_base@std@@8    0000000180042560     init.obj
 0002:00006578       ??_R2_Facet_base@std@@8    0000000180042578     init.obj
 0002:00006588       ??_R17?0A@EA@_Crt_new_delete@std@@8 0000000180042588     init.obj
 0002:000065b0       ??_R3_Crt_new_delete@std@@8 00000001800425b0     init.obj
 0002:000065c8       ??_R2_Crt_new_delete@std@@8 00000001800425c8     init.obj
 0002:000065d8       ??_R1A@?0A@EA@_Crt_new_delete@std@@8 00000001800425d8     init.obj
 0002:00006600       ??_R4?$numpunct@D@std@@6B@ 0000000180042600     init.obj
 0002:00006628       ??_R3?$numpunct@D@std@@8   0000000180042628     init.obj
 0002:00006640       ??_R2?$numpunct@D@std@@8   0000000180042640     init.obj
 0002:00006668       ??_R1A@?0A@EA@?$numpunct@D@std@@8 0000000180042668     init.obj
 0002:00006690       ??_R4exception@boost@@6B@  0000000180042690     init.obj
 0002:000066b8       ??_R3exception@boost@@8    00000001800426b8     init.obj
 0002:000066d0       ??_R2exception@boost@@8    00000001800426d0     init.obj
 0002:000066e0       ??_R1A@?0A@EA@exception@boost@@8 00000001800426e0     init.obj
 0002:00006708       ??_R4clone_base@exception_detail@boost@@6B@ 0000000180042708     init.obj
 0002:00006730       ??_R3clone_base@exception_detail@boost@@8 0000000180042730     init.obj
 0002:00006748       ??_R2clone_base@exception_detail@boost@@8 0000000180042748     init.obj
 0002:00006758       ??_R1A@?0A@EA@clone_base@exception_detail@boost@@8 0000000180042758     init.obj
 0002:00006780       ??_R4placeholder@any@boost@@6B@ 0000000180042780     init.obj
 0002:000067a8       ??_R3placeholder@any@boost@@8 00000001800427a8     init.obj
 0002:000067c0       ??_R2placeholder@any@boost@@8 00000001800427c0     init.obj
 0002:000067d0       ??_R1A@?0A@EA@placeholder@any@boost@@8 00000001800427d0     init.obj
 0002:000067f8       ??_R4bad_lexical_cast@boost@@6B@ 00000001800427f8     init.obj
 0002:00006820       ??_R3bad_lexical_cast@boost@@8 0000000180042820     init.obj
 0002:00006838       ??_R2bad_lexical_cast@boost@@8 0000000180042838     init.obj
 0002:00006858       ??_R1A@?0A@EA@bad_lexical_cast@boost@@8 0000000180042858     init.obj
 0002:00006880       ??_R4typed_value_base@program_options@boost@@6B@ 0000000180042880     init.obj
 0002:000068a8       ??_R3typed_value_base@program_options@boost@@8 00000001800428a8     init.obj
 0002:000068c0       ??_R2typed_value_base@program_options@boost@@8 00000001800428c0     init.obj
 0002:000068d0       ??_R1A@?0A@EA@typed_value_base@program_options@boost@@8 00000001800428d0     init.obj
 0002:000068f8       ??_R4?$typed_value@HD@program_options@boost@@6B?$value_semantic_codecvt_helper@D@12@@ 00000001800428f8     init.obj
 0002:00006920       ??_R3?$typed_value@HD@program_options@boost@@8 0000000180042920     init.obj
 0002:00006938       ??_R2?$typed_value@HD@program_options@boost@@8 0000000180042938     init.obj
 0002:00006960       ??_R1A@?0A@EA@?$typed_value@HD@program_options@boost@@8 0000000180042960     init.obj
 0002:00006988       ??_R1A@?0A@EA@?$value_semantic_codecvt_helper@D@program_options@boost@@8 0000000180042988     init.obj
 0002:000069b0       ??_R3?$value_semantic_codecvt_helper@D@program_options@boost@@8 00000001800429b0     init.obj
 0002:000069c8       ??_R2?$value_semantic_codecvt_helper@D@program_options@boost@@8 00000001800429c8     init.obj
 0002:000069e0       ??_R1A@?0A@EA@value_semantic@program_options@boost@@8 00000001800429e0     init.obj
 0002:00006a08       ??_R3value_semantic@program_options@boost@@8 0000000180042a08     init.obj
 0002:00006a20       ??_R2value_semantic@program_options@boost@@8 0000000180042a20     init.obj
 0002:00006a30       ??_R17?0A@EA@typed_value_base@program_options@boost@@8 0000000180042a30     init.obj
 0002:00006a58       ??_R4?$typed_value@HD@program_options@boost@@6Btyped_value_base@12@@ 0000000180042a58     init.obj
 0002:00006a80       ??_R4?$typed_value@V?$basic_string@DU?$char_traits@D@std@@V?$allocator@D@2@@std@@D@program_options@boost@@6B?$value_semantic_codecvt_helper@D@12@@ 0000000180042a80     init.obj
 0002:00006aa8       ??_R3?$typed_value@V?$basic_string@DU?$char_traits@D@std@@V?$allocator@D@2@@std@@D@program_options@boost@@8 0000000180042aa8     init.obj
 0002:00006ac0       ??_R2?$typed_value@V?$basic_string@DU?$char_traits@D@std@@V?$allocator@D@2@@std@@D@program_options@boost@@8 0000000180042ac0     init.obj
 0002:00006ae8       ??_R1A@?0A@EA@?$typed_value@V?$basic_string@DU?$char_traits@D@std@@V?$allocator@D@2@@std@@D@program_options@boost@@8 0000000180042ae8     init.obj
 0002:00006b10       ??_R4?$typed_value@V?$basic_string@DU?$char_traits@D@std@@V?$allocator@D@2@@std@@D@program_options@boost@@6Btyped_value_base@12@@ 0000000180042b10     init.obj
 0002:00006b38       ??_R4?$typed_value@ND@program_options@boost@@6B?$value_semantic_codecvt_helper@D@12@@ 0000000180042b38     init.obj
 0002:00006b60       ??_R3?$typed_value@ND@program_options@boost@@8 0000000180042b60     init.obj
 0002:00006b78       ??_R2?$typed_value@ND@program_options@boost@@8 0000000180042b78     init.obj
 0002:00006ba0       ??_R1A@?0A@EA@?$typed_value@ND@program_options@boost@@8 0000000180042ba0     init.obj
 0002:00006bc8       ??_R4?$typed_value@ND@program_options@boost@@6Btyped_value_base@12@@ 0000000180042bc8     init.obj
 0002:00006bf0       ??_R4?$holder@N@any@boost@@6B@ 0000000180042bf0     init.obj
 0002:00006c18       ??_R3?$holder@N@any@boost@@8 0000000180042c18     init.obj
 0002:00006c30       ??_R2?$holder@N@any@boost@@8 0000000180042c30     init.obj
 0002:00006c48       ??_R1A@?0A@EA@?$holder@N@any@boost@@8 0000000180042c48     init.obj
 0002:00006c70       ??_R4?$holder@V?$basic_string@DU?$char_traits@D@std@@V?$allocator@D@2@@std@@@any@boost@@6B@ 0000000180042c70     init.obj
 0002:00006c98       ??_R3?$holder@V?$basic_string@DU?$char_traits@D@std@@V?$allocator@D@2@@std@@@any@boost@@8 0000000180042c98     init.obj
 0002:00006cb0       ??_R2?$holder@V?$basic_string@DU?$char_traits@D@std@@V?$allocator@D@2@@std@@@any@boost@@8 0000000180042cb0     init.obj
 0002:00006cc8       ??_R1A@?0A@EA@?$holder@V?$basic_string@DU?$char_traits@D@std@@V?$allocator@D@2@@std@@@any@boost@@8 0000000180042cc8     init.obj
 0002:00006cf0       ??_R4?$holder@H@any@boost@@6B@ 0000000180042cf0     init.obj
 0002:00006d18       ??_R3?$holder@H@any@boost@@8 0000000180042d18     init.obj
 0002:00006d30       ??_R2?$holder@H@any@boost@@8 0000000180042d30     init.obj
 0002:00006d48       ??_R1A@?0A@EA@?$holder@H@any@boost@@8 0000000180042d48     init.obj
 0002:00006d70       ??_R4?$basic_unlockedbuf@V?$basic_stringbuf@DU?$char_traits@D@std@@V?$allocator@D@2@@std@@D@detail@boost@@6B@ 0000000180042d70     init.obj
 0002:00006d98       ??_R3?$basic_unlockedbuf@V?$basic_stringbuf@DU?$char_traits@D@std@@V?$allocator@D@2@@std@@D@detail@boost@@8 0000000180042d98     init.obj
 0002:00006db0       ??_R2?$basic_unlockedbuf@V?$basic_stringbuf@DU?$char_traits@D@std@@V?$allocator@D@2@@std@@D@detail@boost@@8 0000000180042db0     init.obj
 0002:00006dd8       ??_R1A@?0A@EA@?$basic_unlockedbuf@V?$basic_stringbuf@DU?$char_traits@D@std@@V?$allocator@D@2@@std@@D@detail@boost@@8 0000000180042dd8     init.obj
 0002:00006e00       ??_R1A@?0A@EA@?$basic_pointerbuf@DV?$basic_stringbuf@DU?$char_traits@D@std@@V?$allocator@D@2@@std@@@detail@boost@@8 0000000180042e00     init.obj
 0002:00006e28       ??_R3?$basic_pointerbuf@DV?$basic_stringbuf@DU?$char_traits@D@std@@V?$allocator@D@2@@std@@@detail@boost@@8 0000000180042e28     init.obj
 0002:00006e40       ??_R2?$basic_pointerbuf@DV?$basic_stringbuf@DU?$char_traits@D@std@@V?$allocator@D@2@@std@@@detail@boost@@8 0000000180042e40     init.obj
 0002:00006e60       ??_R4?$basic_unlockedbuf@V?$basic_streambuf@DU?$char_traits@D@std@@@std@@D@detail@boost@@6B@ 0000000180042e60     init.obj
 0002:00006e88       ??_R3?$basic_unlockedbuf@V?$basic_streambuf@DU?$char_traits@D@std@@@std@@D@detail@boost@@8 0000000180042e88     init.obj
 0002:00006ea0       ??_R2?$basic_unlockedbuf@V?$basic_streambuf@DU?$char_traits@D@std@@@std@@D@detail@boost@@8 0000000180042ea0     init.obj
 0002:00006ec0       ??_R1A@?0A@EA@?$basic_unlockedbuf@V?$basic_streambuf@DU?$char_traits@D@std@@@std@@D@detail@boost@@8 0000000180042ec0     init.obj
 0002:00006ee8       ??_R1A@?0A@EA@?$basic_pointerbuf@DV?$basic_streambuf@DU?$char_traits@D@std@@@std@@@detail@boost@@8 0000000180042ee8     init.obj
 0002:00006f10       ??_R3?$basic_pointerbuf@DV?$basic_streambuf@DU?$char_traits@D@std@@@std@@@detail@boost@@8 0000000180042f10     init.obj
 0002:00006f28       ??_R2?$basic_pointerbuf@DV?$basic_streambuf@DU?$char_traits@D@std@@@std@@@detail@boost@@8 0000000180042f28     init.obj
 0002:00006f40       ??_R4?$error_info_injector@Vinvalid_option_value@program_options@boost@@@exception_detail@boost@@6Binvalid_option_value@program_options@2@@ 0000000180042f40     init.obj
 0002:00006f68       ??_R3?$error_info_injector@Vinvalid_option_value@program_options@boost@@@exception_detail@boost@@8 0000000180042f68     init.obj
 0002:00006f80       ??_R2?$error_info_injector@Vinvalid_option_value@program_options@boost@@@exception_detail@boost@@8 0000000180042f80     init.obj
 0002:00006fc8       ??_R1A@?0A@EA@?$error_info_injector@Vinvalid_option_value@program_options@boost@@@exception_detail@boost@@8 0000000180042fc8     init.obj
 0002:00006ff0       ??_R1A@?0A@EA@invalid_option_value@program_options@boost@@8 0000000180042ff0     init.obj
 0002:00007018       ??_R3invalid_option_value@program_options@boost@@8 0000000180043018     init.obj
 0002:00007030       ??_R2invalid_option_value@program_options@boost@@8 0000000180043030     init.obj
 0002:00007068       ??_R1A@?0A@EA@validation_error@program_options@boost@@8 0000000180043068     init.obj
 0002:00007090       ??_R3validation_error@program_options@boost@@8 0000000180043090     init.obj
 0002:000070a8       ??_R2validation_error@program_options@boost@@8 00000001800430a8     init.obj
 0002:000070d8       ??_R1A@?0A@EA@error_with_option_name@program_options@boost@@8 00000001800430d8     init.obj
 0002:00007100       ??_R3error_with_option_name@program_options@boost@@8 0000000180043100     init.obj
 0002:00007118       ??_R2error_with_option_name@program_options@boost@@8 0000000180043118     init.obj
 0002:00007140       ??_R1A@?0A@EA@error@program_options@boost@@8 0000000180043140     init.obj
 0002:00007168       ??_R3error@program_options@boost@@8 0000000180043168     init.obj
 0002:00007180       ??_R2error@program_options@boost@@8 0000000180043180     init.obj
 0002:000071a0       ??_R1II@?0A@EA@exception@boost@@8 00000001800431a0     init.obj
 0002:000071c8       ??_R4?$error_info_injector@Vinvalid_option_value@program_options@boost@@@exception_detail@boost@@6Bexception@2@@ 00000001800431c8     init.obj
 0002:000071f0       ??_R4?$clone_impl@U?$error_info_injector@Vinvalid_option_value@program_options@boost@@@exception_detail@boost@@@exception_detail@boost@@6Binvalid_option_value@program_options@2@@ 00000001800431f0     init.obj
 0002:00007218       ??_R3?$clone_impl@U?$error_info_injector@Vinvalid_option_value@program_options@boost@@@exception_detail@boost@@@exception_detail@boost@@8 0000000180043218     init.obj
 0002:00007230       ??_R2?$clone_impl@U?$error_info_injector@Vinvalid_option_value@program_options@boost@@@exception_detail@boost@@@exception_detail@boost@@8 0000000180043230     init.obj
 0002:00007288       ??_R1A@?0A@EA@?$clone_impl@U?$error_info_injector@Vinvalid_option_value@program_options@boost@@@exception_detail@boost@@@exception_detail@boost@@8 0000000180043288     init.obj
 0002:000072b0       ??_R1A@LA@3FA@clone_base@exception_detail@boost@@8 00000001800432b0     init.obj
 0002:000072d8       ??_R4?$clone_impl@U?$error_info_injector@Vinvalid_option_value@program_options@boost@@@exception_detail@boost@@@exception_detail@boost@@6Bexception@2@@ 00000001800432d8     init.obj
 0002:00007300       ??_R4?$clone_impl@U?$error_info_injector@Vinvalid_option_value@program_options@boost@@@exception_detail@boost@@@exception_detail@boost@@6B@ 0000000180043300     init.obj
 0002:00007328       ??_R4?$error_info_injector@Vbad_lexical_cast@boost@@@exception_detail@boost@@6Bbad_lexical_cast@2@@ 0000000180043328     init.obj
 0002:00007350       ??_R3?$error_info_injector@Vbad_lexical_cast@boost@@@exception_detail@boost@@8 0000000180043350     init.obj
 0002:00007368       ??_R2?$error_info_injector@Vbad_lexical_cast@boost@@@exception_detail@boost@@8 0000000180043368     init.obj
 0002:00007398       ??_R1A@?0A@EA@?$error_info_injector@Vbad_lexical_cast@boost@@@exception_detail@boost@@8 0000000180043398     init.obj
 0002:000073c0       ??_R1CI@?0A@EA@exception@boost@@8 00000001800433c0     init.obj
 0002:000073e8       ??_R4?$error_info_injector@Vbad_lexical_cast@boost@@@exception_detail@boost@@6Bexception@2@@ 00000001800433e8     init.obj
 0002:00007410       ??_R4?$clone_impl@U?$error_info_injector@Vbad_lexical_cast@boost@@@exception_detail@boost@@@exception_detail@boost@@6Bbad_lexical_cast@2@@ 0000000180043410     init.obj
 0002:00007438       ??_R3?$clone_impl@U?$error_info_injector@Vbad_lexical_cast@boost@@@exception_detail@boost@@@exception_detail@boost@@8 0000000180043438     init.obj
 0002:00007450       ??_R2?$clone_impl@U?$error_info_injector@Vbad_lexical_cast@boost@@@exception_detail@boost@@@exception_detail@boost@@8 0000000180043450     init.obj
 0002:00007490       ??_R1A@?0A@EA@?$clone_impl@U?$error_info_injector@Vbad_lexical_cast@boost@@@exception_detail@boost@@@exception_detail@boost@@8 0000000180043490     init.obj
 0002:000074b8       ??_R1A@FA@3FA@clone_base@exception_detail@boost@@8 00000001800434b8     init.obj
 0002:000074e0       ??_R4?$clone_impl@U?$error_info_injector@Vbad_lexical_cast@boost@@@exception_detail@boost@@@exception_detail@boost@@6Bexception@2@@ 00000001800434e0     init.obj
 0002:00007508       ??_R4?$clone_impl@U?$error_info_injector@Vbad_lexical_cast@boost@@@exception_detail@boost@@@exception_detail@boost@@6B@ 0000000180043508     init.obj
 0002:00007530       ??_R4?$error_info_injector@Vvalidation_error@program_options@boost@@@exception_detail@boost@@6Bvalidation_error@program_options@2@@ 0000000180043530     init.obj
 0002:00007558       ??_R3?$error_info_injector@Vvalidation_error@program_options@boost@@@exception_detail@boost@@8 0000000180043558     init.obj
 0002:00007570       ??_R2?$error_info_injector@Vvalidation_error@program_options@boost@@@exception_detail@boost@@8 0000000180043570     init.obj
 0002:000075b0       ??_R1A@?0A@EA@?$error_info_injector@Vvalidation_error@program_options@boost@@@exception_detail@boost@@8 00000001800435b0     init.obj
 0002:000075d8       ??_R4?$error_info_injector@Vvalidation_error@program_options@boost@@@exception_detail@boost@@6Bexception@2@@ 00000001800435d8     init.obj
 0002:00007600       ??_R4?$clone_impl@U?$error_info_injector@Vvalidation_error@program_options@boost@@@exception_detail@boost@@@exception_detail@boost@@6Bvalidation_error@program_options@2@@ 0000000180043600     init.obj
 0002:00007628       ??_R3?$clone_impl@U?$error_info_injector@Vvalidation_error@program_options@boost@@@exception_detail@boost@@@exception_detail@boost@@8 0000000180043628     init.obj
 0002:00007640       ??_R2?$clone_impl@U?$error_info_injector@Vvalidation_error@program_options@boost@@@exception_detail@boost@@@exception_detail@boost@@8 0000000180043640     init.obj
 0002:00007690       ??_R1A@?0A@EA@?$clone_impl@U?$error_info_injector@Vvalidation_error@program_options@boost@@@exception_detail@boost@@@exception_detail@boost@@8 0000000180043690     init.obj
 0002:000076b8       ??_R4?$clone_impl@U?$error_info_injector@Vvalidation_error@program_options@boost@@@exception_detail@boost@@@exception_detail@boost@@6Bexception@2@@ 00000001800436b8     init.obj
 0002:000076e0       ??_R4?$clone_impl@U?$error_info_injector@Vvalidation_error@program_options@boost@@@exception_detail@boost@@@exception_detail@boost@@6B@ 00000001800436e0     init.obj
 0002:00007708       ??_R4?$basic_istringstream@DU?$char_traits@D@std@@V?$allocator@D@2@@std@@6B@ 0000000180043708     MovieFFMpeg:MovieFFMpeg.obj
 0002:00007730       ??_R3?$basic_istringstream@DU?$char_traits@D@std@@V?$allocator@D@2@@std@@8 0000000180043730     MovieFFMpeg:MovieFFMpeg.obj
 0002:00007748       ??_R2?$basic_istringstream@DU?$char_traits@D@std@@V?$allocator@D@2@@std@@8 0000000180043748     MovieFFMpeg:MovieFFMpeg.obj
 0002:00007778       ??_R1A@?0A@EA@?$basic_istringstream@DU?$char_traits@D@std@@V?$allocator@D@2@@std@@8 0000000180043778     MovieFFMpeg:MovieFFMpeg.obj
 0002:000077a0       ??_R1A@?0A@EA@?$basic_istream@DU?$char_traits@D@std@@@std@@8 00000001800437a0     MovieFFMpeg:MovieFFMpeg.obj
 0002:000077c8       ??_R3?$basic_istream@DU?$char_traits@D@std@@@std@@8 00000001800437c8     MovieFFMpeg:MovieFFMpeg.obj
 0002:000077e0       ??_R2?$basic_istream@DU?$char_traits@D@std@@@std@@8 00000001800437e0     MovieFFMpeg:MovieFFMpeg.obj
 0002:00007808       ??_R1A@A@3FA@?$basic_ios@DU?$char_traits@D@std@@@std@@8 0000000180043808     MovieFFMpeg:MovieFFMpeg.obj
 0002:00007830       ??_R3?$basic_ios@DU?$char_traits@D@std@@@std@@8 0000000180043830     MovieFFMpeg:MovieFFMpeg.obj
 0002:00007848       ??_R2?$basic_ios@DU?$char_traits@D@std@@@std@@8 0000000180043848     MovieFFMpeg:MovieFFMpeg.obj
 0002:00007868       ??_R1A@?0A@EA@?$basic_ios@DU?$char_traits@D@std@@@std@@8 0000000180043868     MovieFFMpeg:MovieFFMpeg.obj
 0002:00007890       ??_R1A@?0A@EA@ios_base@std@@8 0000000180043890     MovieFFMpeg:MovieFFMpeg.obj
 0002:000078b8       ??_R3ios_base@std@@8       00000001800438b8     MovieFFMpeg:MovieFFMpeg.obj
 0002:000078d0       ??_R2ios_base@std@@8       00000001800438d0     MovieFFMpeg:MovieFFMpeg.obj
 0002:000078e8       ??_R17?0A@EA@?$_Iosb@H@std@@8 00000001800438e8     MovieFFMpeg:MovieFFMpeg.obj
 0002:00007910       ??_R3?$_Iosb@H@std@@8      0000000180043910     MovieFFMpeg:MovieFFMpeg.obj
 0002:00007928       ??_R2?$_Iosb@H@std@@8      0000000180043928     MovieFFMpeg:MovieFFMpeg.obj
 0002:00007938       ??_R1A@?0A@EA@?$_Iosb@H@std@@8 0000000180043938     MovieFFMpeg:MovieFFMpeg.obj
 0002:00007960       ??_R1A@A@3EA@ios_base@std@@8 0000000180043960     MovieFFMpeg:MovieFFMpeg.obj
 0002:00007988       ??_R17A@3EA@?$_Iosb@H@std@@8 0000000180043988     MovieFFMpeg:MovieFFMpeg.obj
 0002:000079b0       ??_R4?$basic_ostringstream@DU?$char_traits@D@std@@V?$allocator@D@2@@std@@6B@ 00000001800439b0     MovieFFMpeg:MovieFFMpeg.obj
 0002:000079d8       ??_R3?$basic_ostringstream@DU?$char_traits@D@std@@V?$allocator@D@2@@std@@8 00000001800439d8     MovieFFMpeg:MovieFFMpeg.obj
 0002:000079f0       ??_R2?$basic_ostringstream@DU?$char_traits@D@std@@V?$allocator@D@2@@std@@8 00000001800439f0     MovieFFMpeg:MovieFFMpeg.obj
 0002:00007a20       ??_R1A@?0A@EA@?$basic_ostringstream@DU?$char_traits@D@std@@V?$allocator@D@2@@std@@8 0000000180043a20     MovieFFMpeg:MovieFFMpeg.obj
 0002:00007a48       ??_R1A@?0A@EA@?$basic_ostream@DU?$char_traits@D@std@@@std@@8 0000000180043a48     MovieFFMpeg:MovieFFMpeg.obj
 0002:00007a70       ??_R3?$basic_ostream@DU?$char_traits@D@std@@@std@@8 0000000180043a70     MovieFFMpeg:MovieFFMpeg.obj
 0002:00007a88       ??_R2?$basic_ostream@DU?$char_traits@D@std@@@std@@8 0000000180043a88     MovieFFMpeg:MovieFFMpeg.obj
 0002:00007ab0       ??_R4FBAttribute@TwkFB@@6B@ 0000000180043ab0     MovieFFMpeg:MovieFFMpeg.obj
 0002:00007ad8       ??_R3FBAttribute@TwkFB@@8  0000000180043ad8     MovieFFMpeg:MovieFFMpeg.obj
 0002:00007af0       ??_R2FBAttribute@TwkFB@@8  0000000180043af0     MovieFFMpeg:MovieFFMpeg.obj
 0002:00007b00       ??_R1A@?0A@EA@FBAttribute@TwkFB@@8 0000000180043b00     MovieFFMpeg:MovieFFMpeg.obj
 0002:00007b28       ??_R4?$TypedFBAttribute@V?$basic_string@DU?$char_traits@D@std@@V?$allocator@D@2@@std@@@TwkFB@@6B@ 0000000180043b28     MovieFFMpeg:MovieFFMpeg.obj
 0002:00007b50       ??_R3?$TypedFBAttribute@V?$basic_string@DU?$char_traits@D@std@@V?$allocator@D@2@@std@@@TwkFB@@8 0000000180043b50     MovieFFMpeg:MovieFFMpeg.obj
 0002:00007b68       ??_R2?$TypedFBAttribute@V?$basic_string@DU?$char_traits@D@std@@V?$allocator@D@2@@std@@@TwkFB@@8 0000000180043b68     MovieFFMpeg:MovieFFMpeg.obj
 0002:00007b80       ??_R1A@?0A@EA@?$TypedFBAttribute@V?$basic_string@DU?$char_traits@D@std@@V?$allocator@D@2@@std@@@TwkFB@@8 0000000180043b80     MovieFFMpeg:MovieFFMpeg.obj
 0002:00007ba8       ??_R4?$TypedFBAttribute@M@TwkFB@@6B@ 0000000180043ba8     MovieFFMpeg:MovieFFMpeg.obj
 0002:00007bd0       ??_R3?$TypedFBAttribute@M@TwkFB@@8 0000000180043bd0     MovieFFMpeg:MovieFFMpeg.obj
 0002:00007be8       ??_R2?$TypedFBAttribute@M@TwkFB@@8 0000000180043be8     MovieFFMpeg:MovieFFMpeg.obj
 0002:00007c00       ??_R1A@?0A@EA@?$TypedFBAttribute@M@TwkFB@@8 0000000180043c00     MovieFFMpeg:MovieFFMpeg.obj
 0002:00007c28       ??_R3Movie@TwkMovie@@8     0000000180043c28     MovieFFMpeg:MovieFFMpeg.obj
 0002:00007c40       ??_R2Movie@TwkMovie@@8     0000000180043c40     MovieFFMpeg:MovieFFMpeg.obj
 0002:00007c50       ??_R1A@?0A@EA@Movie@TwkMovie@@8 0000000180043c50     MovieFFMpeg:MovieFFMpeg.obj
 0002:00007c78       ??_R3MovieReader@TwkMovie@@8 0000000180043c78     MovieFFMpeg:MovieFFMpeg.obj
 0002:00007c90       ??_R2MovieReader@TwkMovie@@8 0000000180043c90     MovieFFMpeg:MovieFFMpeg.obj
 0002:00007ca8       ??_R1A@?0A@EA@MovieReader@TwkMovie@@8 0000000180043ca8     MovieFFMpeg:MovieFFMpeg.obj
 0002:00007cd0       ??_R1A@?0A@EA@MovieIO@TwkMovie@@8 0000000180043cd0     MovieFFMpeg:MovieFFMpeg.obj
 0002:00007cf8       ??_R3MovieIO@TwkMovie@@8   0000000180043cf8     MovieFFMpeg:MovieFFMpeg.obj
 0002:00007d10       ??_R2MovieIO@TwkMovie@@8   0000000180043d10     MovieFFMpeg:MovieFFMpeg.obj
 0002:00007d20       ??_R4MovieFFMpegIO@TwkMovie@@6B@ 0000000180043d20     MovieFFMpeg:MovieFFMpeg.obj
 0002:00007d48       ??_R3MovieFFMpegIO@TwkMovie@@8 0000000180043d48     MovieFFMpeg:MovieFFMpeg.obj
 0002:00007d60       ??_R2MovieFFMpegIO@TwkMovie@@8 0000000180043d60     MovieFFMpeg:MovieFFMpeg.obj
 0002:00007d78       ??_R1A@?0A@EA@MovieFFMpegIO@TwkMovie@@8 0000000180043d78     MovieFFMpeg:MovieFFMpeg.obj
 0002:00007da0       ??_R4MovieFFMpegReader@TwkMovie@@6B@ 0000000180043da0     MovieFFMpeg:MovieFFMpeg.obj
 0002:00007dc8       ??_R3MovieFFMpegReader@TwkMovie@@8 0000000180043dc8     MovieFFMpeg:MovieFFMpeg.obj
 0002:00007de0       ??_R2MovieFFMpegReader@TwkMovie@@8 0000000180043de0     MovieFFMpeg:MovieFFMpeg.obj
 0002:00007e00       ??_R1A@?0A@EA@MovieFFMpegReader@TwkMovie@@8 0000000180043e00     MovieFFMpeg:MovieFFMpeg.obj
 0002:00007e28       ??_R4MovieFFMpegWriter@TwkMovie@@6B@ 0000000180043e28     MovieFFMpeg:MovieFFMpeg.obj
 0002:00007e50       ??_R3MovieFFMpegWriter@TwkMovie@@8 0000000180043e50     MovieFFMpeg:MovieFFMpeg.obj
 0002:00007e68       ??_R2MovieFFMpegWriter@TwkMovie@@8 0000000180043e68     MovieFFMpeg:MovieFFMpeg.obj
 0002:00007e80       ??_R1A@?0A@EA@MovieFFMpegWriter@TwkMovie@@8 0000000180043e80     MovieFFMpeg:MovieFFMpeg.obj
 0002:00007ea8       ??_R1A@?0A@EA@MovieWriter@TwkMovie@@8 0000000180043ea8     MovieFFMpeg:MovieFFMpeg.obj
 0002:00007ed0       ??_R3MovieWriter@TwkMovie@@8 0000000180043ed0     MovieFFMpeg:MovieFFMpeg.obj
 0002:00007ee8       ??_R2MovieWriter@TwkMovie@@8 0000000180043ee8     MovieFFMpeg:MovieFFMpeg.obj
 0002:00007ef8       ??_R4system_error@system@boost@@6B@ 0000000180043ef8     MovieFFMpeg:MovieFFMpeg.obj
 0002:00007f20       ??_R3system_error@system@boost@@8 0000000180043f20     MovieFFMpeg:MovieFFMpeg.obj
 0002:00007f38       ??_R2system_error@system@boost@@8 0000000180043f38     MovieFFMpeg:MovieFFMpeg.obj
 0002:00007f58       ??_R1A@?0A@EA@system_error@system@boost@@8 0000000180043f58     MovieFFMpeg:MovieFFMpeg.obj
 0002:00007f80       ??_R4thread_exception@boost@@6B@ 0000000180043f80     MovieFFMpeg:MovieFFMpeg.obj
 0002:00007fa8       ??_R3thread_exception@boost@@8 0000000180043fa8     MovieFFMpeg:MovieFFMpeg.obj
 0002:00007fc0       ??_R2thread_exception@boost@@8 0000000180043fc0     MovieFFMpeg:MovieFFMpeg.obj
 0002:00007fe8       ??_R1A@?0A@EA@thread_exception@boost@@8 0000000180043fe8     MovieFFMpeg:MovieFFMpeg.obj
 0002:00008010       ??_R4thread_resource_error@boost@@6B@ 0000000180044010     MovieFFMpeg:MovieFFMpeg.obj
 0002:00008038       ??_R3thread_resource_error@boost@@8 0000000180044038     MovieFFMpeg:MovieFFMpeg.obj
 0002:00008050       ??_R2thread_resource_error@boost@@8 0000000180044050     MovieFFMpeg:MovieFFMpeg.obj
 0002:00008080       ??_R1A@?0A@EA@thread_resource_error@boost@@8 0000000180044080     MovieFFMpeg:MovieFFMpeg.obj
 0002:000080a8       ??_R4?$error_info_injector@Vthread_resource_error@boost@@@exception_detail@boost@@6Bthread_resource_error@2@@ 00000001800440a8     MovieFFMpeg:MovieFFMpeg.obj
 0002:000080d0       ??_R3?$error_info_injector@Vthread_resource_error@boost@@@exception_detail@boost@@8 00000001800440d0     MovieFFMpeg:MovieFFMpeg.obj
 0002:000080e8       ??_R2?$error_info_injector@Vthread_resource_error@boost@@@exception_detail@boost@@8 00000001800440e8     MovieFFMpeg:MovieFFMpeg.obj
 0002:00008128       ??_R1A@?0A@EA@?$error_info_injector@Vthread_resource_error@boost@@@exception_detail@boost@@8 0000000180044128     MovieFFMpeg:MovieFFMpeg.obj
 0002:00008150       ??_R1EI@?0A@EA@exception@boost@@8 0000000180044150     MovieFFMpeg:MovieFFMpeg.obj
 0002:00008178       ??_R4?$error_info_injector@Vthread_resource_error@boost@@@exception_detail@boost@@6Bexception@2@@ 0000000180044178     MovieFFMpeg:MovieFFMpeg.obj
 0002:000081a0       ??_R4?$clone_impl@U?$error_info_injector@Vthread_resource_error@boost@@@exception_detail@boost@@@exception_detail@boost@@6Bthread_resource_error@2@@ 00000001800441a0     MovieFFMpeg:MovieFFMpeg.obj
 0002:000081c8       ??_R3?$clone_impl@U?$error_info_injector@Vthread_resource_error@boost@@@exception_detail@boost@@@exception_detail@boost@@8 00000001800441c8     MovieFFMpeg:MovieFFMpeg.obj
 0002:000081e0       ??_R2?$clone_impl@U?$error_info_injector@Vthread_resource_error@boost@@@exception_detail@boost@@@exception_detail@boost@@8 00000001800441e0     MovieFFMpeg:MovieFFMpeg.obj
 0002:00008230       ??_R1A@?0A@EA@?$clone_impl@U?$error_info_injector@Vthread_resource_error@boost@@@exception_detail@boost@@@exception_detail@boost@@8 0000000180044230     MovieFFMpeg:MovieFFMpeg.obj
 0002:00008258       ??_R1A@HA@3FA@clone_base@exception_detail@boost@@8 0000000180044258     MovieFFMpeg:MovieFFMpeg.obj
 0002:00008280       ??_R4?$clone_impl@U?$error_info_injector@Vthread_resource_error@boost@@@exception_detail@boost@@@exception_detail@boost@@6Bexception@2@@ 0000000180044280     MovieFFMpeg:MovieFFMpeg.obj
 0002:000082a8       ??_R4?$clone_impl@U?$error_info_injector@Vthread_resource_error@boost@@@exception_detail@boost@@@exception_detail@boost@@6B@ 00000001800442a8     MovieFFMpeg:MovieFFMpeg.obj
 0002:000082d0       ??_R4type_info@@6B@        00000001800442d0     MSVCRT:std_type_info_static.obj
 0002:000082f8       ??_R3type_info@@8          00000001800442f8     MSVCRT:std_type_info_static.obj
 0002:00008310       ??_R2type_info@@8          0000000180044310     MSVCRT:std_type_info_static.obj
 0002:00008320       ??_R1A@?0A@EA@type_info@@8 0000000180044320     MSVCRT:std_type_info_static.obj
 0002:00008348       ??_R4bad_alloc@std@@6B@    0000000180044348     MSVCRT:throw_bad_alloc.obj
 0002:00008370       ??_R3bad_alloc@std@@8      0000000180044370     MSVCRT:throw_bad_alloc.obj
 0002:00008388       ??_R2bad_alloc@std@@8      0000000180044388     MSVCRT:throw_bad_alloc.obj
 0002:000083a0       ??_R1A@?0A@EA@bad_alloc@std@@8 00000001800443a0     MSVCRT:throw_bad_alloc.obj
 0002:000083c8       ??_R4bad_array_new_length@std@@6B@ 00000001800443c8     MSVCRT:throw_bad_alloc.obj
 0002:000083f0       ??_R3bad_array_new_length@std@@8 00000001800443f0     MSVCRT:throw_bad_alloc.obj
 0002:00008408       ??_R2bad_array_new_length@std@@8 0000000180044408     MSVCRT:throw_bad_alloc.obj
 0002:00008428       ??_R1A@?0A@EA@bad_array_new_length@std@@8 0000000180044428     MSVCRT:throw_bad_alloc.obj
 0002:00008798       __rtc_iaa                  0000000180044798     MSVCRT:initsect.obj
 0002:000087a0       __rtc_izz                  00000001800447a0     MSVCRT:initsect.obj
 0002:000087a8       __rtc_taa                  00000001800447a8     MSVCRT:initsect.obj
 0002:000087b0       __rtc_tzz                  00000001800447b0     MSVCRT:initsect.obj
 0002:000087b8       _tls_start                 00000001800447b8     MSVCRT:tlssup.obj
 0002:000087bc       _Init_thread_epoch         00000001800447bc     MSVCRT:thread_safe_statics.obj
 0002:000087c0       _tls_end                   00000001800447c0     MSVCRT:tlssup.obj
 0002:00011670       _CT??_R0?AVruntime_error@std@@@8??0runtime_error@std@@QEAA@AEBV01@@Z24 000000018004d670     init.obj
 0002:00011698       _CT??_R0?AVexception@std@@@8??0exception@std@@QEAA@AEBV01@@Z24 000000018004d698     init.obj
 0002:000116c0       _CT??_R0?AVbad_cast@std@@@8??0bad_cast@std@@QEAA@AEBV01@@Z24 000000018004d6c0     init.obj
 0002:000116e8       _TI10?AV?$clone_impl@U?$error_info_injector@Vinvalid_option_value@program_options@boost@@@exception_detail@boost@@@exception_detail@boost@@ 000000018004d6e8     init.obj
 0002:00011710       _CTA10?AV?$clone_impl@U?$error_info_injector@Vinvalid_option_value@program_options@boost@@@exception_detail@boost@@@exception_detail@boost@@ 000000018004d710     init.obj
 0002:00011768       _CT??_R0?AV?$clone_impl@U?$error_info_injector@Vinvalid_option_value@program_options@boost@@@exception_detail@boost@@@exception_detail@boost@@@8??0?$clone_impl@U?$error_info_injector@Vinvalid_option_value@program_options@boost@@@exception_detail@boost@@@exception_detail@boost@@QEAA@AEBV012@@Z200 000000018004d768     init.obj
 0002:00011790       _CT??_R0?AU?$error_info_injector@Vinvalid_option_value@program_options@boost@@@exception_detail@boost@@@8??0?$error_info_injector@Vinvalid_option_value@program_options@boost@@@exception_detail@boost@@QEAA@AEBU012@@Z176 000000018004d790     init.obj
 0002:000117b8       _CT??_R0?AVinvalid_option_value@program_options@boost@@@8??0invalid_option_value@program_options@boost@@QEAA@AEBV012@@Z136 000000018004d7b8     init.obj
 0002:000117e0       _CT??_R0?AVvalidation_error@program_options@boost@@@8??0validation_error@program_options@boost@@QEAA@AEBV012@@Z136 000000018004d7e0     init.obj
 0002:00011808       _CT??_R0?AVerror_with_option_name@program_options@boost@@@8??0error_with_option_name@program_options@boost@@QEAA@AEBV012@@Z128 000000018004d808     init.obj
 0002:00011830       _CT??_R0?AVerror@program_options@boost@@@8??0error@program_options@boost@@QEAA@AEBV012@@Z24 000000018004d830     init.obj
 0002:00011858       _CT??_R0?AVlogic_error@std@@@8??0logic_error@std@@QEAA@AEBV01@@Z24 000000018004d858     init.obj
 0002:00011880       _CT??_R0?AVexception@boost@@@8??0exception@boost@@QEAA@AEBV01@@Z40136 000000018004d880     init.obj
 0002:000118a8       _CT??_R0?AVclone_base@exception_detail@boost@@@8??0clone_base@exception_detail@boost@@QEAA@AEBV012@@Z801764 000000018004d8a8     init.obj
 0002:000118d0       _TI7?AV?$clone_impl@U?$error_info_injector@Vbad_lexical_cast@boost@@@exception_detail@boost@@@exception_detail@boost@@ 000000018004d8d0     init.obj
 0002:000118f0       _CTA7?AV?$clone_impl@U?$error_info_injector@Vbad_lexical_cast@boost@@@exception_detail@boost@@@exception_detail@boost@@ 000000018004d8f0     init.obj
 0002:00011930       _CT??_R0?AV?$clone_impl@U?$error_info_injector@Vbad_lexical_cast@boost@@@exception_detail@boost@@@exception_detail@boost@@@8??0?$clone_impl@U?$error_info_injector@Vbad_lexical_cast@boost@@@exception_detail@boost@@@exception_detail@boost@@QEAA@AEBV012@@Z104 000000018004d930     init.obj
 0002:00011958       _CT??_R0?AU?$error_info_injector@Vbad_lexical_cast@boost@@@exception_detail@boost@@@8??0?$error_info_injector@Vbad_lexical_cast@boost@@@exception_detail@boost@@QEAA@AEBU012@@Z80 000000018004d958     init.obj
 0002:00011980       _CT??_R0?AVbad_lexical_cast@boost@@@8??0bad_lexical_cast@boost@@QEAA@AEBV01@@Z40 000000018004d980     init.obj
 0002:000119a8       _CT??_R0?AVexception@boost@@@8??0exception@boost@@QEAA@AEBV01@@Z4040 000000018004d9a8     init.obj
 0002:000119d0       _CT??_R0?AVclone_base@exception_detail@boost@@@8??0clone_base@exception_detail@boost@@QEAA@AEBV012@@Z80804 000000018004d9d0     init.obj
 0002:000119f8       _TI9?AV?$clone_impl@U?$error_info_injector@Vvalidation_error@program_options@boost@@@exception_detail@boost@@@exception_detail@boost@@ 000000018004d9f8     init.obj
 0002:00011a20       _CTA9?AV?$clone_impl@U?$error_info_injector@Vvalidation_error@program_options@boost@@@exception_detail@boost@@@exception_detail@boost@@ 000000018004da20     init.obj
 0002:00011a70       _CT??_R0?AV?$clone_impl@U?$error_info_injector@Vvalidation_error@program_options@boost@@@exception_detail@boost@@@exception_detail@boost@@@8??0?$clone_impl@U?$error_info_injector@Vvalidation_error@program_options@boost@@@exception_detail@boost@@@exception_detail@boost@@QEAA@AEBV012@@Z200 000000018004da70     init.obj
 0002:00011a98       _CT??_R0?AU?$error_info_injector@Vvalidation_error@program_options@boost@@@exception_detail@boost@@@8??0?$error_info_injector@Vvalidation_error@program_options@boost@@@exception_detail@boost@@QEAA@AEBU012@@Z176 000000018004da98     init.obj
 0002:00011ac0       _CT??_R0?AVsystem_error@system@boost@@@8??0system_error@system@boost@@QEAA@AEBV012@@Z72 000000018004dac0     MovieFFMpeg:MovieFFMpeg.obj
 0002:00011ae8       _TI2?AVException@TwkExc@@  000000018004dae8     MovieFFMpeg:MovieFFMpeg.obj
 0002:00011b08       _CTA2?AVException@TwkExc@@ 000000018004db08     MovieFFMpeg:MovieFFMpeg.obj
 0002:00011b20       _CT??_R0?AVException@TwkExc@@@8??0Exception@TwkExc@@QEAA@AEBV01@@Z64 000000018004db20     MovieFFMpeg:MovieFFMpeg.obj
 0002:00011b48       _TI2?AVbad_cast@std@@      000000018004db48     MovieFFMpeg:MovieFFMpeg.obj
 0002:00011b68       _CTA2?AVbad_cast@std@@     000000018004db68     MovieFFMpeg:MovieFFMpeg.obj
 0002:00011b80       _TI9?AV?$clone_impl@U?$error_info_injector@Vthread_resource_error@boost@@@exception_detail@boost@@@exception_detail@boost@@ 000000018004db80     MovieFFMpeg:MovieFFMpeg.obj
 0002:00011ba0       _CTA9?AV?$clone_impl@U?$error_info_injector@Vthread_resource_error@boost@@@exception_detail@boost@@@exception_detail@boost@@ 000000018004dba0     MovieFFMpeg:MovieFFMpeg.obj
 0002:00011bf0       _CT??_R0?AV?$clone_impl@U?$error_info_injector@Vthread_resource_error@boost@@@exception_detail@boost@@@exception_detail@boost@@@8??0?$clone_impl@U?$error_info_injector@Vthread_resource_error@boost@@@exception_detail@boost@@@exception_detail@boost@@QEAA@AEBV012@@Z136 000000018004dbf0     MovieFFMpeg:MovieFFMpeg.obj
 0002:00011c18       _CT??_R0?AU?$error_info_injector@Vthread_resource_error@boost@@@exception_detail@boost@@@8??0?$error_info_injector@Vthread_resource_error@boost@@@exception_detail@boost@@QEAA@AEBU012@@Z112 000000018004dc18     MovieFFMpeg:MovieFFMpeg.obj
 0002:00011c40       _CT??_R0?AVthread_resource_error@boost@@@8??0thread_resource_error@boost@@QEAA@AEBV01@@Z72 000000018004dc40     MovieFFMpeg:MovieFFMpeg.obj
 0002:00011c68       _CT??_R0?AVthread_exception@boost@@@8??0thread_exception@boost@@QEAA@AEBV01@@Z72 000000018004dc68     MovieFFMpeg:MovieFFMpeg.obj
 0002:00011c90       _CT??_R0?AVexception@boost@@@8??0exception@boost@@QEAA@AEBV01@@Z4072 000000018004dc90     MovieFFMpeg:MovieFFMpeg.obj
 0002:00011cb8       _CT??_R0?AVclone_base@exception_detail@boost@@@8??0clone_base@exception_detail@boost@@QEAA@AEBV012@@Z801124 000000018004dcb8     MovieFFMpeg:MovieFFMpeg.obj
 0002:00011ce0       _TI2?AVbad_alloc@std@@     000000018004dce0     MSVCRT:throw_bad_alloc.obj
 0002:00011d00       _CTA2?AVbad_alloc@std@@    000000018004dd00     MSVCRT:throw_bad_alloc.obj
 0002:00011d18       _CT??_R0?AVbad_alloc@std@@@8??0bad_alloc@std@@QEAA@AEBV01@@Z24 000000018004dd18     MSVCRT:throw_bad_alloc.obj
 0002:00011d40       _TI3?AVbad_array_new_length@std@@ 000000018004dd40     MSVCRT:throw_bad_alloc.obj
 0002:00011d60       _CTA3?AVbad_array_new_length@std@@ 000000018004dd60     MSVCRT:throw_bad_alloc.obj
 0002:00011d80       _CT??_R0?AVbad_array_new_length@std@@@8??0bad_array_new_length@std@@QEAA@AEBV01@@Z24 000000018004dd80     MSVCRT:throw_bad_alloc.obj
 0002:00011e24       __IMPORT_DESCRIPTOR_MovieAPR 000000018004de24     MovieAPR:MovieAPR.dll
 0002:00011e38       __IMPORT_DESCRIPTOR_mp4v2  000000018004de38     mp4v2:mp4v2.dll
 0002:00011e4c       __IMPORT_DESCRIPTOR_TwkMovie 000000018004de4c     TwkMovie:TwkMovie.dll
 0002:00011e60       __IMPORT_DESCRIPTOR_TwkExc 000000018004de60     TwkExc:TwkExc.dll
 0002:00011e74       __IMPORT_DESCRIPTOR_TwkFB  000000018004de74     TwkFB:TwkFB.dll
 0002:00011e88       __IMPORT_DESCRIPTOR_TwkUtil 000000018004de88     TwkUtil:TwkUtil.dll
 0002:00011e9c       __IMPORT_DESCRIPTOR_TwkAudio 000000018004de9c     TwkAudio:TwkAudio.dll
 0002:00011eb0       __IMPORT_DESCRIPTOR_boost_system-vc141-mt-x64-1_66 000000018004deb0     boost_system-vc141-mt-x64-1_66:boost_system-vc141-mt-x64-1_66.dll
 0002:00011ec4       __IMPORT_DESCRIPTOR_boost_program_options-vc141-mt-x64-1_66 000000018004dec4     boost_program_options-vc141-mt-x64-1_66:boost_program_options-vc141-mt-x64-1_66.dll
 0002:00011ed8       __IMPORT_DESCRIPTOR_boost_filesystem-vc141-mt-x64-1_66 000000018004ded8     boost_filesystem-vc141-mt-x64-1_66:boost_filesystem-vc141-mt-x64-1_66.dll
 0002:00011eec       __IMPORT_DESCRIPTOR_nedmalloc 000000018004deec     nedmalloc:nedmalloc.dll
 0002:00011f00       __IMPORT_DESCRIPTOR_libavcodec 000000018004df00     libavcodec:libavcodec.dll
 0002:00011f14       __IMPORT_DESCRIPTOR_libavformat 000000018004df14     libavformat:libavformat.dll
 0002:00011f28       __IMPORT_DESCRIPTOR_libavutil 000000018004df28     libavutil:libavutil.dll
 0002:00011f3c       __IMPORT_DESCRIPTOR_libswscale 000000018004df3c     libswscale:libswscale.dll
 0002:00011f50       __IMPORT_DESCRIPTOR_KERNEL32 000000018004df50     kernel32:KERNEL32.dll
 0002:00011f64       __IMPORT_DESCRIPTOR_MSVCP140 000000018004df64     msvcprt:MSVCP140.dll
 0002:00011f78       __IMPORT_DESCRIPTOR_VCRUNTIME140 000000018004df78     vcruntime:VCRUNTIME140.dll
 0002:00011f8c       __IMPORT_DESCRIPTOR_api-ms-win-crt-runtime-l1-1-0 000000018004df8c     ucrt:api-ms-win-crt-runtime-l1-1-0.dll
 0002:00011fa0       __IMPORT_DESCRIPTOR_api-ms-win-crt-heap-l1-1-0 000000018004dfa0     ucrt:api-ms-win-crt-heap-l1-1-0.dll
 0002:00011fb4       __IMPORT_DESCRIPTOR_api-ms-win-crt-environment-l1-1-0 000000018004dfb4     ucrt:api-ms-win-crt-environment-l1-1-0.dll
 0002:00011fc8       __IMPORT_DESCRIPTOR_api-ms-win-crt-stdio-l1-1-0 000000018004dfc8     ucrt:api-ms-win-crt-stdio-l1-1-0.dll
 0002:00011fdc       __IMPORT_DESCRIPTOR_api-ms-win-crt-locale-l1-1-0 000000018004dfdc     ucrt:api-ms-win-crt-locale-l1-1-0.dll
 0002:00011ff0       __IMPORT_DESCRIPTOR_api-ms-win-crt-convert-l1-1-0 000000018004dff0     ucrt:api-ms-win-crt-convert-l1-1-0.dll
 0002:00012004       __IMPORT_DESCRIPTOR_api-ms-win-crt-string-l1-1-0 000000018004e004     ucrt:api-ms-win-crt-string-l1-1-0.dll
 0002:00012018       __IMPORT_DESCRIPTOR_api-ms-win-crt-math-l1-1-0 000000018004e018     ucrt:api-ms-win-crt-math-l1-1-0.dll
 0002:0001202c       __NULL_IMPORT_DESCRIPTOR   000000018004e02c     MovieAPR:MovieAPR.dll
 0003:00000030       ?ff_apple_prores_decoder@@3UAVCodec@@A 0000000180054030     init.obj
 0003:00000130       ?slowRandomAccessCodecsArray@?A0xaa42c127@TwkMovie@@3PAPEBDA 0000000180054130     MovieFFMpeg:MovieFFMpeg.obj
 0003:00000280       ?supportedEncodingCodecsArray@?A0xaa42c127@TwkMovie@@3PAPEBDA 0000000180054280     MovieFFMpeg:MovieFFMpeg.obj
 0003:000002b0       ?metadataFieldsArray@?A0xaa42c127@TwkMovie@@3PAPEBDA 00000001800542b0     MovieFFMpeg:MovieFFMpeg.obj
 0003:00000360       __scrt_native_dllmain_reason 0000000180054360     MSVCRT:utility.obj
 0003:00000364       _Init_global_epoch         0000000180054364     MSVCRT:thread_safe_statics.obj
 0003:00000370       __security_cookie_complement 0000000180054370     MSVCRT:gs_cookie.obj
 0003:00000378       __security_cookie          0000000180054378     MSVCRT:gs_cookie.obj
 0003:00000380       _fltused                   0000000180054380     MSVCRT:fltused.obj
 0003:00000384       __do_unsigned_char_lconv_initialization 0000000180054384     MSVCRT:lconv_unsigned_char.obj
 0003:00000388       __isa_available            0000000180054388     MSVCRT:cpu_disp.obj
 0003:0000038c       __isa_enabled              000000018005438c     MSVCRT:cpu_disp.obj
 0003:00000390       __memcpy_nt_iters          0000000180054390     MSVCRT:cpu_disp.obj
 0003:000003a0       __scrt_ucrt_dll_is_in_use  00000001800543a0     MSVCRT:ucrt_stubs.obj
 0003:000003b0       ??_R0?AVruntime_error@std@@@8 00000001800543b0     init.obj
 0003:000003d8       ??_R0?AVexception@std@@@8  00000001800543d8     init.obj
 0003:00000400       ??_R0?AVfailure@ios_base@std@@@8 0000000180054400     init.obj
 0003:00000430       ??_R0X@8                   0000000180054430     init.obj
 0003:00000448       ??_R0?AVbad_cast@std@@@8   0000000180054448     init.obj
 0003:00000470       ??_R0N@8                   0000000180054470     init.obj
 0003:00000490       ??_R0?AV?$basic_string@DU?$char_traits@D@std@@V?$allocator@D@2@@std@@@8 0000000180054490     init.obj
 0003:000004e8       ??_R0H@8                   00000001800544e8     init.obj
 0003:00000500       ??_R0?AVexception@boost@@@8 0000000180054500     init.obj
 0003:00000528       ??_R0?AVclone_base@exception_detail@boost@@@8 0000000180054528     init.obj
 0003:00000560       ??_R0?AVbad_lexical_cast@boost@@@8 0000000180054560     init.obj
 0003:00000590       ??_R0?AV?$clone_impl@U?$error_info_injector@Vinvalid_option_value@program_options@boost@@@exception_detail@boost@@@exception_detail@boost@@@8 0000000180054590     init.obj
 0003:00000630       ??_R0?AU?$error_info_injector@Vinvalid_option_value@program_options@boost@@@exception_detail@boost@@@8 0000000180054630     init.obj
 0003:000006b0       ??_R0?AVinvalid_option_value@program_options@boost@@@8 00000001800546b0     init.obj
 0003:000006f8       ??_R0?AVvalidation_error@program_options@boost@@@8 00000001800546f8     init.obj
 0003:00000740       ??_R0?AVerror_with_option_name@program_options@boost@@@8 0000000180054740     init.obj
 0003:00000788       ??_R0?AVerror@program_options@boost@@@8 0000000180054788     init.obj
 0003:000007c0       ??_R0?AVlogic_error@std@@@8 00000001800547c0     init.obj
 0003:000007f0       ??_R0?AV?$clone_impl@U?$error_info_injector@Vbad_lexical_cast@boost@@@exception_detail@boost@@@exception_detail@boost@@@8 00000001800547f0     init.obj
 0003:00000880       ??_R0?AU?$error_info_injector@Vbad_lexical_cast@boost@@@exception_detail@boost@@@8 0000000180054880     init.obj
 0003:000008e0       ??_R0?AV?$clone_impl@U?$error_info_injector@Vvalidation_error@program_options@boost@@@exception_detail@boost@@@exception_detail@boost@@@8 00000001800548e0     init.obj
 0003:00000980       ??_R0?AU?$error_info_injector@Vvalidation_error@program_options@boost@@@exception_detail@boost@@@8 0000000180054980     init.obj
 0003:000009f0       ??_R0?AU?$token_finderF@U?$is_any_ofF@D@detail@algorithm@boost@@@detail@algorithm@boost@@@8 00000001800549f0     init.obj
 0003:00000a60       ??_R0?AV?$basic_stringbuf@DU?$char_traits@D@std@@V?$allocator@D@2@@std@@@8 0000000180054a60     init.obj
 0003:00000ac0       ??_R0?AV?$basic_streambuf@DU?$char_traits@D@std@@@std@@@8 0000000180054ac0     init.obj
 0003:00000b08       ??_R0?AVfacet@locale@std@@@8 0000000180054b08     init.obj
 0003:00000b30       ??_R0?AV_Facet_base@std@@@8 0000000180054b30     init.obj
 0003:00000b58       ??_R0?AU_Crt_new_delete@std@@@8 0000000180054b58     init.obj
 0003:00000b88       ??_R0?AV?$numpunct@D@std@@@8 0000000180054b88     init.obj
 0003:00000bb0       ??_R0?AVplaceholder@any@boost@@@8 0000000180054bb0     init.obj
 0003:00000be0       ??_R0?AVtyped_value_base@program_options@boost@@@8 0000000180054be0     init.obj
 0003:00000c20       ??_R0?AV?$typed_value@HD@program_options@boost@@@8 0000000180054c20     init.obj
 0003:00000c60       ??_R0?AV?$value_semantic_codecvt_helper@D@program_options@boost@@@8 0000000180054c60     init.obj
 0003:00000cb0       ??_R0?AVvalue_semantic@program_options@boost@@@8 0000000180054cb0     init.obj
 0003:00000cf0       ??_R0?AV?$typed_value@V?$basic_string@DU?$char_traits@D@std@@V?$allocator@D@2@@std@@D@program_options@boost@@@8 0000000180054cf0     init.obj
 0003:00000d70       ??_R0?AV?$typed_value@ND@program_options@boost@@@8 0000000180054d70     init.obj
 0003:00000db0       ??_R0?AV?$holder@N@any@boost@@@8 0000000180054db0     init.obj
 0003:00000de0       ??_R0?AV?$holder@V?$basic_string@DU?$char_traits@D@std@@V?$allocator@D@2@@std@@@any@boost@@@8 0000000180054de0     init.obj
 0003:00000e48       ??_R0?AV?$holder@H@any@boost@@@8 0000000180054e48     init.obj
 0003:00000e80       ??_R0?AV?$basic_unlockedbuf@V?$basic_stringbuf@DU?$char_traits@D@std@@V?$allocator@D@2@@std@@D@detail@boost@@@8 0000000180054e80     init.obj
 0003:00000f00       ??_R0?AV?$basic_pointerbuf@DV?$basic_stringbuf@DU?$char_traits@D@std@@V?$allocator@D@2@@std@@@detail@boost@@@8 0000000180054f00     init.obj
 0003:00000f80       ??_R0?AV?$basic_unlockedbuf@V?$basic_streambuf@DU?$char_traits@D@std@@@std@@D@detail@boost@@@8 0000000180054f80     init.obj
 0003:00000ff0       ??_R0?AV?$basic_pointerbuf@DV?$basic_streambuf@DU?$char_traits@D@std@@@std@@@detail@boost@@@8 0000000180054ff0     init.obj
 0003:00001058       ??_R0?AVsystem_error@system@boost@@@8 0000000180055058     MovieFFMpeg:MovieFFMpeg.obj
 0003:00001088       ??_R0?AVException@TwkExc@@@8 0000000180055088     MovieFFMpeg:MovieFFMpeg.obj
 0003:000010b0       ??_R0?AVFBAttribute@TwkFB@@@8 00000001800550b0     MovieFFMpeg:MovieFFMpeg.obj
 0003:000010d8       ??_R0?AV?$TypedFBAttribute@M@TwkFB@@@8 00000001800550d8     MovieFFMpeg:MovieFFMpeg.obj
 0003:00001110       ??_R0?AV?$clone_impl@U?$error_info_injector@Vthread_resource_error@boost@@@exception_detail@boost@@@exception_detail@boost@@@8 0000000180055110     MovieFFMpeg:MovieFFMpeg.obj
 0003:000011a0       ??_R0?AU?$error_info_injector@Vthread_resource_error@boost@@@exception_detail@boost@@@8 00000001800551a0     MovieFFMpeg:MovieFFMpeg.obj
 0003:00001208       ??_R0?AVthread_resource_error@boost@@@8 0000000180055208     MovieFFMpeg:MovieFFMpeg.obj
 0003:00001240       ??_R0?AVthread_exception@boost@@@8 0000000180055240     MovieFFMpeg:MovieFFMpeg.obj
 0003:00001270       ??_R0?AV?$TypedFBAttribute@V?$basic_string@DU?$char_traits@D@std@@V?$allocator@D@2@@std@@@TwkFB@@@8 0000000180055270     MovieFFMpeg:MovieFFMpeg.obj
 0003:000012e0       ??_R0?AV?$basic_istringstream@DU?$char_traits@D@std@@V?$allocator@D@2@@std@@@8 00000001800552e0     MovieFFMpeg:MovieFFMpeg.obj
 0003:00001340       ??_R0?AV?$basic_istream@DU?$char_traits@D@std@@@std@@@8 0000000180055340     MovieFFMpeg:MovieFFMpeg.obj
 0003:00001388       ??_R0?AV?$basic_ios@DU?$char_traits@D@std@@@std@@@8 0000000180055388     MovieFFMpeg:MovieFFMpeg.obj
 0003:000013c8       ??_R0?AVios_base@std@@@8   00000001800553c8     MovieFFMpeg:MovieFFMpeg.obj
 0003:000013f0       ??_R0?AV?$_Iosb@H@std@@@8  00000001800553f0     MovieFFMpeg:MovieFFMpeg.obj
 0003:00001420       ??_R0?AV?$basic_ostringstream@DU?$char_traits@D@std@@V?$allocator@D@2@@std@@@8 0000000180055420     MovieFFMpeg:MovieFFMpeg.obj
 0003:00001480       ??_R0?AV?$basic_ostream@DU?$char_traits@D@std@@@std@@@8 0000000180055480     MovieFFMpeg:MovieFFMpeg.obj
 0003:000014c8       ??_R0?AVMovie@TwkMovie@@@8 00000001800554c8     MovieFFMpeg:MovieFFMpeg.obj
 0003:000014f0       ??_R0?AVMovieReader@TwkMovie@@@8 00000001800554f0     MovieFFMpeg:MovieFFMpeg.obj
 0003:00001520       ??_R0?AVMovieIO@TwkMovie@@@8 0000000180055520     MovieFFMpeg:MovieFFMpeg.obj
 0003:00001548       ??_R0?AVMovieFFMpegIO@TwkMovie@@@8 0000000180055548     MovieFFMpeg:MovieFFMpeg.obj
 0003:00001578       ??_R0?AVMovieFFMpegReader@TwkMovie@@@8 0000000180055578     MovieFFMpeg:MovieFFMpeg.obj
 0003:000015b0       ??_R0?AVMovieFFMpegWriter@TwkMovie@@@8 00000001800555b0     MovieFFMpeg:MovieFFMpeg.obj
 0003:000015e8       ??_R0?AVMovieWriter@TwkMovie@@@8 00000001800555e8     MovieFFMpeg:MovieFFMpeg.obj
 0003:00001618       ??_R0?AVtype_info@@@8      0000000180055618     MSVCRT:std_type_info_static.obj
 0003:00001638       ??_R0?AVbad_alloc@std@@@8  0000000180055638     MSVCRT:throw_bad_alloc.obj
 0003:00001660       ??_R0?AVbad_array_new_length@std@@@8 0000000180055660     MSVCRT:throw_bad_alloc.obj
 0003:00001690       ?_OptionsStorage@?1??__local_stdio_printf_options@@9@4_KA 0000000180055690     init.obj
 0003:000016a0       ?_Psave@?$_Facetptr@V?$numpunct@D@std@@@std@@2PEBVfacet@locale@2@EB 00000001800556a0     init.obj
 0003:000016a8       ?empty@?1???$get_single_string@D@validators@program_options@boost@@YAAEBV?$basic_string@DU?$char_traits@D@std@@V?$allocator@D@2@@std@@AEBV?$vector@V?$basic_string@DU?$char_traits@D@std@@V?$allocator@D@2@@std@@V?$allocator@V?$basic_string@DU?$char_traits@D@std@@V?$allocator@D@2@@std@@@2@@5@_N@Z@4V45@A 00000001800556a8     init.obj
 0003:000016c8       ?$TSS0@?1???$get_single_string@D@validators@program_options@boost@@YAAEBV?$basic_string@DU?$char_traits@D@std@@V?$allocator@D@2@@std@@AEBV?$vector@V?$basic_string@DU?$char_traits@D@std@@V?$allocator@D@2@@std@@V?$allocator@V?$basic_string@DU?$char_traits@D@std@@V?$allocator@D@2@@std@@@2@@5@_N@Z@4HA 00000001800556c8     init.obj
 0003:000016d0       ?globalContextPool@TwkMovie@@3PEAVContextPool@1@EA 00000001800556d0     MovieFFMpeg:MovieFFMpeg.obj
 0003:000016d8       ?_isClone@CloneLock@TwkMovie@@2_NA 00000001800556d8     MovieFFMpeg:MovieFFMpeg.obj
 0003:000016e0       ?_OptionsStorage@?1??__local_stdio_scanf_options@@9@4_KA 00000001800556e0     MovieFFMpeg:MovieFFMpeg.obj
 0003:000016e8       ?_Psave@?$_Facetptr@V?$ctype@D@std@@@std@@2PEBVfacet@locale@2@EB 00000001800556e8     MovieFFMpeg:MovieFFMpeg.obj
 0003:00001700       __scrt_current_native_startup_state 0000000180055700     MSVCRT:utility.obj
 0003:00001708       __scrt_native_startup_lock 0000000180055708     MSVCRT:utility.obj
 0003:00001790       _tls_index                 0000000180055790     MSVCRT:tlssup.obj
 0003:00001798       __favor                    0000000180055798     MSVCRT:cpu_disp.obj
 0003:0000179c       __scrt_debugger_hook_flag  000000018005579c     MSVCRT:utility_desktop.obj
 0003:00001d10       ?__type_info_root_node@@3U__type_info_node@@A 0000000180055d10     MSVCRT:tncleanup.obj
 0003:00001d20       __dyn_tls_init_callback    0000000180055d20     <common>

 entry point at        0001:00036470

 Static symbols

 0001:00000000       ??__Eff_apple_prores_decoder@@YAXXZ 0000000180001000 f   init.obj
 0001:00000060       ??__E_Fac_tidy_reg@std@@YAXXZ 0000000180001060 f   msvcprt:locale0_implib.obj
 0001:0001f530       ?avErr2Str@?A0xaa42c127@TwkMovie@@YA?AV?$basic_string@DU?$char_traits@D@std@@V?$allocator@D@2@@std@@H@Z 0000000180020530 f   MovieFFMpeg:MovieFFMpeg.obj
 0001:0001f5c0       ?avLogCallback@?A0xaa42c127@TwkMovie@@YAXPEAXHPEBDPEAD@Z 00000001800205c0 f   MovieFFMpeg:MovieFFMpeg.obj
 0001:00020ae0       ?codecHasSlowAccess@?A0xaa42c127@TwkMovie@@YA_NV?$basic_string@DU?$char_traits@D@std@@V?$allocator@D@2@@std@@@Z 0000000180021ae0 f   MovieFFMpeg:MovieFFMpeg.obj
 0001:000219f8       $LN1628                    00000001800229f8     MovieFFMpeg:MovieFFMpeg.obj
 0001:0002392c       $LN12                      000000018002492c     MovieFFMpeg:MovieFFMpeg.obj
 0001:00024b4c       $LN1512                    0000000180025b4c     MovieFFMpeg:MovieFFMpeg.obj
 0001:00024b58       $LN1511                    0000000180025b58     MovieFFMpeg:MovieFFMpeg.obj
 0001:00026380       $LN422                     0000000180027380     MovieFFMpeg:MovieFFMpeg.obj
 0001:000268d0       ?findBestTS@?A0xaa42c127@TwkMovie@@YA_J_JNPEAUVideoTrack@2@_N@Z 00000001800278d0 f   MovieFFMpeg:MovieFFMpeg.obj
 0001:000277f0       ?getBestRVFormat@?A0xaa42c127@TwkMovie@@YA?AW4AVPixelFormat@@W43@@Z 00000001800287f0 f   MovieFFMpeg:MovieFFMpeg.obj
 0001:00029c84       $LN2362                    000000018002ac84     MovieFFMpeg:MovieFFMpeg.obj
 0001:00029ca0       $LN2361                    000000018002aca0     MovieFFMpeg:MovieFFMpeg.obj
 0001:0002deb0       ?isMetadataField@?A0xaa42c127@TwkMovie@@YA_NV?$basic_string@DU?$char_traits@D@std@@V?$allocator@D@2@@std@@@Z 000000018002eeb0 f   MovieFFMpeg:MovieFFMpeg.obj
 0001:0002fe70       ?report@?A0xaa42c127@TwkMovie@@YAXV?$basic_string@DU?$char_traits@D@std@@V?$allocator@D@2@@std@@_N@Z 0000000180030e70 f   MovieFFMpeg:MovieFFMpeg.obj
 0001:00030908       $LN661                     0000000180031908     MovieFFMpeg:MovieFFMpeg.obj
 0001:00032e10       $LN2630                    0000000180033e10     MovieFFMpeg:MovieFFMpeg.obj
 0001:00032e30       $LN2629                    0000000180033e30     MovieFFMpeg:MovieFFMpeg.obj
 0001:00032e54       $LN2628                    0000000180033e54     MovieFFMpeg:MovieFFMpeg.obj
 0001:00033070       $LN252                     0000000180034070     MovieFFMpeg:MovieFFMpeg.obj
 0001:00033910       ?validateTimestamps@?A0xaa42c127@TwkMovie@@YAXPEAUAVPacket@@PEAUAVStream@@_J_N@Z 0000000180034910 f   MovieFFMpeg:MovieFFMpeg.obj
 0001:00034720       av_q2d                     0000000180035720 f   MovieFFMpeg:MovieFFMpeg.obj
 0001:00035cc0       ?__scrt_initialize_thread_safe_statics@@YAHXZ 0000000180036cc0 f   MSVCRT:thread_safe_statics.obj
 0001:00035e20       ?__scrt_uninitialize_thread_safe_statics@@YAXXZ 0000000180036e20 f   MSVCRT:thread_safe_statics.obj
 0001:000360e0       $$000000                   00000001800370e0     MSVCRT:amdsecgs.obj
 0001:00036140       ?dllmain_crt_dispatch@@YAHQEAUHINSTANCE__@@KQEAX@Z 0000000180037140 f   MSVCRT:dll_dllmain.obj
 0001:00036190       ?dllmain_crt_process_attach@@YAHQEAUHINSTANCE__@@QEAX@Z 0000000180037190 f   MSVCRT:dll_dllmain.obj
 0001:000362ac       ?dllmain_crt_process_detach@@YAH_N@Z 00000001800372ac f   MSVCRT:dll_dllmain.obj
 0001:0003633c       ?dllmain_dispatch@@YAHQEAUHINSTANCE__@@KQEAX@Z 000000018003733c f   MSVCRT:dll_dllmain.obj
 0001:000369a4       capture_previous_context   00000001800379a4 f   MSVCRT:gs_report.obj
 0001:00036c70       $$000000                   0000000180037c70     MSVCRT:guard_dispatch.obj
 0001:00036c90       ?dtor$0@?0???$?0U?$token_finderF@U?$is_any_ofF@D@detail@algorithm@boost@@@detail@algorithm@boost@@@?$find_iterator_base@PEBD@detail@algorithm@boost@@IEAA@U?$token_finderF@U?$is_any_ofF@D@detail@algorithm@boost@@@123@H@Z@4HA 0000000180037c90 f   init.obj
 0001:00036ca0       ?dtor$4@?0???$?0U?$token_finderF@U?$is_any_ofF@D@detail@algorithm@boost@@@detail@algorithm@boost@@@?$find_iterator_base@PEBD@detail@algorithm@boost@@IEAA@U?$token_finderF@U?$is_any_ofF@D@detail@algorithm@boost@@@123@H@Z@4HA 0000000180037ca0 f   init.obj
 0001:00036ca0       ?dtor$3@?0???$assign_to@U?$token_finderF@U?$is_any_ofF@D@detail@algorithm@boost@@@detail@algorithm@boost@@@?$basic_vtable2@V?$iterator_range@PEBD@boost@@PEBDPEBD@function@detail@boost@@QEBA_NU?$token_finderF@U?$is_any_ofF@D@detail@algorithm@boost@@@2algorithm@3@AEATfunction_buffer@123@@Z@4HA 0000000180037ca0 f   init.obj
 0001:00036cb0       ?dtor$6@?0???$assign_to@U?$token_finderF@U?$is_any_ofF@D@detail@algorithm@boost@@@detail@algorithm@boost@@@?$basic_vtable2@V?$iterator_range@PEBD@boost@@PEBDPEBD@function@detail@boost@@QEBA_NU?$token_finderF@U?$is_any_ofF@D@detail@algorithm@boost@@@2algorithm@3@AEATfunction_buffer@123@@Z@4HA 0000000180037cb0 f   init.obj
 0001:00036cb0       ?dtor$7@?0???$?0U?$token_finderF@U?$is_any_ofF@D@detail@algorithm@boost@@@detail@algorithm@boost@@@?$find_iterator_base@PEBD@detail@algorithm@boost@@IEAA@U?$token_finderF@U?$is_any_ofF@D@detail@algorithm@boost@@@123@H@Z@4HA 0000000180037cb0 f   init.obj
 0001:00036cc0       ?catch$4@?0???$?6U?$char_traits@D@std@@@std@@YAAEAV?$basic_ostream@DU?$char_traits@D@std@@@0@AEAV10@PEBD@Z@4HA 0000000180037cc0 f   init.obj
 0001:00036ccd       __catch$??$?6U?$char_traits@D@std@@@std@@YAAEAV?$basic_ostream@DU?$char_traits@D@std@@@0@AEAV10@PEBD@Z$0 0000000180037ccd f   init.obj
 0001:00036d00       ?dtor$0@?0???$_Insert_string@DU?$char_traits@D@std@@_K@std@@YAAEAV?$basic_ostream@DU?$char_traits@D@std@@@0@AEAV10@QEBD_K@Z@4HA 0000000180037d00 f   MovieFFMpeg:MovieFFMpeg.obj
 0001:00036d00       ?dtor$0@?0???$?6U?$char_traits@D@std@@@std@@YAAEAV?$basic_ostream@DU?$char_traits@D@std@@@0@AEAV10@PEBD@Z@4HA 0000000180037d00 f   init.obj
 0001:00036d10       ?dtor$1@?0???$_Insert_string@DU?$char_traits@D@std@@_K@std@@YAAEAV?$basic_ostream@DU?$char_traits@D@std@@@0@AEAV10@QEBD_K@Z@4HA 0000000180037d10 f   MovieFFMpeg:MovieFFMpeg.obj
 0001:00036d10       ?dtor$1@?0???$?6U?$char_traits@D@std@@@std@@YAAEAV?$basic_ostream@DU?$char_traits@D@std@@@0@AEAV10@PEBD@Z@4HA 0000000180037d10 f   init.obj
 0001:00036d20       ?dtor$0@?0???$?HDU?$char_traits@D@std@@V?$allocator@D@1@@std@@YA?AV?$basic_string@DU?$char_traits@D@std@@V?$allocator@D@2@@0@QEBDAEBV10@@Z@4HA 0000000180037d20 f   MovieFFMpeg:MovieFFMpeg.obj
 0001:00036d20       ?dtor$0@?0???$?HDU?$char_traits@D@std@@V?$allocator@D@1@@std@@YA?AV?$basic_string@DU?$char_traits@D@std@@V?$allocator@D@2@@0@AEBV10@QEBD@Z@4HA 0000000180037d20 f   init.obj
 0001:00036d20       ?dtor$0@?0???$?HDU?$char_traits@D@std@@V?$allocator@D@1@@std@@YA?AV?$basic_string@DU?$char_traits@D@std@@V?$allocator@D@2@@0@AEBV10@0@Z@4HA 0000000180037d20 f   MovieFFMpeg:MovieFFMpeg.obj
 0001:00036d50       ?catch$1@?0???$_Emplace_reallocate@V?$basic_string@DU?$char_traits@D@std@@V?$allocator@D@2@@std@@@?$vector@V?$basic_string@DU?$char_traits@D@std@@V?$allocator@D@2@@std@@V?$allocator@V?$basic_string@DU?$char_traits@D@std@@V?$allocator@D@2@@std@@@2@@std@@QEAAPEAV?$basic_string@DU?$char_traits@D@std@@V?$allocator@D@2@@1@QEAV21@$$QEAV21@@Z@4HA 0000000180037d50 f   init.obj
 0001:00036d5e       __catch$??$_Emplace_reallocate@V?$basic_string@DU?$char_traits@D@std@@V?$allocator@D@2@@std@@@?$vector@V?$basic_string@DU?$char_traits@D@std@@V?$allocator@D@2@@std@@V?$allocator@V?$basic_string@DU?$char_traits@D@std@@V?$allocator@D@2@@std@@@2@@std@@QEAAPEAV?$basic_string@DU?$char_traits@D@std@@V?$allocator@D@2@@1@QEAV21@$$QEAV21@@Z$0 0000000180037d5e f   init.obj
 0001:00036da0       ?catch$23@?0???$_Range_construct_or_tidy@V?$transform_iterator@U?$copy_iterator_rangeF@V?$basic_string@DU?$char_traits@D@std@@V?$allocator@D@2@@std@@PEBD@detail@algorithm@boost@@V?$split_iterator@PEBD@34@Uuse_default@iterators@4@U674@@iterators@boost@@@?$vector@V?$basic_string@DU?$char_traits@D@std@@V?$allocator@D@2@@std@@V?$allocator@V?$basic_string@DU?$char_traits@D@std@@V?$allocator@D@2@@std@@@2@@std@@AEAAXV?$transform_iterator@U?$copy_iterator_rangeF@V?$basic_string@DU?$char_traits@D@std@@V?$allocator@D@2@@std@@PEBD@detail@algorithm@boost@@V?$split_iterator@PEBD@34@Uuse_default@iterators@4@U674@@iterators@boost@@0Uinput_iterator_tag@1@@Z@4HA 0000000180037da0 f   init.obj
 0001:00036dad       __catch$??$_Range_construct_or_tidy@V?$transform_iterator@U?$copy_iterator_rangeF@V?$basic_string@DU?$char_traits@D@std@@V?$allocator@D@2@@std@@PEBD@detail@algorithm@boost@@V?$split_iterator@PEBD@34@Uuse_default@iterators@4@U674@@iterators@boost@@@?$vector@V?$basic_string@DU?$char_traits@D@std@@V?$allocator@D@2@@std@@V?$allocator@V?$basic_string@DU?$char_traits@D@std@@V?$allocator@D@2@@std@@@2@@std@@AEAAXV?$transform_iterator@U?$copy_iterator_rangeF@V?$basic_string@DU?$char_traits@D@std@@V?$allocator@D@2@@std@@PEBD@detail@algorithm@boost@@V?$split_iterator@PEBD@34@Uuse_default@iterators@4@U674@@iterators@boost@@0Uinput_iterator_tag@1@@Z$0 0000000180037dad f   init.obj
 0001:00036dc0       ?dtor$0@?0???$_Range_construct_or_tidy@V?$transform_iterator@U?$copy_iterator_rangeF@V?$basic_string@DU?$char_traits@D@std@@V?$allocator@D@2@@std@@PEBD@detail@algorithm@boost@@V?$split_iterator@PEBD@34@Uuse_default@iterators@4@U674@@iterators@boost@@@?$vector@V?$basic_string@DU?$char_traits@D@std@@V?$allocator@D@2@@std@@V?$allocator@V?$basic_string@DU?$char_traits@D@std@@V?$allocator@D@2@@std@@@2@@std@@AEAAXV?$transform_iterator@U?$copy_iterator_rangeF@V?$basic_string@DU?$char_traits@D@std@@V?$allocator@D@2@@std@@PEBD@detail@algorithm@boost@@V?$split_iterator@PEBD@34@Uuse_default@iterators@4@U674@@iterators@boost@@0Uinput_iterator_tag@1@@Z@4HA 0000000180037dc0 f   init.obj
 0001:00036dd0       ?dtor$1@?0???$_Range_construct_or_tidy@V?$transform_iterator@U?$copy_iterator_rangeF@V?$basic_string@DU?$char_traits@D@std@@V?$allocator@D@2@@std@@PEBD@detail@algorithm@boost@@V?$split_iterator@PEBD@34@Uuse_default@iterators@4@U674@@iterators@boost@@@?$vector@V?$basic_string@DU?$char_traits@D@std@@V?$allocator@D@2@@std@@V?$allocator@V?$basic_string@DU?$char_traits@D@std@@V?$allocator@D@2@@std@@@2@@std@@AEAAXV?$transform_iterator@U?$copy_iterator_rangeF@V?$basic_string@DU?$char_traits@D@std@@V?$allocator@D@2@@std@@PEBD@detail@algorithm@boost@@V?$split_iterator@PEBD@34@Uuse_default@iterators@4@U674@@iterators@boost@@0Uinput_iterator_tag@1@@Z@4HA 0000000180037dd0 f   init.obj
 0001:00036de0       ?dtor$2@?0???$_Range_construct_or_tidy@V?$transform_iterator@U?$copy_iterator_rangeF@V?$basic_string@DU?$char_traits@D@std@@V?$allocator@D@2@@std@@PEBD@detail@algorithm@boost@@V?$split_iterator@PEBD@34@Uuse_default@iterators@4@U674@@iterators@boost@@@?$vector@V?$basic_string@DU?$char_traits@D@std@@V?$allocator@D@2@@std@@V?$allocator@V?$basic_string@DU?$char_traits@D@std@@V?$allocator@D@2@@std@@@2@@std@@AEAAXV?$transform_iterator@U?$copy_iterator_rangeF@V?$basic_string@DU?$char_traits@D@std@@V?$allocator@D@2@@std@@PEBD@detail@algorithm@boost@@V?$split_iterator@PEBD@34@Uuse_default@iterators@4@U674@@iterators@boost@@0Uinput_iterator_tag@1@@Z@4HA 0000000180037de0 f   init.obj
 0001:00036de0       ?dtor$3@?0??initRefMovie@MovieFFMpegWriter@TwkMovie@@AEAAXPEAVReformattingMovie@2@@Z@4HA 0000000180037de0 f   MovieFFMpeg:MovieFFMpeg.obj
 0001:00036de0       ?dtor$2@?0??initRefMovie@MovieFFMpegWriter@TwkMovie@@AEAAXPEAVReformattingMovie@2@@Z@4HA 0000000180037de0 f   MovieFFMpeg:MovieFFMpeg.obj
 0001:00036de0       ?dtor$4@?0??initRefMovie@MovieFFMpegWriter@TwkMovie@@AEAAXPEAVReformattingMovie@2@@Z@4HA 0000000180037de0 f   MovieFFMpeg:MovieFFMpeg.obj
 0001:00036de0       ?dtor$1@?0??initRefMovie@MovieFFMpegWriter@TwkMovie@@AEAAXPEAVReformattingMovie@2@@Z@4HA 0000000180037de0 f   MovieFFMpeg:MovieFFMpeg.obj
 0001:00036df0       ?dtor$0@?0???$_Ucopy@PEAV?$basic_string@DU?$char_traits@D@std@@V?$allocator@D@2@@std@@@?$vector@V?$basic_string@DU?$char_traits@D@std@@V?$allocator@D@2@@std@@V?$allocator@V?$basic_string@DU?$char_traits@D@std@@V?$allocator@D@2@@std@@@2@@std@@AEAAPEAV?$basic_string@DU?$char_traits@D@std@@V?$allocator@D@2@@1@PEAV21@00@Z@4HA 0000000180037df0 f   init.obj
 0001:00036df0       ?dtor$0@?0???0?$vector@V?$basic_string@DU?$char_traits@D@std@@V?$allocator@D@2@@std@@V?$allocator@V?$basic_string@DU?$char_traits@D@std@@V?$allocator@D@2@@std@@@2@@std@@QEAA@_KAEBV?$basic_string@DU?$char_traits@D@std@@V?$allocator@D@2@@1@AEBV?$allocator@V?$basic_string@DU?$char_traits@D@std@@V?$allocator@D@2@@std@@@1@@Z@4HA 0000000180037df0 f   MovieFFMpeg:MovieFFMpeg.obj
 0001:00036e00       ?dtor$0@?0???$assign_to@U?$token_finderF@U?$is_any_ofF@D@detail@algorithm@boost@@@detail@algorithm@boost@@@?$basic_vtable2@V?$iterator_range@PEBD@boost@@PEBDPEBD@function@detail@boost@@QEBA_NU?$token_finderF@U?$is_any_ofF@D@detail@algorithm@boost@@@2algorithm@3@AEATfunction_buffer@123@@Z@4HA 0000000180037e00 f   init.obj
 0001:00036e10       ?dtor$1@?0???$enable_current_exception@U?$error_info_injector@Vbad_lexical_cast@boost@@@exception_detail@boost@@@boost@@YA?AV?$clone_impl@U?$error_info_injector@Vbad_lexical_cast@boost@@@exception_detail@boost@@@exception_detail@0@AEBU?$error_info_injector@Vbad_lexical_cast@boost@@@20@@Z@4HA 0000000180037e10 f   init.obj
 0001:00036e40       ?dtor$2@?0???$enable_current_exception@U?$error_info_injector@Vbad_lexical_cast@boost@@@exception_detail@boost@@@boost@@YA?AV?$clone_impl@U?$error_info_injector@Vbad_lexical_cast@boost@@@exception_detail@boost@@@exception_detail@0@AEBU?$error_info_injector@Vbad_lexical_cast@boost@@@20@@Z@4HA 0000000180037e40 f   init.obj
 0001:00036e50       ?dtor$1@?0???$enable_current_exception@U?$error_info_injector@Vvalidation_error@program_options@boost@@@exception_detail@boost@@@boost@@YA?AV?$clone_impl@U?$error_info_injector@Vvalidation_error@program_options@boost@@@exception_detail@boost@@@exception_detail@0@AEBU?$error_info_injector@Vvalidation_error@program_options@boost@@@20@@Z@4HA 0000000180037e50 f   init.obj
 0001:00036e50       ?dtor$1@?0???$enable_current_exception@U?$error_info_injector@Vinvalid_option_value@program_options@boost@@@exception_detail@boost@@@boost@@YA?AV?$clone_impl@U?$error_info_injector@Vinvalid_option_value@program_options@boost@@@exception_detail@boost@@@exception_detail@0@AEBU?$error_info_injector@Vinvalid_option_value@program_options@boost@@@20@@Z@4HA 0000000180037e50 f   init.obj
 0001:00036e80       ?dtor$2@?0???$enable_current_exception@U?$error_info_injector@Vinvalid_option_value@program_options@boost@@@exception_detail@boost@@@boost@@YA?AV?$clone_impl@U?$error_info_injector@Vinvalid_option_value@program_options@boost@@@exception_detail@boost@@@exception_detail@0@AEBU?$error_info_injector@Vinvalid_option_value@program_options@boost@@@20@@Z@4HA 0000000180037e80 f   init.obj
 0001:00036e90       ?dtor$2@?0???$enable_current_exception@U?$error_info_injector@Vvalidation_error@program_options@boost@@@exception_detail@boost@@@boost@@YA?AV?$clone_impl@U?$error_info_injector@Vvalidation_error@program_options@boost@@@exception_detail@boost@@@exception_detail@0@AEBU?$error_info_injector@Vvalidation_error@program_options@boost@@@20@@Z@4HA 0000000180037e90 f   init.obj
 0001:00036ea0       ?dtor$4@?0??getFormats@MovieFFMpegIO@TwkMovie@@QEBA?AV?$map@V?$basic_string@DU?$char_traits@D@std@@V?$allocator@D@2@@std@@U?$pair@V?$basic_string@DU?$char_traits@D@std@@V?$allocator@D@2@@std@@I@2@U?$less@V?$basic_string@DU?$char_traits@D@std@@V?$allocator@D@2@@std@@@2@V?$allocator@U?$pair@$$CBV?$basic_string@DU?$char_traits@D@std@@V?$allocator@D@2@@std@@U?$pair@V?$basic_string@DU?$char_traits@D@std@@V?$allocator@D@2@@std@@I@2@@std@@@2@@std@@XZ@4HA 0000000180037ea0 f   MovieFFMpeg:MovieFFMpeg.obj
 0001:00036ea0       ?dtor$16@?0??getFormats@MovieFFMpegIO@TwkMovie@@QEBA?AV?$map@V?$basic_string@DU?$char_traits@D@std@@V?$allocator@D@2@@std@@U?$pair@V?$basic_string@DU?$char_traits@D@std@@V?$allocator@D@2@@std@@I@2@U?$less@V?$basic_string@DU?$char_traits@D@std@@V?$allocator@D@2@@std@@@2@V?$allocator@U?$pair@$$CBV?$basic_string@DU?$char_traits@D@std@@V?$allocator@D@2@@std@@U?$pair@V?$basic_string@DU?$char_traits@D@std@@V?$allocator@D@2@@std@@I@2@@std@@@2@@std@@XZ@4HA 0000000180037ea0 f   MovieFFMpeg:MovieFFMpeg.obj
 0001:00036ea0       ?dtor$6@?0??getFormats@MovieFFMpegIO@TwkMovie@@QEBA?AV?$map@V?$basic_string@DU?$char_traits@D@std@@V?$allocator@D@2@@std@@U?$pair@V?$basic_string@DU?$char_traits@D@std@@V?$allocator@D@2@@std@@I@2@U?$less@V?$basic_string@DU?$char_traits@D@std@@V?$allocator@D@2@@std@@@2@V?$allocator@U?$pair@$$CBV?$basic_string@DU?$char_traits@D@std@@V?$allocator@D@2@@std@@U?$pair@V?$basic_string@DU?$char_traits@D@std@@V?$allocator@D@2@@std@@I@2@@std@@@2@@std@@XZ@4HA 0000000180037ea0 f   MovieFFMpeg:MovieFFMpeg.obj
 0001:00036ea0       ?dtor$17@?0??getFormats@MovieFFMpegIO@TwkMovie@@QEBA?AV?$map@V?$basic_string@DU?$char_traits@D@std@@V?$allocator@D@2@@std@@U?$pair@V?$basic_string@DU?$char_traits@D@std@@V?$allocator@D@2@@std@@I@2@U?$less@V?$basic_string@DU?$char_traits@D@std@@V?$allocator@D@2@@std@@@2@V?$allocator@U?$pair@$$CBV?$basic_string@DU?$char_traits@D@std@@V?$allocator@D@2@@std@@U?$pair@V?$basic_string@DU?$char_traits@D@std@@V?$allocator@D@2@@std@@I@2@@std@@@2@@std@@XZ@4HA 0000000180037ea0 f   MovieFFMpeg:MovieFFMpeg.obj
 0001:00036ea0       ?dtor$7@?0??getFormats@MovieFFMpegIO@TwkMovie@@QEBA?AV?$map@V?$basic_string@DU?$char_traits@D@std@@V?$allocator@D@2@@std@@U?$pair@V?$basic_string@DU?$char_traits@D@std@@V?$allocator@D@2@@std@@I@2@U?$less@V?$basic_string@DU?$char_traits@D@std@@V?$allocator@D@2@@std@@@2@V?$allocator@U?$pair@$$CBV?$basic_string@DU?$char_traits@D@std@@V?$allocator@D@2@@std@@U?$pair@V?$basic_string@DU?$char_traits@D@std@@V?$allocator@D@2@@std@@I@2@@std@@@2@@std@@XZ@4HA 0000000180037ea0 f   MovieFFMpeg:MovieFFMpeg.obj
 0001:00036ea0       ?dtor$0@?0???$get_single_string@D@validators@program_options@boost@@YAAEBV?$basic_string@DU?$char_traits@D@std@@V?$allocator@D@2@@std@@AEBV?$vector@V?$basic_string@DU?$char_traits@D@std@@V?$allocator@D@2@@std@@V?$allocator@V?$basic_string@DU?$char_traits@D@std@@V?$allocator@D@2@@std@@@2@@4@_N@Z@4HA 0000000180037ea0 f   init.obj
 0001:00036ea0       ?dtor$1@?0??convert@?$lcast_ret_unsigned@U?$char_traits@D@std@@ID@detail@boost@@QEAA_NXZ@4HA 0000000180037ea0 f   init.obj
 0001:00036ea0       ?dtor$8@?0??getFormats@MovieFFMpegIO@TwkMovie@@QEBA?AV?$map@V?$basic_string@DU?$char_traits@D@std@@V?$allocator@D@2@@std@@U?$pair@V?$basic_string@DU?$char_traits@D@std@@V?$allocator@D@2@@std@@I@2@U?$less@V?$basic_string@DU?$char_traits@D@std@@V?$allocator@D@2@@std@@@2@V?$allocator@U?$pair@$$CBV?$basic_string@DU?$char_traits@D@std@@V?$allocator@D@2@@std@@U?$pair@V?$basic_string@DU?$char_traits@D@std@@V?$allocator@D@2@@std@@I@2@@std@@@2@@std@@XZ@4HA 0000000180037ea0 f   MovieFFMpeg:MovieFFMpeg.obj
 0001:00036ea0       ?dtor$1@?0??convert@?$lcast_put_unsigned@U?$char_traits@D@std@@ID@detail@boost@@QEAAPEADXZ@4HA 0000000180037ea0 f   init.obj
 0001:00036ea0       ?dtor$9@?0??getFormats@MovieFFMpegIO@TwkMovie@@QEBA?AV?$map@V?$basic_string@DU?$char_traits@D@std@@V?$allocator@D@2@@std@@U?$pair@V?$basic_string@DU?$char_traits@D@std@@V?$allocator@D@2@@std@@I@2@U?$less@V?$basic_string@DU?$char_traits@D@std@@V?$allocator@D@2@@std@@@2@V?$allocator@U?$pair@$$CBV?$basic_string@DU?$char_traits@D@std@@V?$allocator@D@2@@std@@U?$pair@V?$basic_string@DU?$char_traits@D@std@@V?$allocator@D@2@@std@@I@2@@std@@@2@@std@@XZ@4HA 0000000180037ea0 f   MovieFFMpeg:MovieFFMpeg.obj
 0001:00036ea0       ?dtor$2@?0??getFormats@MovieFFMpegIO@TwkMovie@@QEBA?AV?$map@V?$basic_string@DU?$char_traits@D@std@@V?$allocator@D@2@@std@@U?$pair@V?$basic_string@DU?$char_traits@D@std@@V?$allocator@D@2@@std@@I@2@U?$less@V?$basic_string@DU?$char_traits@D@std@@V?$allocator@D@2@@std@@@2@V?$allocator@U?$pair@$$CBV?$basic_string@DU?$char_traits@D@std@@V?$allocator@D@2@@std@@U?$pair@V?$basic_string@DU?$char_traits@D@std@@V?$allocator@D@2@@std@@I@2@@std@@@2@@std@@XZ@4HA 0000000180037ea0 f   MovieFFMpeg:MovieFFMpeg.obj
 0001:00036ea0       ?dtor$5@?0??getFormats@MovieFFMpegIO@TwkMovie@@QEBA?AV?$map@V?$basic_string@DU?$char_traits@D@std@@V?$allocator@D@2@@std@@U?$pair@V?$basic_string@DU?$char_traits@D@std@@V?$allocator@D@2@@std@@I@2@U?$less@V?$basic_string@DU?$char_traits@D@std@@V?$allocator@D@2@@std@@@2@V?$allocator@U?$pair@$$CBV?$basic_string@DU?$char_traits@D@std@@V?$allocator@D@2@@std@@U?$pair@V?$basic_string@DU?$char_traits@D@std@@V?$allocator@D@2@@std@@I@2@@std@@@2@@std@@XZ@4HA 0000000180037ea0 f   MovieFFMpeg:MovieFFMpeg.obj
 0001:00036ea0       ?dtor$3@?0??getFormats@MovieFFMpegIO@TwkMovie@@QEBA?AV?$map@V?$basic_string@DU?$char_traits@D@std@@V?$allocator@D@2@@std@@U?$pair@V?$basic_string@DU?$char_traits@D@std@@V?$allocator@D@2@@std@@I@2@U?$less@V?$basic_string@DU?$char_traits@D@std@@V?$allocator@D@2@@std@@@2@V?$allocator@U?$pair@$$CBV?$basic_string@DU?$char_traits@D@std@@V?$allocator@D@2@@std@@U?$pair@V?$basic_string@DU?$char_traits@D@std@@V?$allocator@D@2@@std@@I@2@@std@@@2@@std@@XZ@4HA 0000000180037ea0 f   MovieFFMpeg:MovieFFMpeg.obj
 0001:00036ea0       ?dtor$13@?0??getFormats@MovieFFMpegIO@TwkMovie@@QEBA?AV?$map@V?$basic_string@DU?$char_traits@D@std@@V?$allocator@D@2@@std@@U?$pair@V?$basic_string@DU?$char_traits@D@std@@V?$allocator@D@2@@std@@I@2@U?$less@V?$basic_string@DU?$char_traits@D@std@@V?$allocator@D@2@@std@@@2@V?$allocator@U?$pair@$$CBV?$basic_string@DU?$char_traits@D@std@@V?$allocator@D@2@@std@@U?$pair@V?$basic_string@DU?$char_traits@D@std@@V?$allocator@D@2@@std@@I@2@@std@@@2@@std@@XZ@4HA 0000000180037ea0 f   MovieFFMpeg:MovieFFMpeg.obj
 0001:00036ea0       ?dtor$12@?0??getFormats@MovieFFMpegIO@TwkMovie@@QEBA?AV?$map@V?$basic_string@DU?$char_traits@D@std@@V?$allocator@D@2@@std@@U?$pair@V?$basic_string@DU?$char_traits@D@std@@V?$allocator@D@2@@std@@I@2@U?$less@V?$basic_string@DU?$char_traits@D@std@@V?$allocator@D@2@@std@@@2@V?$allocator@U?$pair@$$CBV?$basic_string@DU?$char_traits@D@std@@V?$allocator@D@2@@std@@U?$pair@V?$basic_string@DU?$char_traits@D@std@@V?$allocator@D@2@@std@@I@2@@std@@@2@@std@@XZ@4HA 0000000180037ea0 f   MovieFFMpeg:MovieFFMpeg.obj
 0001:00036ea0       ?dtor$15@?0??getFormats@MovieFFMpegIO@TwkMovie@@QEBA?AV?$map@V?$basic_string@DU?$char_traits@D@std@@V?$allocator@D@2@@std@@U?$pair@V?$basic_string@DU?$char_traits@D@std@@V?$allocator@D@2@@std@@I@2@U?$less@V?$basic_string@DU?$char_traits@D@std@@V?$allocator@D@2@@std@@@2@V?$allocator@U?$pair@$$CBV?$basic_string@DU?$char_traits@D@std@@V?$allocator@D@2@@std@@U?$pair@V?$basic_string@DU?$char_traits@D@std@@V?$allocator@D@2@@std@@I@2@@std@@@2@@std@@XZ@4HA 0000000180037ea0 f   MovieFFMpeg:MovieFFMpeg.obj
 0001:00036ea0       ?dtor$1@?0??openAVCodec@MovieFFMpegReader@TwkMovie@@AEAA_NH@Z@4HA 0000000180037ea0 f   MovieFFMpeg:MovieFFMpeg.obj
 0001:00036ea0       ?dtor$11@?0??getFormats@MovieFFMpegIO@TwkMovie@@QEBA?AV?$map@V?$basic_string@DU?$char_traits@D@std@@V?$allocator@D@2@@std@@U?$pair@V?$basic_string@DU?$char_traits@D@std@@V?$allocator@D@2@@std@@I@2@U?$less@V?$basic_string@DU?$char_traits@D@std@@V?$allocator@D@2@@std@@@2@V?$allocator@U?$pair@$$CBV?$basic_string@DU?$char_traits@D@std@@V?$allocator@D@2@@std@@U?$pair@V?$basic_string@DU?$char_traits@D@std@@V?$allocator@D@2@@std@@I@2@@std@@@2@@std@@XZ@4HA 0000000180037ea0 f   MovieFFMpeg:MovieFFMpeg.obj
 0001:00036ea0       ?dtor$14@?0??getFormats@MovieFFMpegIO@TwkMovie@@QEBA?AV?$map@V?$basic_string@DU?$char_traits@D@std@@V?$allocator@D@2@@std@@U?$pair@V?$basic_string@DU?$char_traits@D@std@@V?$allocator@D@2@@std@@I@2@U?$less@V?$basic_string@DU?$char_traits@D@std@@V?$allocator@D@2@@std@@@2@V?$allocator@U?$pair@$$CBV?$basic_string@DU?$char_traits@D@std@@V?$allocator@D@2@@std@@U?$pair@V?$basic_string@DU?$char_traits@D@std@@V?$allocator@D@2@@std@@I@2@@std@@@2@@std@@XZ@4HA 0000000180037ea0 f   MovieFFMpeg:MovieFFMpeg.obj
 0001:00036ea0       ?dtor$1@?0??getFormats@MovieFFMpegIO@TwkMovie@@QEBA?AV?$map@V?$basic_string@DU?$char_traits@D@std@@V?$allocator@D@2@@std@@U?$pair@V?$basic_string@DU?$char_traits@D@std@@V?$allocator@D@2@@std@@I@2@U?$less@V?$basic_string@DU?$char_traits@D@std@@V?$allocator@D@2@@std@@@2@V?$allocator@U?$pair@$$CBV?$basic_string@DU?$char_traits@D@std@@V?$allocator@D@2@@std@@U?$pair@V?$basic_string@DU?$char_traits@D@std@@V?$allocator@D@2@@std@@I@2@@std@@@2@@std@@XZ@4HA 0000000180037ea0 f   MovieFFMpeg:MovieFFMpeg.obj
 0001:00036ea0       ?dtor$4@?0???$get_single_string@D@validators@program_options@boost@@YAAEBV?$basic_string@DU?$char_traits@D@std@@V?$allocator@D@2@@std@@AEBV?$vector@V?$basic_string@DU?$char_traits@D@std@@V?$allocator@D@2@@std@@V?$allocator@V?$basic_string@DU?$char_traits@D@std@@V?$allocator@D@2@@std@@@2@@4@_N@Z@4HA 0000000180037ea0 f   init.obj
 0001:00036ea0       ?dtor$10@?0??getFormats@MovieFFMpegIO@TwkMovie@@QEBA?AV?$map@V?$basic_string@DU?$char_traits@D@std@@V?$allocator@D@2@@std@@U?$pair@V?$basic_string@DU?$char_traits@D@std@@V?$allocator@D@2@@std@@I@2@U?$less@V?$basic_string@DU?$char_traits@D@std@@V?$allocator@D@2@@std@@@2@V?$allocator@U?$pair@$$CBV?$basic_string@DU?$char_traits@D@std@@V?$allocator@D@2@@std@@U?$pair@V?$basic_string@DU?$char_traits@D@std@@V?$allocator@D@2@@std@@I@2@@std@@@2@@std@@XZ@4HA 0000000180037ea0 f   MovieFFMpeg:MovieFFMpeg.obj
 0001:00036eb0       ?dtor$2@?0??getWriterCodec@MovieFFMpegWriter@TwkMovie@@AEAA?AV?$basic_string@DU?$char_traits@D@std@@V?$allocator@D@2@@std@@V34@V?$vector@V?$basic_string@DU?$char_traits@D@std@@V?$allocator@D@2@@std@@V?$allocator@V?$basic_string@DU?$char_traits@D@std@@V?$allocator@D@2@@std@@@2@@4@@Z@4HA 0000000180037eb0 f   MovieFFMpeg:MovieFFMpeg.obj
 0001:00036eb0       ?dtor$3@?0???$get_single_string@D@validators@program_options@boost@@YAAEBV?$basic_string@DU?$char_traits@D@std@@V?$allocator@D@2@@std@@AEBV?$vector@V?$basic_string@DU?$char_traits@D@std@@V?$allocator@D@2@@std@@V?$allocator@V?$basic_string@DU?$char_traits@D@std@@V?$allocator@D@2@@std@@@2@@4@_N@Z@4HA 0000000180037eb0 f   init.obj
 0001:00036eb0       ?dtor$18@?0??getFormats@MovieFFMpegIO@TwkMovie@@QEBA?AV?$map@V?$basic_string@DU?$char_traits@D@std@@V?$allocator@D@2@@std@@U?$pair@V?$basic_string@DU?$char_traits@D@std@@V?$allocator@D@2@@std@@I@2@U?$less@V?$basic_string@DU?$char_traits@D@std@@V?$allocator@D@2@@std@@@2@V?$allocator@U?$pair@$$CBV?$basic_string@DU?$char_traits@D@std@@V?$allocator@D@2@@std@@U?$pair@V?$basic_string@DU?$char_traits@D@std@@V?$allocator@D@2@@std@@I@2@@std@@@2@@std@@XZ@4HA 0000000180037eb0 f   MovieFFMpeg:MovieFFMpeg.obj
 0001:00036eb0       ?dtor$1@?0???$get_single_string@D@validators@program_options@boost@@YAAEBV?$basic_string@DU?$char_traits@D@std@@V?$allocator@D@2@@std@@AEBV?$vector@V?$basic_string@DU?$char_traits@D@std@@V?$allocator@D@2@@std@@V?$allocator@V?$basic_string@DU?$char_traits@D@std@@V?$allocator@D@2@@std@@@2@@4@_N@Z@4HA 0000000180037eb0 f   init.obj
 0001:00036eb0       ?dtor$1@?0??snagColr@MovieFFMpegReader@TwkMovie@@AEAA_NPEAUAVCodecContext@@PEAUVideoTrack@2@@Z@4HA 0000000180037eb0 f   MovieFFMpeg:MovieFFMpeg.obj
 0001:00036eb0       ?dtor$2@?0??snagColr@MovieFFMpegReader@TwkMovie@@AEAA_NPEAUAVCodecContext@@PEAUVideoTrack@2@@Z@4HA 0000000180037eb0 f   MovieFFMpeg:MovieFFMpeg.obj
 0001:00036ec0       ?dtor$5@?0???$get_single_string@D@validators@program_options@boost@@YAAEBV?$basic_string@DU?$char_traits@D@std@@V?$allocator@D@2@@std@@AEBV?$vector@V?$basic_string@DU?$char_traits@D@std@@V?$allocator@D@2@@std@@V?$allocator@V?$basic_string@DU?$char_traits@D@std@@V?$allocator@D@2@@std@@@2@@4@_N@Z@4HA 0000000180037ec0 f   init.obj
 0001:00036ec0       ?dtor$2@?0???$get_single_string@D@validators@program_options@boost@@YAAEBV?$basic_string@DU?$char_traits@D@std@@V?$allocator@D@2@@std@@AEBV?$vector@V?$basic_string@DU?$char_traits@D@std@@V?$allocator@D@2@@std@@V?$allocator@V?$basic_string@DU?$char_traits@D@std@@V?$allocator@D@2@@std@@@2@@4@_N@Z@4HA 0000000180037ec0 f   init.obj
 0001:00036ed0       ?dtor$0@?0???$iter_split@V?$vector@V?$basic_string@DU?$char_traits@D@std@@V?$allocator@D@2@@std@@V?$allocator@V?$basic_string@DU?$char_traits@D@std@@V?$allocator@D@2@@std@@@2@@std@@PEBDU?$token_finderF@U?$is_any_ofF@D@detail@algorithm@boost@@@detail@algorithm@boost@@@algorithm@boost@@YAAEAV?$vector@V?$basic_string@DU?$char_traits@D@std@@V?$allocator@D@2@@std@@V?$allocator@V?$basic_string@DU?$char_traits@D@std@@V?$allocator@D@2@@std@@@2@@std@@AEAV23@AEAPEBDU?$token_finderF@U?$is_any_ofF@D@detail@algorithm@boost@@@detail@01@@Z@4HA 0000000180037ed0 f   init.obj
 0001:00036ee0       ?dtor$3@?0???$iter_split@V?$vector@V?$basic_string@DU?$char_traits@D@std@@V?$allocator@D@2@@std@@V?$allocator@V?$basic_string@DU?$char_traits@D@std@@V?$allocator@D@2@@std@@@2@@std@@PEBDU?$token_finderF@U?$is_any_ofF@D@detail@algorithm@boost@@@detail@algorithm@boost@@@algorithm@boost@@YAAEAV?$vector@V?$basic_string@DU?$char_traits@D@std@@V?$allocator@D@2@@std@@V?$allocator@V?$basic_string@DU?$char_traits@D@std@@V?$allocator@D@2@@std@@@2@@std@@AEAV23@AEAPEBDU?$token_finderF@U?$is_any_ofF@D@detail@algorithm@boost@@@detail@01@@Z@4HA 0000000180037ee0 f   init.obj
 0001:00036ef0       ?dtor$5@?0???$iter_split@V?$vector@V?$basic_string@DU?$char_traits@D@std@@V?$allocator@D@2@@std@@V?$allocator@V?$basic_string@DU?$char_traits@D@std@@V?$allocator@D@2@@std@@@2@@std@@PEBDU?$token_finderF@U?$is_any_ofF@D@detail@algorithm@boost@@@detail@algorithm@boost@@@algorithm@boost@@YAAEAV?$vector@V?$basic_string@DU?$char_traits@D@std@@V?$allocator@D@2@@std@@V?$allocator@V?$basic_string@DU?$char_traits@D@std@@V?$allocator@D@2@@std@@@2@@std@@AEAV23@AEAPEBDU?$token_finderF@U?$is_any_ofF@D@detail@algorithm@boost@@@detail@01@@Z@4HA 0000000180037ef0 f   init.obj
 0001:00036f00       ?dtor$34@?0???$iter_split@V?$vector@V?$basic_string@DU?$char_traits@D@std@@V?$allocator@D@2@@std@@V?$allocator@V?$basic_string@DU?$char_traits@D@std@@V?$allocator@D@2@@std@@@2@@std@@PEBDU?$token_finderF@U?$is_any_ofF@D@detail@algorithm@boost@@@detail@algorithm@boost@@@algorithm@boost@@YAAEAV?$vector@V?$basic_string@DU?$char_traits@D@std@@V?$allocator@D@2@@std@@V?$allocator@V?$basic_string@DU?$char_traits@D@std@@V?$allocator@D@2@@std@@@2@@std@@AEAV23@AEAPEBDU?$token_finderF@U?$is_any_ofF@D@detail@algorithm@boost@@@detail@01@@Z@4HA 0000000180037f00 f   init.obj
 0001:00036f00       ?dtor$6@?0???$iter_split@V?$vector@V?$basic_string@DU?$char_traits@D@std@@V?$allocator@D@2@@std@@V?$allocator@V?$basic_string@DU?$char_traits@D@std@@V?$allocator@D@2@@std@@@2@@std@@PEBDU?$token_finderF@U?$is_any_ofF@D@detail@algorithm@boost@@@detail@algorithm@boost@@@algorithm@boost@@YAAEAV?$vector@V?$basic_string@DU?$char_traits@D@std@@V?$allocator@D@2@@std@@V?$allocator@V?$basic_string@DU?$char_traits@D@std@@V?$allocator@D@2@@std@@@2@@std@@AEAV23@AEAPEBDU?$token_finderF@U?$is_any_ofF@D@detail@algorithm@boost@@@detail@01@@Z@4HA 0000000180037f00 f   init.obj
 0001:00036f10       ?dtor$10@?0???$iter_split@V?$vector@V?$basic_string@DU?$char_traits@D@std@@V?$allocator@D@2@@std@@V?$allocator@V?$basic_string@DU?$char_traits@D@std@@V?$allocator@D@2@@std@@@2@@std@@PEBDU?$token_finderF@U?$is_any_ofF@D@detail@algorithm@boost@@@detail@algorithm@boost@@@algorithm@boost@@YAAEAV?$vector@V?$basic_string@DU?$char_traits@D@std@@V?$allocator@D@2@@std@@V?$allocator@V?$basic_string@DU?$char_traits@D@std@@V?$allocator@D@2@@std@@@2@@std@@AEAV23@AEAPEBDU?$token_finderF@U?$is_any_ofF@D@detail@algorithm@boost@@@detail@01@@Z@4HA 0000000180037f10 f   init.obj
 0001:00036f20       ?dtor$12@?0???$iter_split@V?$vector@V?$basic_string@DU?$char_traits@D@std@@V?$allocator@D@2@@std@@V?$allocator@V?$basic_string@DU?$char_traits@D@std@@V?$allocator@D@2@@std@@@2@@std@@PEBDU?$token_finderF@U?$is_any_ofF@D@detail@algorithm@boost@@@detail@algorithm@boost@@@algorithm@boost@@YAAEAV?$vector@V?$basic_string@DU?$char_traits@D@std@@V?$allocator@D@2@@std@@V?$allocator@V?$basic_string@DU?$char_traits@D@std@@V?$allocator@D@2@@std@@@2@@std@@AEAV23@AEAPEBDU?$token_finderF@U?$is_any_ofF@D@detail@algorithm@boost@@@detail@01@@Z@4HA 0000000180037f20 f   init.obj
 0001:00036f20       ?dtor$35@?0???$iter_split@V?$vector@V?$basic_string@DU?$char_traits@D@std@@V?$allocator@D@2@@std@@V?$allocator@V?$basic_string@DU?$char_traits@D@std@@V?$allocator@D@2@@std@@@2@@std@@PEBDU?$token_finderF@U?$is_any_ofF@D@detail@algorithm@boost@@@detail@algorithm@boost@@@algorithm@boost@@YAAEAV?$vector@V?$basic_string@DU?$char_traits@D@std@@V?$allocator@D@2@@std@@V?$allocator@V?$basic_string@DU?$char_traits@D@std@@V?$allocator@D@2@@std@@@2@@std@@AEAV23@AEAPEBDU?$token_finderF@U?$is_any_ofF@D@detail@algorithm@boost@@@detail@01@@Z@4HA 0000000180037f20 f   init.obj
 0001:00036f30       ?dtor$33@?0???$iter_split@V?$vector@V?$basic_string@DU?$char_traits@D@std@@V?$allocator@D@2@@std@@V?$allocator@V?$basic_string@DU?$char_traits@D@std@@V?$allocator@D@2@@std@@@2@@std@@PEBDU?$token_finderF@U?$is_any_ofF@D@detail@algorithm@boost@@@detail@algorithm@boost@@@algorithm@boost@@YAAEAV?$vector@V?$basic_string@DU?$char_traits@D@std@@V?$allocator@D@2@@std@@V?$allocator@V?$basic_string@DU?$char_traits@D@std@@V?$allocator@D@2@@std@@@2@@std@@AEAV23@AEAPEBDU?$token_finderF@U?$is_any_ofF@D@detail@algorithm@boost@@@detail@01@@Z@4HA 0000000180037f30 f   init.obj
 0001:00036f40       ?dtor$0@?0???$make_transform_iterator@U?$copy_iterator_rangeF@V?$basic_string@DU?$char_traits@D@std@@V?$allocator@D@2@@std@@PEBD@detail@algorithm@boost@@V?$split_iterator@PEBD@34@@iterators@boost@@YA?AV?$transform_iterator@U?$copy_iterator_rangeF@V?$basic_string@DU?$char_traits@D@std@@V?$allocator@D@2@@std@@PEBD@detail@algorithm@boost@@V?$split_iterator@PEBD@34@Uuse_default@iterators@4@U674@@01@V?$split_iterator@PEBD@algorithm@1@U?$copy_iterator_rangeF@V?$basic_string@DU?$char_traits@D@std@@V?$allocator@D@2@@std@@PEBD@detail@41@@Z@4HA 0000000180037f40 f   init.obj
 0001:00036f50       ?dtor$0@?0???$parse_command_line@D@program_options@boost@@YA?AV?$basic_parsed_options@D@01@HQEBQEBDAEBVoptions_description@01@HV?$function1@U?$pair@V?$basic_string@DU?$char_traits@D@std@@V?$allocator@D@2@@std@@V12@@std@@AEBV?$basic_string@DU?$char_traits@D@std@@V?$allocator@D@2@@2@@1@@Z@4HA 0000000180037f50 f   init.obj
 0001:00036f60       ?dtor$1@?0???$parse_command_line@D@program_options@boost@@YA?AV?$basic_parsed_options@D@01@HQEBQEBDAEBVoptions_description@01@HV?$function1@U?$pair@V?$basic_string@DU?$char_traits@D@std@@V?$allocator@D@2@@std@@V12@@std@@AEBV?$basic_string@DU?$char_traits@D@std@@V?$allocator@D@2@@2@@1@@Z@4HA 0000000180037f60 f   init.obj
 0001:00036f70       ?dtor$2@?0???$parse_command_line@D@program_options@boost@@YA?AV?$basic_parsed_options@D@01@HQEBQEBDAEBVoptions_description@01@HV?$function1@U?$pair@V?$basic_string@DU?$char_traits@D@std@@V?$allocator@D@2@@std@@V12@@std@@AEBV?$basic_string@DU?$char_traits@D@std@@V?$allocator@D@2@@2@@1@@Z@4HA 0000000180037f70 f   init.obj
 0001:00036f80       ?dtor$4@?0???$parse_command_line@D@program_options@boost@@YA?AV?$basic_parsed_options@D@01@HQEBQEBDAEBVoptions_description@01@HV?$function1@U?$pair@V?$basic_string@DU?$char_traits@D@std@@V?$allocator@D@2@@std@@V12@@std@@AEBV?$basic_string@DU?$char_traits@D@std@@V?$allocator@D@2@@2@@1@@Z@4HA 0000000180037f80 f   init.obj
 0001:00036f90       ?dtor$7@?0???$parse_command_line@D@program_options@boost@@YA?AV?$basic_parsed_options@D@01@HQEBQEBDAEBVoptions_description@01@HV?$function1@U?$pair@V?$basic_string@DU?$char_traits@D@std@@V?$allocator@D@2@@std@@V12@@std@@AEBV?$basic_string@DU?$char_traits@D@std@@V?$allocator@D@2@@2@@1@@Z@4HA 0000000180037f90 f   init.obj
 0001:00036fa0       ?catch$10@?0???$shr_using_base_class@N@?$lexical_ostream_limited_src@DU?$char_traits@D@std@@@detail@boost@@AEAA_NAEAN@Z@4HA 0000000180037fa0 f   init.obj
 0001:00036fad       __catch$??$shr_using_base_class@N@?$lexical_ostream_limited_src@DU?$char_traits@D@std@@@detail@boost@@AEAA_NAEAN@Z$0 0000000180037fad f   init.obj
 0001:00036fc0       ?dtor$0@?0???$shr_using_base_class@N@?$lexical_ostream_limited_src@DU?$char_traits@D@std@@@detail@boost@@AEAA_NAEAN@Z@4HA 0000000180037fc0 f   init.obj
 0001:00036fd0       ?dtor$1@?0???$shr_using_base_class@N@?$lexical_ostream_limited_src@DU?$char_traits@D@std@@@detail@boost@@AEAA_NAEAN@Z@4HA 0000000180037fd0 f   init.obj
 0001:00036fe0       ?dtor$0@?0???$split@V?$vector@V?$basic_string@DU?$char_traits@D@std@@V?$allocator@D@2@@std@@V?$allocator@V?$basic_string@DU?$char_traits@D@std@@V?$allocator@D@2@@std@@@2@@std@@PEBDU?$is_any_ofF@D@detail@algorithm@boost@@@algorithm@boost@@YAAEAV?$vector@V?$basic_string@DU?$char_traits@D@std@@V?$allocator@D@2@@std@@V?$allocator@V?$basic_string@DU?$char_traits@D@std@@V?$allocator@D@2@@std@@@2@@std@@AEAV23@AEAPEBDU?$is_any_ofF@D@detail@01@W4token_compress_mode_type@01@@Z@4HA 0000000180037fe0 f   init.obj
 0001:00036ff0       ?dtor$3@?0???$split@V?$vector@V?$basic_string@DU?$char_traits@D@std@@V?$allocator@D@2@@std@@V?$allocator@V?$basic_string@DU?$char_traits@D@std@@V?$allocator@D@2@@std@@@2@@std@@PEBDU?$is_any_ofF@D@detail@algorithm@boost@@@algorithm@boost@@YAAEAV?$vector@V?$basic_string@DU?$char_traits@D@std@@V?$allocator@D@2@@std@@V?$allocator@V?$basic_string@DU?$char_traits@D@std@@V?$allocator@D@2@@std@@@2@@std@@AEAV23@AEAPEBDU?$is_any_ofF@D@detail@01@W4token_compress_mode_type@01@@Z@4HA 0000000180037ff0 f   init.obj
 0001:00037000       ?dtor$6@?0???$split@V?$vector@V?$basic_string@DU?$char_traits@D@std@@V?$allocator@D@2@@std@@V?$allocator@V?$basic_string@DU?$char_traits@D@std@@V?$allocator@D@2@@std@@@2@@std@@PEBDU?$is_any_ofF@D@detail@algorithm@boost@@@algorithm@boost@@YAAEAV?$vector@V?$basic_string@DU?$char_traits@D@std@@V?$allocator@D@2@@std@@V?$allocator@V?$basic_string@DU?$char_traits@D@std@@V?$allocator@D@2@@std@@@2@@std@@AEAV23@AEAPEBDU?$is_any_ofF@D@detail@01@W4token_compress_mode_type@01@@Z@4HA 0000000180038000 f   init.obj
 0001:00037010       ?dtor$0@?0???$throw_bad_cast@V?$basic_string@DU?$char_traits@D@std@@V?$allocator@D@2@@std@@N@detail@conversion@boost@@YAXXZ@4HA 0000000180038010 f   init.obj
 0001:00037010       ?dtor$0@?0???$throw_bad_cast@NV?$basic_string@DU?$char_traits@D@std@@V?$allocator@D@2@@std@@@detail@conversion@boost@@YAXXZ@4HA 0000000180038010 f   init.obj
 0001:00037010       ?dtor$0@?0???$throw_bad_cast@V?$basic_string@DU?$char_traits@D@std@@V?$allocator@D@2@@std@@H@detail@conversion@boost@@YAXXZ@4HA 0000000180038010 f   init.obj
 0001:00037020       ?dtor$0@?0???$throw_exception@Vbad_lexical_cast@boost@@@boost@@YAXAEBVbad_lexical_cast@0@@Z@4HA 0000000180038020 f   init.obj
 0001:00037030       ?dtor$0@?0???$throw_exception@Vinvalid_option_value@program_options@boost@@@boost@@YAXAEBVinvalid_option_value@program_options@0@@Z@4HA 0000000180038030 f   init.obj
 0001:00037040       ?dtor$0@?0???$throw_exception@Vvalidation_error@program_options@boost@@@boost@@YAXAEBVvalidation_error@program_options@0@@Z@4HA 0000000180038040 f   init.obj
 0001:00037050       ?dtor$0@?0???$use_facet@V?$numpunct@D@std@@@std@@YAAEBV?$numpunct@D@0@AEBVlocale@0@@Z@4HA 0000000180038050 f   init.obj
 0001:00037060       ?dtor$1@?0???$use_facet@V?$numpunct@D@std@@@std@@YAAEBV?$numpunct@D@0@AEBVlocale@0@@Z@4HA 0000000180038060 f   init.obj
 0001:00037070       ?dtor$3@?0???$use_facet@V?$numpunct@D@std@@@std@@YAAEBV?$numpunct@D@0@AEBVlocale@0@@Z@4HA 0000000180038070 f   init.obj
 0001:00037090       ?dtor$4@?0???$use_facet@V?$numpunct@D@std@@@std@@YAAEBV?$numpunct@D@0@AEBVlocale@0@@Z@4HA 0000000180038090 f   init.obj
 0001:000370c0       ?dtor$5@?0???$use_facet@V?$numpunct@D@std@@@std@@YAAEBV?$numpunct@D@0@AEBVlocale@0@@Z@4HA 00000001800380c0 f   init.obj
 0001:000370d0       ?catch$9@?0???$validate@HD@program_options@boost@@YAXAEAVany@1@AEBV?$vector@V?$basic_string@DU?$char_traits@D@std@@V?$allocator@D@2@@std@@V?$allocator@V?$basic_string@DU?$char_traits@D@std@@V?$allocator@D@2@@std@@@2@@std@@PEAHJ@Z@4HA 00000001800380d0 f   init.obj
 0001:000370dd       __catch$??$validate@HD@program_options@boost@@YAXAEAVany@1@AEBV?$vector@V?$basic_string@DU?$char_traits@D@std@@V?$allocator@D@2@@std@@V?$allocator@V?$basic_string@DU?$char_traits@D@std@@V?$allocator@D@2@@std@@@2@@std@@PEAHJ@Z$0 00000001800380dd f   init.obj
 0001:00037100       ?dtor$0@?0??getColrType@mp4v2Utils@@YA_NPEAXHAEAV?$basic_string@DU?$char_traits@D@std@@V?$allocator@D@2@@std@@@Z@4HA 0000000180038100 f   mp4v2Utils:mp4v2Utils.obj
 0001:00037100       ?dtor$0@?0??getNCLCValues@mp4v2Utils@@YA_NPEAXHAEA_K11@Z@4HA 0000000180038100 f   mp4v2Utils:mp4v2Utils.obj
 0001:00037100       ?dtor$0@?0???$validate@HD@program_options@boost@@YAXAEAVany@1@AEBV?$vector@V?$basic_string@DU?$char_traits@D@std@@V?$allocator@D@2@@std@@V?$allocator@V?$basic_string@DU?$char_traits@D@std@@V?$allocator@D@2@@std@@@2@@std@@PEAHJ@Z@4HA 0000000180038100 f   init.obj
 0001:00037100       ?dtor$0@?0??getPROFValues@mp4v2Utils@@YA_NPEAXHAEAPEAEAEAI@Z@4HA 0000000180038100 f   mp4v2Utils:mp4v2Utils.obj
 0001:00037110       ?dtor$2@?0???$validate@HD@program_options@boost@@YAXAEAVany@1@AEBV?$vector@V?$basic_string@DU?$char_traits@D@std@@V?$allocator@D@2@@std@@V?$allocator@V?$basic_string@DU?$char_traits@D@std@@V?$allocator@D@2@@std@@@2@@std@@PEAHJ@Z@4HA 0000000180038110 f   init.obj
 0001:00037120       ?catch$9@?0???$validate@ND@program_options@boost@@YAXAEAVany@1@AEBV?$vector@V?$basic_string@DU?$char_traits@D@std@@V?$allocator@D@2@@std@@V?$allocator@V?$basic_string@DU?$char_traits@D@std@@V?$allocator@D@2@@std@@@2@@std@@PEANJ@Z@4HA 0000000180038120 f   init.obj
 0001:0003712d       __catch$??$validate@ND@program_options@boost@@YAXAEAVany@1@AEBV?$vector@V?$basic_string@DU?$char_traits@D@std@@V?$allocator@D@2@@std@@V?$allocator@V?$basic_string@DU?$char_traits@D@std@@V?$allocator@D@2@@std@@@2@@std@@PEANJ@Z$0 000000018003812d f   init.obj
 0001:00037150       ?dtor$0@?0??what@system_error@system@boost@@UEBAPEBDXZ@4HA 0000000180038150 f   MovieFFMpeg:MovieFFMpeg.obj
 0001:00037150       ?dtor$5@?0??openAVFormat@MovieFFMpegReader@TwkMovie@@AEAA_NXZ@4HA 0000000180038150 f   MovieFFMpeg:MovieFFMpeg.obj
 0001:00037150       ?dtor$0@?0???$validate@ND@program_options@boost@@YAXAEAVany@1@AEBV?$vector@V?$basic_string@DU?$char_traits@D@std@@V?$allocator@D@2@@std@@V?$allocator@V?$basic_string@DU?$char_traits@D@std@@V?$allocator@D@2@@std@@@2@@std@@PEANJ@Z@4HA 0000000180038150 f   init.obj
 0001:00037160       ?dtor$2@?0???$validate@ND@program_options@boost@@YAXAEAVany@1@AEBV?$vector@V?$basic_string@DU?$char_traits@D@std@@V?$allocator@D@2@@std@@V?$allocator@V?$basic_string@DU?$char_traits@D@std@@V?$allocator@D@2@@std@@@2@@std@@PEANJ@Z@4HA 0000000180038160 f   init.obj
 0001:00037170       ?dtor$3@?0???0?$basic_command_line_parser@D@program_options@boost@@QEAA@HQEBQEBD@Z@4HA 0000000180038170 f   init.obj
 0001:000371a0       ?dtor$6@?0??fillVideo@MovieFFMpegWriter@TwkMovie@@AEAAXV?$vector@PEAVFrameBuffer@TwkFB@@V?$allocator@PEAVFrameBuffer@TwkFB@@@std@@@std@@H_N@Z@4HA 00000001800381a0 f   MovieFFMpeg:MovieFFMpeg.obj
 0001:000371a0       ?dtor$2@?0??fillVideo@MovieFFMpegWriter@TwkMovie@@AEAAXV?$vector@PEAVFrameBuffer@TwkFB@@V?$allocator@PEAVFrameBuffer@TwkFB@@@std@@@std@@H_N@Z@4HA 00000001800381a0 f   MovieFFMpeg:MovieFFMpeg.obj
 0001:000371a0       ?dtor$4@?0??fillVideo@MovieFFMpegWriter@TwkMovie@@AEAAXV?$vector@PEAVFrameBuffer@TwkFB@@V?$allocator@PEAVFrameBuffer@TwkFB@@@std@@@std@@H_N@Z@4HA 00000001800381a0 f   MovieFFMpeg:MovieFFMpeg.obj
 0001:000371a0       ?dtor$8@?0??fillVideo@MovieFFMpegWriter@TwkMovie@@AEAAXV?$vector@PEAVFrameBuffer@TwkFB@@V?$allocator@PEAVFrameBuffer@TwkFB@@@std@@@std@@H_N@Z@4HA 00000001800381a0 f   MovieFFMpeg:MovieFFMpeg.obj
 0001:000371a0       ?dtor$11@?0???0?$basic_command_line_parser@D@program_options@boost@@QEAA@HQEBQEBD@Z@4HA 00000001800381a0 f   init.obj
 0001:000371a0       ?dtor$4@?0???0?$basic_command_line_parser@D@program_options@boost@@QEAA@HQEBQEBD@Z@4HA 00000001800381a0 f   init.obj
 0001:000371b0       ?dtor$10@?0???0?$basic_command_line_parser@D@program_options@boost@@QEAA@HQEBQEBD@Z@4HA 00000001800381b0 f   init.obj
 0001:000371e0       ?dtor$0@?0???0?$clone_impl@U?$error_info_injector@Vbad_lexical_cast@boost@@@exception_detail@boost@@@exception_detail@boost@@QEAA@AEBV012@@Z@4HA 00000001800381e0 f   init.obj
 0001:00037210       ?dtor$0@?0???0?$clone_impl@U?$error_info_injector@Vinvalid_option_value@program_options@boost@@@exception_detail@boost@@@exception_detail@boost@@QEAA@AEBV012@@Z@4HA 0000000180038210 f   init.obj
 0001:00037210       ?dtor$0@?0???0?$clone_impl@U?$error_info_injector@Vvalidation_error@program_options@boost@@@exception_detail@boost@@@exception_detail@boost@@QEAA@AEBV012@@Z@4HA 0000000180038210 f   init.obj
 0001:00037240       ?dtor$0@?0???0?$error_info_injector@Vbad_lexical_cast@boost@@@exception_detail@boost@@QEAA@AEBU012@@Z@4HA 0000000180038240 f   init.obj
 0001:00037240       ?dtor$0@?0???0system_error@system@boost@@QEAA@AEBV012@@Z@4HA 0000000180038240 f   MovieFFMpeg:MovieFFMpeg.obj
 0001:00037250       ?dtor$0@?0???0?$error_info_injector@Vinvalid_option_value@program_options@boost@@@exception_detail@boost@@QEAA@AEBU012@@Z@4HA 0000000180038250 f   init.obj
 0001:00037260       ?dtor$0@?0???0?$error_info_injector@Vvalidation_error@program_options@boost@@@exception_detail@boost@@QEAA@AEBU012@@Z@4HA 0000000180038260 f   init.obj
 0001:00037270       ?catch$0@?0???0?$vector@PEAEV?$allocator@PEAE@std@@@std@@QEAA@_KAEBV?$allocator@PEAE@1@@Z@4HA 0000000180038270 f   MovieFFMpeg:MovieFFMpeg.obj
 0001:00037270       ?catch$0@?0???0?$vector@PEAHV?$allocator@PEAH@std@@@std@@QEAA@_KAEBV?$allocator@PEAH@1@@Z@4HA 0000000180038270 f   MovieFFMpeg:MovieFFMpeg.obj
 0001:00037270       ?catch$0@?0???0?$vector@PEANV?$allocator@PEAN@std@@@std@@QEAA@_KAEBV?$allocator@PEAN@1@@Z@4HA 0000000180038270 f   MovieFFMpeg:MovieFFMpeg.obj
 0001:00037270       ?catch$0@?0???0?$vector@PEAMV?$allocator@PEAM@std@@@std@@QEAA@_KAEBV?$allocator@PEAM@1@@Z@4HA 0000000180038270 f   MovieFFMpeg:MovieFFMpeg.obj
 0001:00037270       ?catch$0@?0???0?$vector@PEBDV?$allocator@PEBD@std@@@std@@QEAA@_KAEBV?$allocator@PEBD@1@@Z@4HA 0000000180038270 f   init.obj
 0001:00037270       ?catch$0@?0???0?$vector@PEAFV?$allocator@PEAF@std@@@std@@QEAA@_KAEBV?$allocator@PEAF@1@@Z@4HA 0000000180038270 f   MovieFFMpeg:MovieFFMpeg.obj
 0001:0003727d       __catch$??0?$vector@PEAHV?$allocator@PEAH@std@@@std@@QEAA@_KAEBV?$allocator@PEAH@1@@Z$0 000000018003827d f   MovieFFMpeg:MovieFFMpeg.obj
 0001:0003727d       __catch$??0?$vector@PEAEV?$allocator@PEAE@std@@@std@@QEAA@_KAEBV?$allocator@PEAE@1@@Z$0 000000018003827d f   MovieFFMpeg:MovieFFMpeg.obj
 0001:0003727d       __catch$??0?$vector@PEBDV?$allocator@PEBD@std@@@std@@QEAA@_KAEBV?$allocator@PEBD@1@@Z$0 000000018003827d f   init.obj
 0001:0003727d       __catch$??0?$vector@PEAFV?$allocator@PEAF@std@@@std@@QEAA@_KAEBV?$allocator@PEAF@1@@Z$0 000000018003827d f   MovieFFMpeg:MovieFFMpeg.obj
 0001:0003727d       __catch$??0?$vector@PEANV?$allocator@PEAN@std@@@std@@QEAA@_KAEBV?$allocator@PEAN@1@@Z$0 000000018003827d f   MovieFFMpeg:MovieFFMpeg.obj
 0001:0003727d       __catch$??0?$vector@PEAMV?$allocator@PEAM@std@@@std@@QEAA@_KAEBV?$allocator@PEAM@1@@Z$0 000000018003827d f   MovieFFMpeg:MovieFFMpeg.obj
 0001:00037290       ?catch$4@?0???0?$vector@V?$basic_option@D@program_options@boost@@V?$allocator@V?$basic_option@D@program_options@boost@@@std@@@std@@QEAA@AEBV01@@Z@4HA 0000000180038290 f   init.obj
 0001:0003729d       __catch$??0?$vector@V?$basic_option@D@program_options@boost@@V?$allocator@V?$basic_option@D@program_options@boost@@@std@@@std@@QEAA@AEBV01@@Z$0 000000018003829d f   init.obj
 0001:000372b0       ?dtor$0@?0???0?$vector@V?$basic_option@D@program_options@boost@@V?$allocator@V?$basic_option@D@program_options@boost@@@std@@@std@@QEAA@AEBV01@@Z@4HA 00000001800382b0 f   init.obj
 0001:000372c0       ?dtor$1@?0???0?$vector@V?$basic_option@D@program_options@boost@@V?$allocator@V?$basic_option@D@program_options@boost@@@std@@@std@@QEAA@AEBV01@@Z@4HA 00000001800382c0 f   init.obj
 0001:000372c0       ?dtor$0@?0??collectParameters@MovieFFMpegIO@TwkMovie@@AEAAXPEBVAVClass@@PEAV?$vector@UParameter@MovieIO@TwkMovie@@V?$allocator@UParameter@MovieIO@TwkMovie@@@std@@@std@@1V?$basic_string@DU?$char_traits@D@std@@V?$allocator@D@2@@5@2@Z@4HA 00000001800382c0 f   MovieFFMpeg:MovieFFMpeg.obj
 0001:000372d0       ?dtor$2@?0???0?$vector@V?$basic_option@D@program_options@boost@@V?$allocator@V?$basic_option@D@program_options@boost@@@std@@@std@@QEAA@AEBV01@@Z@4HA 00000001800382d0 f   init.obj
 0001:000372e0       ?catch$0@?0???0?$vector@V?$basic_string@DU?$char_traits@D@std@@V?$allocator@D@2@@std@@V?$allocator@V?$basic_string@DU?$char_traits@D@std@@V?$allocator@D@2@@std@@@2@@std@@QEAA@AEBV01@@Z@4HA 00000001800382e0 f   init.obj
 0001:000372ed       __catch$??0?$vector@V?$basic_string@DU?$char_traits@D@std@@V?$allocator@D@2@@std@@V?$allocator@V?$basic_string@DU?$char_traits@D@std@@V?$allocator@D@2@@std@@@2@@std@@QEAA@AEBV01@@Z$0 00000001800382ed f   init.obj
 0001:00037300       ?dtor$0@?0???8locale@std@@QEBA_NAEBV01@@Z@4HA 0000000180038300 f   init.obj
 0001:00037330       ?dtor$1@?0???8locale@std@@QEBA_NAEBV01@@Z@4HA 0000000180038330 f   init.obj
 0001:00037360       ?catch$0@?0??_Init@?$numpunct@D@std@@IEAAXAEBV_Locinfo@2@_N@Z@4HA 0000000180038360 f   init.obj
 0001:0003736d       __catch$?_Init@?$numpunct@D@std@@IEAAXAEBV_Locinfo@2@_N@Z$0 000000018003836d f   init.obj
 0001:00037380       ?dtor$0@?0??clone@?$clone_impl@U?$error_info_injector@Vbad_lexical_cast@boost@@@exception_detail@boost@@@exception_detail@boost@@EEBAPEBVclone_base@23@XZ@4HA 0000000180038380 f   init.obj
 0001:000373a0       ?dtor$1@?0??clone@?$clone_impl@U?$error_info_injector@Vbad_lexical_cast@boost@@@exception_detail@boost@@@exception_detail@boost@@EEBAPEBVclone_base@23@XZ@4HA 00000001800383a0 f   init.obj
 0001:000373d0       ?dtor$2@?0??clone@?$clone_impl@U?$error_info_injector@Vbad_lexical_cast@boost@@@exception_detail@boost@@@exception_detail@boost@@EEBAPEBVclone_base@23@XZ@4HA 00000001800383d0 f   init.obj
 0001:000373e0       ?dtor$0@?0??clone@?$clone_impl@U?$error_info_injector@Vvalidation_error@program_options@boost@@@exception_detail@boost@@@exception_detail@boost@@EEBAPEBVclone_base@23@XZ@4HA 00000001800383e0 f   init.obj
 0001:000373e0       ?dtor$0@?0??clone@?$clone_impl@U?$error_info_injector@Vinvalid_option_value@program_options@boost@@@exception_detail@boost@@@exception_detail@boost@@EEBAPEBVclone_base@23@XZ@4HA 00000001800383e0 f   init.obj
 0001:00037400       ?dtor$1@?0??clone@?$clone_impl@U?$error_info_injector@Vvalidation_error@program_options@boost@@@exception_detail@boost@@@exception_detail@boost@@EEBAPEBVclone_base@23@XZ@4HA 0000000180038400 f   init.obj
 0001:00037400       ?dtor$1@?0??clone@?$clone_impl@U?$error_info_injector@Vinvalid_option_value@program_options@boost@@@exception_detail@boost@@@exception_detail@boost@@EEBAPEBVclone_base@23@XZ@4HA 0000000180038400 f   init.obj
 0001:00037430       ?dtor$2@?0??clone@?$clone_impl@U?$error_info_injector@Vinvalid_option_value@program_options@boost@@@exception_detail@boost@@@exception_detail@boost@@EEBAPEBVclone_base@23@XZ@4HA 0000000180038430 f   init.obj
 0001:00037440       ?dtor$2@?0??clone@?$clone_impl@U?$error_info_injector@Vvalidation_error@program_options@boost@@@exception_detail@boost@@@exception_detail@boost@@EEBAPEBVclone_base@23@XZ@4HA 0000000180038440 f   init.obj
 0001:00037450       ?dtor$0@?0??clone@?$holder@V?$basic_string@DU?$char_traits@D@std@@V?$allocator@D@2@@std@@@any@boost@@UEBAPEAVplaceholder@23@XZ@4HA 0000000180038450 f   init.obj
 0001:00037470       ?dtor$1@?0??clone@?$holder@V?$basic_string@DU?$char_traits@D@std@@V?$allocator@D@2@@std@@@any@boost@@UEBAPEAVplaceholder@23@XZ@4HA 0000000180038470 f   init.obj
 0001:00037480       ?dtor$0@?0??convert@?$lcast_put_unsigned@U?$char_traits@D@std@@ID@detail@boost@@QEAAPEADXZ@4HA 0000000180038480 f   init.obj
 0001:00037480       ?dtor$0@?0??convert@?$lcast_ret_unsigned@U?$char_traits@D@std@@ID@detail@boost@@QEAA_NXZ@4HA 0000000180038480 f   init.obj
 0001:00037480       ?dtor$1@?0??codecHasSlowAccess@?A0xaa42c127@TwkMovie@@YA_NV?$basic_string@DU?$char_traits@D@std@@V?$allocator@D@2@@std@@@Z@4HA 0000000180038480 f   MovieFFMpeg:MovieFFMpeg.obj
 0001:00037490       ?dtor$0@?0??copy_boost_exception@exception_detail@boost@@YAXPEAVexception@2@PEBV32@@Z@4HA 0000000180038490 f   init.obj
 0001:000374a0       ?dtor$1@?0??copy_boost_exception@exception_detail@boost@@YAXPEAVexception@2@PEBV32@@Z@4HA 00000001800384a0 f   init.obj
 0001:000374b0       ?dtor$4@?0??default_value@?$typed_value@HD@program_options@boost@@QEAAPEAV123@AEBH@Z@4HA 00000001800384b0 f   init.obj
 0001:000374e0       ?dtor$5@?0??name@?$typed_value@ND@program_options@boost@@UEBA?AV?$basic_string@DU?$char_traits@D@std@@V?$allocator@D@2@@std@@XZ@4HA 00000001800384e0 f   init.obj
 0001:000374e0       ?dtor$5@?0??name@?$typed_value@V?$basic_string@DU?$char_traits@D@std@@V?$allocator@D@2@@std@@D@program_options@boost@@UEBA?AV?$basic_string@DU?$char_traits@D@std@@V?$allocator@D@2@@std@@XZ@4HA 00000001800384e0 f   init.obj
 0001:000374e0       ?dtor$7@?0??name@?$typed_value@HD@program_options@boost@@UEBA?AV?$basic_string@DU?$char_traits@D@std@@V?$allocator@D@2@@std@@XZ@4HA 00000001800384e0 f   init.obj
 0001:000374e0       ?dtor$7@?0??name@?$typed_value@ND@program_options@boost@@UEBA?AV?$basic_string@DU?$char_traits@D@std@@V?$allocator@D@2@@std@@XZ@4HA 00000001800384e0 f   init.obj
 0001:000374e0       ?dtor$1@?0??name@?$typed_value@HD@program_options@boost@@UEBA?AV?$basic_string@DU?$char_traits@D@std@@V?$allocator@D@2@@std@@XZ@4HA 00000001800384e0 f   init.obj
 0001:000374e0       ?dtor$1@?0??name@?$typed_value@V?$basic_string@DU?$char_traits@D@std@@V?$allocator@D@2@@std@@D@program_options@boost@@UEBA?AV?$basic_string@DU?$char_traits@D@std@@V?$allocator@D@2@@std@@XZ@4HA 00000001800384e0 f   init.obj
 0001:000374e0       ?dtor$7@?0??name@?$typed_value@V?$basic_string@DU?$char_traits@D@std@@V?$allocator@D@2@@std@@D@program_options@boost@@UEBA?AV?$basic_string@DU?$char_traits@D@std@@V?$allocator@D@2@@std@@XZ@4HA 00000001800384e0 f   init.obj
 0001:000374e0       ?dtor$5@?0??name@?$typed_value@HD@program_options@boost@@UEBA?AV?$basic_string@DU?$char_traits@D@std@@V?$allocator@D@2@@std@@XZ@4HA 00000001800384e0 f   init.obj
 0001:000374e0       ?dtor$1@?0??name@?$typed_value@ND@program_options@boost@@UEBA?AV?$basic_string@DU?$char_traits@D@std@@V?$allocator@D@2@@std@@XZ@4HA 00000001800384e0 f   init.obj
 0001:000374f0       ?dtor$8@?0??name@?$typed_value@V?$basic_string@DU?$char_traits@D@std@@V?$allocator@D@2@@std@@D@program_options@boost@@UEBA?AV?$basic_string@DU?$char_traits@D@std@@V?$allocator@D@2@@std@@XZ@4HA 00000001800384f0 f   init.obj
 0001:000374f0       ?dtor$8@?0??name@?$typed_value@ND@program_options@boost@@UEBA?AV?$basic_string@DU?$char_traits@D@std@@V?$allocator@D@2@@std@@XZ@4HA 00000001800384f0 f   init.obj
 0001:000374f0       ?dtor$8@?0??name@?$typed_value@HD@program_options@boost@@UEBA?AV?$basic_string@DU?$char_traits@D@std@@V?$allocator@D@2@@std@@XZ@4HA 00000001800384f0 f   init.obj
 0001:000374f0       ?dtor$2@?0??name@?$typed_value@HD@program_options@boost@@UEBA?AV?$basic_string@DU?$char_traits@D@std@@V?$allocator@D@2@@std@@XZ@4HA 00000001800384f0 f   init.obj
 0001:000374f0       ?dtor$2@?0??name@?$typed_value@ND@program_options@boost@@UEBA?AV?$basic_string@DU?$char_traits@D@std@@V?$allocator@D@2@@std@@XZ@4HA 00000001800384f0 f   init.obj
 0001:000374f0       ?dtor$2@?0??name@?$typed_value@V?$basic_string@DU?$char_traits@D@std@@V?$allocator@D@2@@std@@D@program_options@boost@@UEBA?AV?$basic_string@DU?$char_traits@D@std@@V?$allocator@D@2@@std@@XZ@4HA 00000001800384f0 f   init.obj
 0001:000374f0       ?dtor$2@?0??imagesAtFrame@MovieFFMpegReader@TwkMovie@@UEAAXAEBUReadRequest@Movie@2@AEAV?$vector@PEAVFrameBuffer@TwkFB@@V?$allocator@PEAVFrameBuffer@TwkFB@@@std@@@std@@@Z@4HA 00000001800384f0 f   MovieFFMpeg:MovieFFMpeg.obj
 0001:000374f0       ?dtor$11@?0??imagesAtFrame@MovieFFMpegReader@TwkMovie@@UEAAXAEBUReadRequest@Movie@2@AEAV?$vector@PEAVFrameBuffer@TwkFB@@V?$allocator@PEAVFrameBuffer@TwkFB@@@std@@@std@@@Z@4HA 00000001800384f0 f   MovieFFMpeg:MovieFFMpeg.obj
 0001:000374f0       ?dtor$1@?0??imagesAtFrame@MovieFFMpegReader@TwkMovie@@UEAAXAEBUReadRequest@Movie@2@AEAV?$vector@PEAVFrameBuffer@TwkFB@@V?$allocator@PEAVFrameBuffer@TwkFB@@@std@@@std@@@Z@4HA 00000001800384f0 f   MovieFFMpeg:MovieFFMpeg.obj
 0001:00037500       ?dtor$3@?0??name@?$typed_value@HD@program_options@boost@@UEBA?AV?$basic_string@DU?$char_traits@D@std@@V?$allocator@D@2@@std@@XZ@4HA 0000000180038500 f   init.obj
 0001:00037500       ?dtor$3@?0??name@?$typed_value@ND@program_options@boost@@UEBA?AV?$basic_string@DU?$char_traits@D@std@@V?$allocator@D@2@@std@@XZ@4HA 0000000180038500 f   init.obj
 0001:00037500       ?dtor$3@?0??name@?$typed_value@V?$basic_string@DU?$char_traits@D@std@@V?$allocator@D@2@@std@@D@program_options@boost@@UEBA?AV?$basic_string@DU?$char_traits@D@std@@V?$allocator@D@2@@std@@XZ@4HA 0000000180038500 f   init.obj
 0001:00037500       ?dtor$1@?0??applyCodecParameters@MovieFFMpegWriter@TwkMovie@@AEAAXPEAUAVCodecContext@@_N@Z@4HA 0000000180038500 f   MovieFFMpeg:MovieFFMpeg.obj
 0001:00037510       ?dtor$9@?0??name@?$typed_value@ND@program_options@boost@@UEBA?AV?$basic_string@DU?$char_traits@D@std@@V?$allocator@D@2@@std@@XZ@4HA 0000000180038510 f   init.obj
 0001:00037510       ?dtor$9@?0??name@?$typed_value@V?$basic_string@DU?$char_traits@D@std@@V?$allocator@D@2@@std@@D@program_options@boost@@UEBA?AV?$basic_string@DU?$char_traits@D@std@@V?$allocator@D@2@@std@@XZ@4HA 0000000180038510 f   init.obj
 0001:00037510       ?dtor$9@?0??name@?$typed_value@HD@program_options@boost@@UEBA?AV?$basic_string@DU?$char_traits@D@std@@V?$allocator@D@2@@std@@XZ@4HA 0000000180038510 f   init.obj
 0001:00037540       ?dtor$29@?0??name@?$typed_value@V?$basic_string@DU?$char_traits@D@std@@V?$allocator@D@2@@std@@D@program_options@boost@@UEBA?AV?$basic_string@DU?$char_traits@D@std@@V?$allocator@D@2@@std@@XZ@4HA 0000000180038540 f   init.obj
 0001:00037540       ?dtor$29@?0??name@?$typed_value@HD@program_options@boost@@UEBA?AV?$basic_string@DU?$char_traits@D@std@@V?$allocator@D@2@@std@@XZ@4HA 0000000180038540 f   init.obj
 0001:00037540       ?dtor$29@?0??name@?$typed_value@ND@program_options@boost@@UEBA?AV?$basic_string@DU?$char_traits@D@std@@V?$allocator@D@2@@std@@XZ@4HA 0000000180038540 f   init.obj
 0001:00037570       ?dtor$2@?0??copyWithPrefix@?$TypedFBAttribute@V?$basic_string@DU?$char_traits@D@std@@V?$allocator@D@2@@std@@@TwkFB@@UEBAPEAVFBAttribute@2@AEBV?$basic_string@DU?$char_traits@D@std@@V?$allocator@D@2@@std@@@Z@4HA 0000000180038570 f   MovieFFMpeg:MovieFFMpeg.obj
 0001:00037570       ?dtor$0@?0??name@locale@std@@QEBA?AV?$basic_string@DU?$char_traits@D@std@@V?$allocator@D@2@@2@XZ@4HA 0000000180038570 f   init.obj
 0001:000375a0       ?dtor$0@?0??try_convert@?$lexical_converter_impl@V?$basic_string@DU?$char_traits@D@std@@V?$allocator@D@2@@std@@N@detail@boost@@SA_NAEBNAEAV?$basic_string@DU?$char_traits@D@std@@V?$allocator@D@2@@std@@@Z@4HA 00000001800385a0 f   init.obj
 0001:000375b0       create$catch$59            00000001800385b0 f   init.obj
 0001:000375be       __catch$create$0           00000001800385be f   init.obj
 0001:0003764a       create$catch$60            000000018003864a f   init.obj
 0001:00037657       __catch$create$1           0000000180038657 f   init.obj
 0001:000376b0       create$dtor$0              00000001800386b0 f   init.obj
 0001:000376b0       ?dtor$15@?0??decodeImageAtFrame@MovieFFMpegReader@TwkMovie@@AEAAPEAVFrameBuffer@TwkFB@@HPEAUVideoTrack@2@@Z@4HA 00000001800386b0 f   MovieFFMpeg:MovieFFMpeg.obj
 0001:000376c0       ?dtor$0@?0??applyCodecParameters@MovieFFMpegWriter@TwkMovie@@AEAAXPEAUAVCodecContext@@_N@Z@4HA 00000001800386c0 f   MovieFFMpeg:MovieFFMpeg.obj
 0001:000376c0       create$dtor$1              00000001800386c0 f   init.obj
 0001:000376d0       create$dtor$3              00000001800386d0 f   init.obj
 0001:000376e0       ?dtor$5@?0??finishTrackFBAttrs@MovieFFMpegReader@TwkMovie@@AEAAXPEAVFrameBuffer@TwkFB@@V?$basic_string@DU?$char_traits@D@std@@V?$allocator@D@2@@std@@@Z@4HA 00000001800386e0 f   MovieFFMpeg:MovieFFMpeg.obj
 0001:000376e0       ?dtor$7@?0??open@MovieFFMpegWriter@TwkMovie@@UEAA?AUMovieInfo@2@AEBU32@AEBV?$basic_string@DU?$char_traits@D@std@@V?$allocator@D@2@@std@@AEBUWriteRequest@Movie@2@@Z@4HA 00000001800386e0 f   MovieFFMpeg:MovieFFMpeg.obj
 0001:000376e0       ?dtor$2@?0??finishTrackFBAttrs@MovieFFMpegReader@TwkMovie@@AEAAXPEAVFrameBuffer@TwkFB@@V?$basic_string@DU?$char_traits@D@std@@V?$allocator@D@2@@std@@@Z@4HA 00000001800386e0 f   MovieFFMpeg:MovieFFMpeg.obj
 0001:000376e0       create$dtor$4              00000001800386e0 f   init.obj
 0001:000376e0       ?dtor$5@?0??collectParameters@MovieFFMpegIO@TwkMovie@@AEAAXPEBVAVClass@@PEAV?$vector@UParameter@MovieIO@TwkMovie@@V?$allocator@UParameter@MovieIO@TwkMovie@@@std@@@std@@1V?$basic_string@DU?$char_traits@D@std@@V?$allocator@D@2@@5@2@Z@4HA 00000001800386e0 f   MovieFFMpeg:MovieFFMpeg.obj
 0001:000376f0       create$dtor$5              00000001800386f0 f   init.obj
 0001:00037700       create$dtor$6              0000000180038700 f   init.obj
 0001:00037710       create$dtor$8              0000000180038710 f   init.obj
 0001:00037720       create$dtor$9              0000000180038720 f   init.obj
 0001:00037740       create$dtor$24             0000000180038740 f   init.obj
 0001:00037770       create$dtor$36             0000000180038770 f   init.obj
 0001:00037790       create$dtor$37             0000000180038790 f   init.obj
 0001:000377a0       create$dtor$40             00000001800387a0 f   init.obj
 0001:000377d0       ?dtor$0@?0???$?0AEAPEBDAEAPEBD$0A@@?$pair@V?$basic_string@DU?$char_traits@D@std@@V?$allocator@D@2@@std@@V12@@std@@QEAA@AEAPEBD0@Z@4HA 00000001800387d0 f   MovieFFMpeg:MovieFFMpeg.obj
 0001:000377d0       ?dtor$0@?0??push_back@?$vector@U?$pair@V?$basic_string@DU?$char_traits@D@std@@V?$allocator@D@2@@std@@V12@@std@@V?$allocator@U?$pair@V?$basic_string@DU?$char_traits@D@std@@V?$allocator@D@2@@std@@V12@@std@@@2@@std@@QEAAXAEBU?$pair@V?$basic_string@DU?$char_traits@D@std@@V?$allocator@D@2@@std@@V12@@2@@Z@4HA 00000001800387d0 f   MovieFFMpeg:MovieFFMpeg.obj
 0001:000377d0       ?dtor$61@?0???0MovieFFMpegIO@TwkMovie@@QEAA@P6A_NV?$basic_string@DU?$char_traits@D@std@@V?$allocator@D@2@@std@@_N@Z1H0N@Z@4HA 00000001800387d0 f   MovieFFMpeg:MovieFFMpeg.obj
 0001:000377d0       ?dtor$0@?0???0VideoTrack@TwkMovie@@QEAA@XZ@4HA 00000001800387d0 f   MovieFFMpeg:MovieFFMpeg.obj
 0001:000377e0       ?dtor$0@?0???$?0V?$basic_string@DU?$char_traits@D@std@@V?$allocator@D@2@@std@@@path@filesystem@boost@@QEAA@AEBV?$basic_string@DU?$char_traits@D@std@@V?$allocator@D@2@@std@@PEAX@Z@4HA 00000001800387e0 f   MovieFFMpeg:MovieFFMpeg.obj
 0001:000377f0       ?catch$0@?0???$_Buynode@AEAU?$pair@$$CBHH@std@@@?$_Tree_comp_alloc@V?$_Tmap_traits@HHU?$less@H@std@@V?$allocator@U?$pair@$$CBHH@std@@@2@$0A@@std@@@std@@QEAAPEAU?$_Tree_node@U?$pair@$$CBHH@std@@PEAX@1@AEAU?$pair@$$CBHH@1@@Z@4HA 00000001800387f0 f   MovieFFMpeg:MovieFFMpeg.obj
 0001:000377fd       __catch$??$_Buynode@AEAU?$pair@$$CBHH@std@@@?$_Tree_comp_alloc@V?$_Tmap_traits@HHU?$less@H@std@@V?$allocator@U?$pair@$$CBHH@std@@@2@$0A@@std@@@std@@QEAAPEAU?$_Tree_node@U?$pair@$$CBHH@std@@PEAX@1@AEAU?$pair@$$CBHH@1@@Z$0 00000001800387fd f   MovieFFMpeg:MovieFFMpeg.obj
 0001:00037820       ?catch$0@?0???$_Buynode@AEBD@?$_Tree_comp_alloc@V?$_Tset_traits@DU?$less@D@std@@V?$allocator@D@2@$0A@@std@@@std@@QEAAPEAU?$_Tree_node@DPEAX@1@AEBD@Z@4HA 0000000180038820 f   MovieFFMpeg:MovieFFMpeg.obj
 0001:0003782d       __catch$??$_Buynode@AEBD@?$_Tree_comp_alloc@V?$_Tset_traits@DU?$less@D@std@@V?$allocator@D@2@$0A@@std@@@std@@QEAAPEAU?$_Tree_node@DPEAX@1@AEBD@Z$0 000000018003882d f   MovieFFMpeg:MovieFFMpeg.obj
 0001:00037850       ?catch$0@?0???$_Buynode@AEBH@?$_Tree_comp_alloc@V?$_Tset_traits@HU?$less@H@std@@V?$allocator@H@2@$0A@@std@@@std@@QEAAPEAU?$_Tree_node@HPEAX@1@AEBH@Z@4HA 0000000180038850 f   MovieFFMpeg:MovieFFMpeg.obj
 0001:0003785d       __catch$??$_Buynode@AEBH@?$_Tree_comp_alloc@V?$_Tset_traits@HU?$less@H@std@@V?$allocator@H@2@$0A@@std@@@std@@QEAAPEAU?$_Tree_node@HPEAX@1@AEBH@Z$0 000000018003885d f   MovieFFMpeg:MovieFFMpeg.obj
 0001:00037880       ?catch$0@?0???$_Buynode@AEBUpiecewise_construct_t@std@@V?$tuple@$$QEAU?$pair@PEAVMovieFFMpegReader@TwkMovie@@H@std@@@2@V?$tuple@$$V@2@@?$_Tree_comp_alloc@V?$_Tmap_traits@U?$pair@PEAVMovieFFMpegReader@TwkMovie@@H@std@@UContext@ContextPool@TwkMovie@@U?$less@U?$pair@PEAVMovieFFMpegReader@TwkMovie@@H@std@@@2@V?$allocator@U?$pair@$$CBU?$pair@PEAVMovieFFMpegReader@TwkMovie@@H@std@@UContext@ContextPool@TwkMovie@@@std@@@2@$0A@@std@@@std@@QEAAPEAU?$_Tree_node@U?$pair@$$CBU?$pair@PEAVMovieFFMpegReader@TwkMovie@@H@std@@UContext@ContextPool@TwkMovie@@@std@@PEAX@1@AEBUpiecewise_construct_t@1@$$QEAV?$tuple@$$QEAU?$pair@PEAVMovieFFMpegReader@TwkMovie@@H@std@@@1@$$QEAV?$tuple@$$V@1@@Z@4HA 0000000180038880 f   MovieFFMpeg:MovieFFMpeg.obj
 0001:0003788d       __catch$??$_Buynode@AEBUpiecewise_construct_t@std@@V?$tuple@$$QEAU?$pair@PEAVMovieFFMpegReader@TwkMovie@@H@std@@@2@V?$tuple@$$V@2@@?$_Tree_comp_alloc@V?$_Tmap_traits@U?$pair@PEAVMovieFFMpegReader@TwkMovie@@H@std@@UContext@ContextPool@TwkMovie@@U?$less@U?$pair@PEAVMovieFFMpegReader@TwkMovie@@H@std@@@2@V?$allocator@U?$pair@$$CBU?$pair@PEAVMovieFFMpegReader@TwkMovie@@H@std@@UContext@ContextPool@TwkMovie@@@std@@@2@$0A@@std@@@std@@QEAAPEAU?$_Tree_node@U?$pair@$$CBU?$pair@PEAVMovieFFMpegReader@TwkMovie@@H@std@@UContext@ContextPool@TwkMovie@@@std@@PEAX@1@AEBUpiecewise_construct_t@1@$$QEAV?$tuple@$$QEAU?$pair@PEAVMovieFFMpegReader@TwkMovie@@H@std@@@1@$$QEAV?$tuple@$$V@1@@Z$0 000000018003888d f   MovieFFMpeg:MovieFFMpeg.obj
 0001:000378b0       ?catch$1@?0???$_Buynode@AEBUpiecewise_construct_t@std@@V?$tuple@$$QEAV?$basic_string@DU?$char_traits@D@std@@V?$allocator@D@2@@std@@@2@V?$tuple@$$V@2@@?$_Tree_comp_alloc@V?$_Tmap_traits@V?$basic_string@DU?$char_traits@D@std@@V?$allocator@D@2@@std@@HU?$less@V?$basic_string@DU?$char_traits@D@std@@V?$allocator@D@2@@std@@@2@V?$allocator@U?$pair@$$CBV?$basic_string@DU?$char_traits@D@std@@V?$allocator@D@2@@std@@H@std@@@2@$0A@@std@@@std@@QEAAPEAU?$_Tree_node@U?$pair@$$CBV?$basic_string@DU?$char_traits@D@std@@V?$allocator@D@2@@std@@H@std@@PEAX@1@AEBUpiecewise_construct_t@1@$$QEAV?$tuple@$$QEAV?$basic_string@DU?$char_traits@D@std@@V?$allocator@D@2@@std@@@1@$$QEAV?$tuple@$$V@1@@Z@4HA 00000001800388b0 f   MovieFFMpeg:MovieFFMpeg.obj
 0001:000378bd       __catch$??$_Buynode@AEBUpiecewise_construct_t@std@@V?$tuple@$$QEAV?$basic_string@DU?$char_traits@D@std@@V?$allocator@D@2@@std@@@2@V?$tuple@$$V@2@@?$_Tree_comp_alloc@V?$_Tmap_traits@V?$basic_string@DU?$char_traits@D@std@@V?$allocator@D@2@@std@@HU?$less@V?$basic_string@DU?$char_traits@D@std@@V?$allocator@D@2@@std@@@2@V?$allocator@U?$pair@$$CBV?$basic_string@DU?$char_traits@D@std@@V?$allocator@D@2@@std@@H@std@@@2@$0A@@std@@@std@@QEAAPEAU?$_Tree_node@U?$pair@$$CBV?$basic_string@DU?$char_traits@D@std@@V?$allocator@D@2@@std@@H@std@@PEAX@1@AEBUpiecewise_construct_t@1@$$QEAV?$tuple@$$QEAV?$basic_string@DU?$char_traits@D@std@@V?$allocator@D@2@@std@@@1@$$QEAV?$tuple@$$V@1@@Z$0 00000001800388bd f   MovieFFMpeg:MovieFFMpeg.obj
 0001:000378e0       ?catch$3@?0???$_Buynode@AEBUpiecewise_construct_t@std@@V?$tuple@$$QEAV?$basic_string@DU?$char_traits@D@std@@V?$allocator@D@2@@std@@@2@V?$tuple@$$V@2@@?$_Tree_comp_alloc@V?$_Tmap_traits@V?$basic_string@DU?$char_traits@D@std@@V?$allocator@D@2@@std@@U?$pair@V?$basic_string@DU?$char_traits@D@std@@V?$allocator@D@2@@std@@I@2@U?$less@V?$basic_string@DU?$char_traits@D@std@@V?$allocator@D@2@@std@@@2@V?$allocator@U?$pair@$$CBV?$basic_string@DU?$char_traits@D@std@@V?$allocator@D@2@@std@@U?$pair@V?$basic_string@DU?$char_traits@D@std@@V?$allocator@D@2@@std@@I@2@@std@@@2@$0A@@std@@@std@@QEAAPEAU?$_Tree_node@U?$pair@$$CBV?$basic_string@DU?$char_traits@D@std@@V?$allocator@D@2@@std@@U?$pair@V?$basic_string@DU?$char_traits@D@std@@V?$allocator@D@2@@std@@I@2@@std@@PEAX@1@AEBUpiecewise_construct_t@1@$$QEAV?$tuple@$$QEAV?$basic_string@DU?$char_traits@D@std@@V?$allocator@D@2@@std@@@1@$$QEAV?$tuple@$$V@1@@Z@4HA 00000001800388e0 f   MovieFFMpeg:MovieFFMpeg.obj
 0001:000378ed       __catch$??$_Buynode@AEBUpiecewise_construct_t@std@@V?$tuple@$$QEAV?$basic_string@DU?$char_traits@D@std@@V?$allocator@D@2@@std@@@2@V?$tuple@$$V@2@@?$_Tree_comp_alloc@V?$_Tmap_traits@V?$basic_string@DU?$char_traits@D@std@@V?$allocator@D@2@@std@@U?$pair@V?$basic_string@DU?$char_traits@D@std@@V?$allocator@D@2@@std@@I@2@U?$less@V?$basic_string@DU?$char_traits@D@std@@V?$allocator@D@2@@std@@@2@V?$allocator@U?$pair@$$CBV?$basic_string@DU?$char_traits@D@std@@V?$allocator@D@2@@std@@U?$pair@V?$basic_string@DU?$char_traits@D@std@@V?$allocator@D@2@@std@@I@2@@std@@@2@$0A@@std@@@std@@QEAAPEAU?$_Tree_node@U?$pair@$$CBV?$basic_string@DU?$char_traits@D@std@@V?$allocator@D@2@@std@@U?$pair@V?$basic_string@DU?$char_traits@D@std@@V?$allocator@D@2@@std@@I@2@@std@@PEAX@1@AEBUpiecewise_construct_t@1@$$QEAV?$tuple@$$QEAV?$basic_string@DU?$char_traits@D@std@@V?$allocator@D@2@@std@@@1@$$QEAV?$tuple@$$V@1@@Z$0 00000001800388ed f   MovieFFMpeg:MovieFFMpeg.obj
 0001:00037910       ?catch$2@?0???$_Buynode@AEBUpiecewise_construct_t@std@@V?$tuple@$$QEAV?$basic_string@DU?$char_traits@D@std@@V?$allocator@D@2@@std@@@2@V?$tuple@$$V@2@@?$_Tree_comp_alloc@V?$_Tmap_traits@V?$basic_string@DU?$char_traits@D@std@@V?$allocator@D@2@@std@@V12@U?$less@V?$basic_string@DU?$char_traits@D@std@@V?$allocator@D@2@@std@@@2@V?$allocator@U?$pair@$$CBV?$basic_string@DU?$char_traits@D@std@@V?$allocator@D@2@@std@@V12@@std@@@2@$0A@@std@@@std@@QEAAPEAU?$_Tree_node@U?$pair@$$CBV?$basic_string@DU?$char_traits@D@std@@V?$allocator@D@2@@std@@V12@@std@@PEAX@1@AEBUpiecewise_construct_t@1@$$QEAV?$tuple@$$QEAV?$basic_string@DU?$char_traits@D@std@@V?$allocator@D@2@@std@@@1@$$QEAV?$tuple@$$V@1@@Z@4HA 0000000180038910 f   MovieFFMpeg:MovieFFMpeg.obj
 0001:0003791d       __catch$??$_Buynode@AEBUpiecewise_construct_t@std@@V?$tuple@$$QEAV?$basic_string@DU?$char_traits@D@std@@V?$allocator@D@2@@std@@@2@V?$tuple@$$V@2@@?$_Tree_comp_alloc@V?$_Tmap_traits@V?$basic_string@DU?$char_traits@D@std@@V?$allocator@D@2@@std@@V12@U?$less@V?$basic_string@DU?$char_traits@D@std@@V?$allocator@D@2@@std@@@2@V?$allocator@U?$pair@$$CBV?$basic_string@DU?$char_traits@D@std@@V?$allocator@D@2@@std@@V12@@std@@@2@$0A@@std@@@std@@QEAAPEAU?$_Tree_node@U?$pair@$$CBV?$basic_string@DU?$char_traits@D@std@@V?$allocator@D@2@@std@@V12@@std@@PEAX@1@AEBUpiecewise_construct_t@1@$$QEAV?$tuple@$$QEAV?$basic_string@DU?$char_traits@D@std@@V?$allocator@D@2@@std@@@1@$$QEAV?$tuple@$$V@1@@Z$0 000000018003891d f   MovieFFMpeg:MovieFFMpeg.obj
 0001:00037940       ?catch$0@?0???$_Buynode@AEBUpiecewise_construct_t@std@@V?$tuple@AEBU?$pair@HH@std@@@2@V?$tuple@$$V@2@@?$_Tree_comp_alloc@V?$_Tmap_traits@U?$pair@HH@std@@V?$vector@HV?$allocator@H@std@@@2@U?$less@U?$pair@HH@std@@@2@V?$allocator@U?$pair@$$CBU?$pair@HH@std@@V?$vector@HV?$allocator@H@std@@@2@@std@@@2@$0A@@std@@@std@@QEAAPEAU?$_Tree_node@U?$pair@$$CBU?$pair@HH@std@@V?$vector@HV?$allocator@H@std@@@2@@std@@PEAX@1@AEBUpiecewise_construct_t@1@$$QEAV?$tuple@AEBU?$pair@HH@std@@@1@$$QEAV?$tuple@$$V@1@@Z@4HA 0000000180038940 f   MovieFFMpeg:MovieFFMpeg.obj
 0001:0003794d       __catch$??$_Buynode@AEBUpiecewise_construct_t@std@@V?$tuple@AEBU?$pair@HH@std@@@2@V?$tuple@$$V@2@@?$_Tree_comp_alloc@V?$_Tmap_traits@U?$pair@HH@std@@V?$vector@HV?$allocator@H@std@@@2@U?$less@U?$pair@HH@std@@@2@V?$allocator@U?$pair@$$CBU?$pair@HH@std@@V?$vector@HV?$allocator@H@std@@@2@@std@@@2@$0A@@std@@@std@@QEAAPEAU?$_Tree_node@U?$pair@$$CBU?$pair@HH@std@@V?$vector@HV?$allocator@H@std@@@2@@std@@PEAX@1@AEBUpiecewise_construct_t@1@$$QEAV?$tuple@AEBU?$pair@HH@std@@@1@$$QEAV?$tuple@$$V@1@@Z$0 000000018003894d f   MovieFFMpeg:MovieFFMpeg.obj
 0001:00037970       ?catch$4@?0???$_Buynode@AEBUpiecewise_construct_t@std@@V?$tuple@AEBU?$pair@V?$basic_string@DU?$char_traits@D@std@@V?$allocator@D@2@@std@@H@std@@@2@V?$tuple@$$V@2@@?$_Tree_comp_alloc@V?$_Tmap_traits@U?$pair@V?$basic_string@DU?$char_traits@D@std@@V?$allocator@D@2@@std@@H@std@@V?$vector@HV?$allocator@H@std@@@2@U?$less@U?$pair@V?$basic_string@DU?$char_traits@D@std@@V?$allocator@D@2@@std@@H@std@@@2@V?$allocator@U?$pair@$$CBU?$pair@V?$basic_string@DU?$char_traits@D@std@@V?$allocator@D@2@@std@@H@std@@V?$vector@HV?$allocator@H@std@@@2@@std@@@2@$0A@@std@@@std@@QEAAPEAU?$_Tree_node@U?$pair@$$CBU?$pair@V?$basic_string@DU?$char_traits@D@std@@V?$allocator@D@2@@std@@H@std@@V?$vector@HV?$allocator@H@std@@@2@@std@@PEAX@1@AEBUpiecewise_construct_t@1@$$QEAV?$tuple@AEBU?$pair@V?$basic_string@DU?$char_traits@D@std@@V?$allocator@D@2@@std@@H@std@@@1@$$QEAV?$tuple@$$V@1@@Z@4HA 0000000180038970 f   MovieFFMpeg:MovieFFMpeg.obj
 0001:0003797d       __catch$??$_Buynode@AEBUpiecewise_construct_t@std@@V?$tuple@AEBU?$pair@V?$basic_string@DU?$char_traits@D@std@@V?$allocator@D@2@@std@@H@std@@@2@V?$tuple@$$V@2@@?$_Tree_comp_alloc@V?$_Tmap_traits@U?$pair@V?$basic_string@DU?$char_traits@D@std@@V?$allocator@D@2@@std@@H@std@@V?$vector@HV?$allocator@H@std@@@2@U?$less@U?$pair@V?$basic_string@DU?$char_traits@D@std@@V?$allocator@D@2@@std@@H@std@@@2@V?$allocator@U?$pair@$$CBU?$pair@V?$basic_string@DU?$char_traits@D@std@@V?$allocator@D@2@@std@@H@std@@V?$vector@HV?$allocator@H@std@@@2@@std@@@2@$0A@@std@@@std@@QEAAPEAU?$_Tree_node@U?$pair@$$CBU?$pair@V?$basic_string@DU?$char_traits@D@std@@V?$allocator@D@2@@std@@H@std@@V?$vector@HV?$allocator@H@std@@@2@@std@@PEAX@1@AEBUpiecewise_construct_t@1@$$QEAV?$tuple@AEBU?$pair@V?$basic_string@DU?$char_traits@D@std@@V?$allocator@D@2@@std@@H@std@@@1@$$QEAV?$tuple@$$V@1@@Z$0 000000018003897d f   MovieFFMpeg:MovieFFMpeg.obj
 0001:000379a0       ?catch$4@?0???$_Buynode@AEBUpiecewise_construct_t@std@@V?$tuple@AEBV?$basic_string@DU?$char_traits@D@std@@V?$allocator@D@2@@std@@@2@V?$tuple@$$V@2@@?$_Tree_comp_alloc@V?$_Tmap_traits@V?$basic_string@DU?$char_traits@D@std@@V?$allocator@D@2@@std@@V12@U?$less@V?$basic_string@DU?$char_traits@D@std@@V?$allocator@D@2@@std@@@2@V?$allocator@U?$pair@$$CBV?$basic_string@DU?$char_traits@D@std@@V?$allocator@D@2@@std@@V12@@std@@@2@$0A@@std@@@std@@QEAAPEAU?$_Tree_node@U?$pair@$$CBV?$basic_string@DU?$char_traits@D@std@@V?$allocator@D@2@@std@@V12@@std@@PEAX@1@AEBUpiecewise_construct_t@1@$$QEAV?$tuple@AEBV?$basic_string@DU?$char_traits@D@std@@V?$allocator@D@2@@std@@@1@$$QEAV?$tuple@$$V@1@@Z@4HA 00000001800389a0 f   MovieFFMpeg:MovieFFMpeg.obj
 0001:000379ad       __catch$??$_Buynode@AEBUpiecewise_construct_t@std@@V?$tuple@AEBV?$basic_string@DU?$char_traits@D@std@@V?$allocator@D@2@@std@@@2@V?$tuple@$$V@2@@?$_Tree_comp_alloc@V?$_Tmap_traits@V?$basic_string@DU?$char_traits@D@std@@V?$allocator@D@2@@std@@V12@U?$less@V?$basic_string@DU?$char_traits@D@std@@V?$allocator@D@2@@std@@@2@V?$allocator@U?$pair@$$CBV?$basic_string@DU?$char_traits@D@std@@V?$allocator@D@2@@std@@V12@@std@@@2@$0A@@std@@@std@@QEAAPEAU?$_Tree_node@U?$pair@$$CBV?$basic_string@DU?$char_traits@D@std@@V?$allocator@D@2@@std@@V12@@std@@PEAX@1@AEBUpiecewise_construct_t@1@$$QEAV?$tuple@AEBV?$basic_string@DU?$char_traits@D@std@@V?$allocator@D@2@@std@@@1@$$QEAV?$tuple@$$V@1@@Z$0 00000001800389ad f   MovieFFMpeg:MovieFFMpeg.obj
 0001:000379d0       ?catch$5@?0???$_Buynode@AEBUpiecewise_construct_t@std@@V?$tuple@AEBV?$basic_string@DU?$char_traits@D@std@@V?$allocator@D@2@@std@@@2@V?$tuple@$$V@2@@?$_Tree_comp_alloc@V?$_Tmap_traits@V?$basic_string@DU?$char_traits@D@std@@V?$allocator@D@2@@std@@V?$set@HU?$less@H@std@@V?$allocator@H@2@@2@U?$less@V?$basic_string@DU?$char_traits@D@std@@V?$allocator@D@2@@std@@@2@V?$allocator@U?$pair@$$CBV?$basic_string@DU?$char_traits@D@std@@V?$allocator@D@2@@std@@V?$set@HU?$less@H@std@@V?$allocator@H@2@@2@@std@@@2@$0A@@std@@@std@@QEAAPEAU?$_Tree_node@U?$pair@$$CBV?$basic_string@DU?$char_traits@D@std@@V?$allocator@D@2@@std@@V?$set@HU?$less@H@std@@V?$allocator@H@2@@2@@std@@PEAX@1@AEBUpiecewise_construct_t@1@$$QEAV?$tuple@AEBV?$basic_string@DU?$char_traits@D@std@@V?$allocator@D@2@@std@@@1@$$QEAV?$tuple@$$V@1@@Z@4HA 00000001800389d0 f   MovieFFMpeg:MovieFFMpeg.obj
 0001:000379dd       __catch$??$_Buynode@AEBUpiecewise_construct_t@std@@V?$tuple@AEBV?$basic_string@DU?$char_traits@D@std@@V?$allocator@D@2@@std@@@2@V?$tuple@$$V@2@@?$_Tree_comp_alloc@V?$_Tmap_traits@V?$basic_string@DU?$char_traits@D@std@@V?$allocator@D@2@@std@@V?$set@HU?$less@H@std@@V?$allocator@H@2@@2@U?$less@V?$basic_string@DU?$char_traits@D@std@@V?$allocator@D@2@@std@@@2@V?$allocator@U?$pair@$$CBV?$basic_string@DU?$char_traits@D@std@@V?$allocator@D@2@@std@@V?$set@HU?$less@H@std@@V?$allocator@H@2@@2@@std@@@2@$0A@@std@@@std@@QEAAPEAU?$_Tree_node@U?$pair@$$CBV?$basic_string@DU?$char_traits@D@std@@V?$allocator@D@2@@std@@V?$set@HU?$less@H@std@@V?$allocator@H@2@@2@@std@@PEAX@1@AEBUpiecewise_construct_t@1@$$QEAV?$tuple@AEBV?$basic_string@DU?$char_traits@D@std@@V?$allocator@D@2@@std@@@1@$$QEAV?$tuple@$$V@1@@Z$0 00000001800389dd f   MovieFFMpeg:MovieFFMpeg.obj
 0001:00037a00       ?dtor$38@?0??snagVideoColorInformation@MovieFFMpegReader@TwkMovie@@AEAA_NPEAUVideoTrack@2@@Z@4HA 0000000180038a00 f   MovieFFMpeg:MovieFFMpeg.obj
 0001:00037a00       ?dtor$40@?0??snagVideoColorInformation@MovieFFMpegReader@TwkMovie@@AEAA_NPEAUVideoTrack@2@@Z@4HA 0000000180038a00 f   MovieFFMpeg:MovieFFMpeg.obj
 0001:00037a00       ?dtor$36@?0??snagVideoColorInformation@MovieFFMpegReader@TwkMovie@@AEAA_NPEAUVideoTrack@2@@Z@4HA 0000000180038a00 f   MovieFFMpeg:MovieFFMpeg.obj
 0001:00037a00       ?dtor$0@?0???$newAttribute@V?$basic_string@DU?$char_traits@D@std@@V?$allocator@D@2@@std@@@FrameBuffer@TwkFB@@QEAAPEAV?$TypedFBAttribute@V?$basic_string@DU?$char_traits@D@std@@V?$allocator@D@2@@std@@@1@AEBV?$basic_string@DU?$char_traits@D@std@@V?$allocator@D@2@@std@@V34@@Z@4HA 0000000180038a00 f   MovieFFMpeg:MovieFFMpeg.obj
 0001:00037a00       ?dtor$1@?0???$_Buynode@AEBUpiecewise_construct_t@std@@V?$tuple@AEBV?$basic_string@DU?$char_traits@D@std@@V?$allocator@D@2@@std@@@2@V?$tuple@$$V@2@@?$_Tree_comp_alloc@V?$_Tmap_traits@V?$basic_string@DU?$char_traits@D@std@@V?$allocator@D@2@@std@@V?$set@HU?$less@H@std@@V?$allocator@H@2@@2@U?$less@V?$basic_string@DU?$char_traits@D@std@@V?$allocator@D@2@@std@@@2@V?$allocator@U?$pair@$$CBV?$basic_string@DU?$char_traits@D@std@@V?$allocator@D@2@@std@@V?$set@HU?$less@H@std@@V?$allocator@H@2@@2@@std@@@2@$0A@@std@@@std@@QEAAPEAU?$_Tree_node@U?$pair@$$CBV?$basic_string@DU?$char_traits@D@std@@V?$allocator@D@2@@std@@V?$set@HU?$less@H@std@@V?$allocator@H@2@@2@@std@@PEAX@1@AEBUpiecewise_construct_t@1@$$QEAV?$tuple@AEBV?$basic_string@DU?$char_traits@D@std@@V?$allocator@D@2@@std@@@1@$$QEAV?$tuple@$$V@1@@Z@4HA 0000000180038a00 f   MovieFFMpeg:MovieFFMpeg.obj
 0001:00037a10       ?catch$1@?0???$_Buynode@AEBUpiecewise_construct_t@std@@V?$tuple@AEBW4Channels@TwkAudio@@@2@V?$tuple@$$V@2@@?$_Tree_comp_alloc@V?$_Tmap_traits@W4Channels@TwkAudio@@UChannelMixState@2@U?$less@W4Channels@TwkAudio@@@std@@V?$allocator@U?$pair@$$CBW4Channels@TwkAudio@@UChannelMixState@2@@std@@@5@$0A@@std@@@std@@QEAAPEAU?$_Tree_node@U?$pair@$$CBW4Channels@TwkAudio@@UChannelMixState@2@@std@@PEAX@1@AEBUpiecewise_construct_t@1@$$QEAV?$tuple@AEBW4Channels@TwkAudio@@@1@$$QEAV?$tuple@$$V@1@@Z@4HA 0000000180038a10 f   MovieFFMpeg:MovieFFMpeg.obj
 0001:00037a1d       __catch$??$_Buynode@AEBUpiecewise_construct_t@std@@V?$tuple@AEBW4Channels@TwkAudio@@@2@V?$tuple@$$V@2@@?$_Tree_comp_alloc@V?$_Tmap_traits@W4Channels@TwkAudio@@UChannelMixState@2@U?$less@W4Channels@TwkAudio@@@std@@V?$allocator@U?$pair@$$CBW4Channels@TwkAudio@@UChannelMixState@2@@std@@@5@$0A@@std@@@std@@QEAAPEAU?$_Tree_node@U?$pair@$$CBW4Channels@TwkAudio@@UChannelMixState@2@@std@@PEAX@1@AEBUpiecewise_construct_t@1@$$QEAV?$tuple@AEBW4Channels@TwkAudio@@@1@$$QEAV?$tuple@$$V@1@@Z$0 0000000180038a1d f   MovieFFMpeg:MovieFFMpeg.obj
 0001:00037a40       ?catch$0@?0???$_Buynode@AEBUpiecewise_construct_t@std@@V?$tuple@AEB_J@2@V?$tuple@$$V@2@@?$_Tree_comp_alloc@V?$_Tmap_traits@_J_JU?$less@_J@std@@V?$allocator@U?$pair@$$CB_J_J@std@@@2@$0A@@std@@@std@@QEAAPEAU?$_Tree_node@U?$pair@$$CB_J_J@std@@PEAX@1@AEBUpiecewise_construct_t@1@$$QEAV?$tuple@AEB_J@1@$$QEAV?$tuple@$$V@1@@Z@4HA 0000000180038a40 f   MovieFFMpeg:MovieFFMpeg.obj
 0001:00037a4d       __catch$??$_Buynode@AEBUpiecewise_construct_t@std@@V?$tuple@AEB_J@2@V?$tuple@$$V@2@@?$_Tree_comp_alloc@V?$_Tmap_traits@_J_JU?$less@_J@std@@V?$allocator@U?$pair@$$CB_J_J@std@@@2@$0A@@std@@@std@@QEAAPEAU?$_Tree_node@U?$pair@$$CB_J_J@std@@PEAX@1@AEBUpiecewise_construct_t@1@$$QEAV?$tuple@AEB_J@1@$$QEAV?$tuple@$$V@1@@Z$0 0000000180038a4d f   MovieFFMpeg:MovieFFMpeg.obj
 0001:00037a70       ?catch$0@?0???$_Buynode@AEB_J@?$_Tree_comp_alloc@V?$_Tset_traits@_JU?$less@_J@std@@V?$allocator@_J@2@$0A@@std@@@std@@QEAAPEAU?$_Tree_node@_JPEAX@1@AEB_J@Z@4HA 0000000180038a70 f   MovieFFMpeg:MovieFFMpeg.obj
 0001:00037a7d       __catch$??$_Buynode@AEB_J@?$_Tree_comp_alloc@V?$_Tset_traits@_JU?$less@_J@std@@V?$allocator@_J@2@$0A@@std@@@std@@QEAAPEAU?$_Tree_node@_JPEAX@1@AEB_J@Z$0 0000000180038a7d f   MovieFFMpeg:MovieFFMpeg.obj
 0001:00037aa0       ?catch$0@?0???$_Buynode@PEAUContext@ContextPool@TwkMovie@@@?$_List_buy@PEAUContext@ContextPool@TwkMovie@@V?$allocator@PEAUContext@ContextPool@TwkMovie@@@std@@@std@@QEAAPEAU?$_List_node@PEAUContext@ContextPool@TwkMovie@@PEAX@1@PEAU21@0$$QEAPEAUContext@ContextPool@TwkMovie@@@Z@4HA 0000000180038aa0 f   MovieFFMpeg:MovieFFMpeg.obj
 0001:00037aad       __catch$??$_Buynode@PEAUContext@ContextPool@TwkMovie@@@?$_List_buy@PEAUContext@ContextPool@TwkMovie@@V?$allocator@PEAUContext@ContextPool@TwkMovie@@@std@@@std@@QEAAPEAU?$_List_node@PEAUContext@ContextPool@TwkMovie@@PEAX@1@PEAU21@0$$QEAPEAUContext@ContextPool@TwkMovie@@@Z$0 0000000180038aad f   MovieFFMpeg:MovieFFMpeg.obj
 0001:00037ad0       ?catch$0@?0???$_Copy_nodes@U_Copy_tag@?$_Tree@V?$_Tmap_traits@HHU?$less@H@std@@V?$allocator@U?$pair@$$CBHH@std@@@2@$0A@@std@@@std@@@?$_Tree@V?$_Tmap_traits@HHU?$less@H@std@@V?$allocator@U?$pair@$$CBHH@std@@@2@$0A@@std@@@std@@IEAAPEAU?$_Tree_node@U?$pair@$$CBHH@std@@PEAX@1@PEAU21@0U_Copy_tag@01@@Z@4HA 0000000180038ad0 f   MovieFFMpeg:MovieFFMpeg.obj
 0001:00037add       __catch$??$_Copy_nodes@U_Copy_tag@?$_Tree@V?$_Tmap_traits@HHU?$less@H@std@@V?$allocator@U?$pair@$$CBHH@std@@@2@$0A@@std@@@std@@@?$_Tree@V?$_Tmap_traits@HHU?$less@H@std@@V?$allocator@U?$pair@$$CBHH@std@@@2@$0A@@std@@@std@@IEAAPEAU?$_Tree_node@U?$pair@$$CBHH@std@@PEAX@1@PEAU21@0U_Copy_tag@01@@Z$0 0000000180038add f   MovieFFMpeg:MovieFFMpeg.obj
 0001:00037b00       ?catch$0@?0???$_Emplace_reallocate@AEBH@?$vector@HV?$allocator@H@std@@@std@@QEAAPEAHQEAHAEBH@Z@4HA 0000000180038b00 f   MovieFFMpeg:MovieFFMpeg.obj
 0001:00037b0d       __catch$??$_Emplace_reallocate@AEBH@?$vector@HV?$allocator@H@std@@@std@@QEAAPEAHQEAHAEBH@Z$0 0000000180038b0d f   MovieFFMpeg:MovieFFMpeg.obj
 0001:00037b30       ?catch$0@?0???$_Emplace_reallocate@AEBQEAUVideoTrack@TwkMovie@@@?$vector@PEAVVideoTrack@TwkMovie@@V?$allocator@PEAVVideoTrack@TwkMovie@@@std@@@std@@QEAAPEAPEAUVideoTrack@TwkMovie@@QEAPEAU23@AEBQEAU23@@Z@4HA 0000000180038b30 f   MovieFFMpeg:MovieFFMpeg.obj
 0001:00037b30       ?catch$0@?0???$_Emplace_reallocate@AEBQEAUAudioTrack@TwkMovie@@@?$vector@PEAVAudioTrack@TwkMovie@@V?$allocator@PEAVAudioTrack@TwkMovie@@@std@@@std@@QEAAPEAPEAUAudioTrack@TwkMovie@@QEAPEAU23@AEBQEAU23@@Z@4HA 0000000180038b30 f   MovieFFMpeg:MovieFFMpeg.obj
 0001:00037b3d       __catch$??$_Emplace_reallocate@AEBQEAUAudioTrack@TwkMovie@@@?$vector@PEAVAudioTrack@TwkMovie@@V?$allocator@PEAVAudioTrack@TwkMovie@@@std@@@std@@QEAAPEAPEAUAudioTrack@TwkMovie@@QEAPEAU23@AEBQEAU23@@Z$0 0000000180038b3d f   MovieFFMpeg:MovieFFMpeg.obj
 0001:00037b3d       __catch$??$_Emplace_reallocate@AEBQEAUVideoTrack@TwkMovie@@@?$vector@PEAVVideoTrack@TwkMovie@@V?$allocator@PEAVVideoTrack@TwkMovie@@@std@@@std@@QEAAPEAPEAUVideoTrack@TwkMovie@@QEAPEAU23@AEBQEAU23@@Z$0 0000000180038b3d f   MovieFFMpeg:MovieFFMpeg.obj
 0001:00037b60       ?catch$0@?0???$_Emplace_reallocate@AEBQEAVFBAttribute@TwkFB@@@?$vector@PEAVFBAttribute@TwkFB@@V?$allocator@PEAVFBAttribute@TwkFB@@@std@@@std@@QEAAPEAPEAVFBAttribute@TwkFB@@QEAPEAV23@AEBQEAV23@@Z@4HA 0000000180038b60 f   MovieFFMpeg:MovieFFMpeg.obj
 0001:00037b6d       __catch$??$_Emplace_reallocate@AEBQEAVFBAttribute@TwkFB@@@?$vector@PEAVFBAttribute@TwkFB@@V?$allocator@PEAVFBAttribute@TwkFB@@@std@@@std@@QEAAPEAPEAVFBAttribute@TwkFB@@QEAPEAV23@AEBQEAV23@@Z$0 0000000180038b6d f   MovieFFMpeg:MovieFFMpeg.obj
 0001:00037b90       ?catch$0@?0???$_Emplace_reallocate@AEBQEAVFrameBuffer@TwkFB@@@?$vector@PEAVFrameBuffer@TwkFB@@V?$allocator@PEAVFrameBuffer@TwkFB@@@std@@@std@@QEAAPEAPEAVFrameBuffer@TwkFB@@QEAPEAV23@AEBQEAV23@@Z@4HA 0000000180038b90 f   MovieFFMpeg:MovieFFMpeg.obj
 0001:00037b9d       __catch$??$_Emplace_reallocate@AEBQEAVFrameBuffer@TwkFB@@@?$vector@PEAVFrameBuffer@TwkFB@@V?$allocator@PEAVFrameBuffer@TwkFB@@@std@@@std@@QEAAPEAPEAVFrameBuffer@TwkFB@@QEAPEAV23@AEBQEAV23@@Z$0 0000000180038b9d f   MovieFFMpeg:MovieFFMpeg.obj
